 EDisk

 Timestamp is 50c156f2 (Fri Dec 07 10:39:46 2012)

 Preferred load address is 00010000

 Start         Length     Name                   Class
 0001:00000000 000d33a0H .text                   CODE
 0001:000d33a0 00001844H .text$yc                CODE
 0001:000d4be4 00000b18H .text$yd                CODE
 0002:00000000 00000004H .CRT$XCA                DATA
 0002:00000004 00000018H .CRT$XCC                DATA
 0002:0000001c 000000a4H .CRT$XCL                DATA
 0002:000000c0 0000003cH .CRT$XCU                DATA
 0002:000000fc 00000004H .CRT$XCZ                DATA
 0002:00000100 00000004H .CRT$XIA                DATA
 0002:00000104 00000004H .CRT$XIZ                DATA
 0002:00000108 00000004H .CRT$XPA                DATA
 0002:0000010c 00000004H .CRT$XPZ                DATA
 0002:00000110 00000004H .CRT$XTA                DATA
 0002:00000114 00000004H .CRT$XTZ                DATA
 0002:00000120 000a4282H .rdata                  DATA
 0002:000a43a4 00000057H .rdata$debug            DATA
 0002:000a43fc 0000224cH .rdata$r                DATA
 0002:000a6648 00000144H .xdata                  DATA
 0002:000a678c 000002f8H .xdata$x                DATA
 0002:000a6a84 00000004H ATL$__a                 DATA
 0002:000a6a88 00000004H ATL$__z                 DATA
 0002:000a6a8c 00000050H .idata$2                DATA
 0002:000a6adc 00000014H .idata$3                DATA
 0002:000a6af0 0000079cH .idata$4                DATA
 0002:000a728c 000003f4H .idata$6                DATA
 0002:000a7680 00000000H .edata                  DATA
 0003:00000000 0000079cH .idata$5                DATA
 0003:000007a0 00001610H .data                   DATA
 0003:00001db0 00002798H .bss                    DATA
 0004:00000000 00009d68H .pdata                  DATA
 0005:00000000 000008bcH .rsrc$01                DATA
 0005:000008c0 0001920cH .rsrc$02                DATA

  Address         Publics by Value              Rva+Base       Lib:Object

 0000:00000000       ___safe_se_handler_count   00000000     <absolute>
 0000:00000000       ___safe_se_handler_table   00000000     <absolute>
 0001:00000000       ??0CEDiskInterface@@QAA@XZ 00011000 f   disk.obj
 0001:00000054       ??1CEDiskInterface@@UAA@XZ 00011054 f   disk.obj
 0001:00000074       ?GetDiskInfo@CEDiskInterface@@QAAHPAU_DISK_INFO@@@Z 00011074 f   disk.obj
 0001:000000e0       ?WriteSectors@CEDiskInterface@@QAAHKPAEK@Z 000110e0 f   disk.obj
 0001:00000210       ?ReadSectors@CEDiskInterface@@QAAHKPAEK@Z 00011210 f   disk.obj
 0001:00000378       ?WriteCluster@CEDiskInterface@@QAAHKPAE@Z 00011378 f   disk.obj
 0001:00000420       ?ReadCluster@CEDiskInterface@@QAAHKPAE@Z 00011420 f   disk.obj
 0001:000004c8       ??_GCEDiskInterface@@UAAPAXI@Z 000114c8 f i disk.obj
 0001:000004c8       ??_ECEDiskInterface@@UAAPAXI@Z 000114c8 f i disk.obj
 0001:00000508       ??0CTraceFileAndLineInfo@ATL@@QAA@PBDH@Z 00011508 f i disk.obj
 0001:00000548       ??RCTraceFileAndLineInfo@ATL@@QBAXPB_WZZ 00011548 f i disk.obj
 0001:000005c0       ?TraceV@CTrace@ATL@@QBAXPBDHKIPB_WPAD@Z 000115c0 f i disk.obj
 0001:0000060c       ??BCTraceCategory@ATL@@QBAKXZ 0001160c f i disk.obj
 0001:00000634       ?GetMessageMap@CEDiskApp@@MBAPBUAFX_MSGMAP@@XZ 00011634 f   EDisk.obj
 0001:00000660       ?GetThisMessageMap@CEDiskApp@@KAPBUAFX_MSGMAP@@XZ 00011660 f   EDisk.obj
 0001:0000067c       ??0CEDiskApp@@QAA@XZ       0001167c f   EDisk.obj
 0001:000006c8       ?InitInstance@CEDiskApp@@UAAHXZ 000116c8 f   EDisk.obj
 0001:00000784       ??_GCEDiskApp@@UAAPAXI@Z   00011784 f i EDisk.obj
 0001:00000784       ??_ECEDiskApp@@UAAPAXI@Z   00011784 f i EDisk.obj
 0001:000007c4       ??1CEDiskApp@@UAA@XZ       000117c4 f i EDisk.obj
 0001:000007e4       ??1CEDiskDlg@@UAA@XZ       000117e4 f i EDisk.obj
 0001:00000858       ??0CEDiskDlg@@QAA@PB_WPAVCWnd@@@Z 00011858 f   EDiskDlg.obj
 0001:00000960       ?DoDataExchange@CEDiskDlg@@MAAXPAVCDataExchange@@@Z 00011960 f   EDiskDlg.obj
 0001:0000097c       ?GetMessageMap@CEDiskDlg@@MBAPBUAFX_MSGMAP@@XZ 0001197c f   EDiskDlg.obj
 0001:000009a8       ?GetThisMessageMap@CEDiskDlg@@KAPBUAFX_MSGMAP@@XZ 000119a8 f   EDiskDlg.obj
 0001:000009c4       ?OnInitDialog@CEDiskDlg@@MAAHXZ 000119c4 f   EDiskDlg.obj
 0001:00000a20       ??_GCEDiskDlg@@UAAPAXI@Z   00011a20 f i EDiskDlg.obj
 0001:00000a20       ??_ECEDiskDlg@@UAAPAXI@Z   00011a20 f i EDiskDlg.obj
 0001:00000a60       ?GetRuntimeClass@CEFat@@UBAPAUCRuntimeClass@@XZ 00011a60 f   EFat.obj
 0001:00000a90       ??0CEFat@@QAA@XZ           00011a90 f   EFat.obj
 0001:00000e2c       ??1CEFat@@UAA@XZ           00011e2c f   EFat.obj
 0001:00001040       ?DoDataExchange@CEFat@@MAAXPAVCDataExchange@@@Z 00012040 f   EFat.obj
 0001:00001178       ?GetMessageMap@CEFat@@MBAPBUAFX_MSGMAP@@XZ 00012178 f   EFat.obj
 0001:000011a4       ?GetThisMessageMap@CEFat@@KAPBUAFX_MSGMAP@@XZ 000121a4 f   EFat.obj
 0001:000011c0       ?InitFatParameters@CEFat@@IAAXXZ 000121c0 f   EFat.obj
 0001:0000123c       ?EnumPartIndex@CEFat@@IAAHPB_W@Z 0001223c f   EFat.obj
 0001:000013f8       ?EnumDiskIndex@CEFat@@IAAHXZ 000123f8 f   EFat.obj
 0001:00001504       ?RefreshFatInfo@CEFat@@IAAHPAE@Z 00012504 f   EFat.obj
 0001:0000190c       ?PrintSectorData@CEFat@@IAAXPAEK@Z 0001290c f   EFat.obj
 0001:00001b24       ?UpdateDiskInfo@CEFat@@IAAHU_DISK_INFO@@UtagPARTINFO@@@Z 00012b24 f   EFat.obj
 0001:00001e14       ?ReadMBR@CEFat@@IAAHPB_W@Z 00012e14 f   EFat.obj
 0001:00002010       ?ReadPart@CEFat@@IAAHPB_W0@Z 00013010 f   EFat.obj
 0001:00002470       ?OnInitDialog@CEFat@@UAAHXZ 00013470 f   EFat.obj
 0001:00002590       ?OnSelectDisk@CEFat@@QAAXXZ 00013590 f   EFat.obj
 0001:0000261c       ?OnBnClickedGetInfo@CEFat@@QAAXXZ 0001361c f   EFat.obj
 0001:00002728       ?OnBnClickedFormatDisk@CEFat@@QAAXXZ 00013728 f   EFat.obj
 0001:00002940       ?PreTranslateMessage@CEFat@@UAAHPAUtagMSG@@@Z 00013940 f   EFat.obj
 0001:000029c8       ??_ECEFat@@UAAPAXI@Z       000139c8 f i EFat.obj
 0001:000029c8       ??_GCEFat@@UAAPAXI@Z       000139c8 f i EFat.obj
 0001:00002a08       ?wcsstr@@YAPA_WPA_WPB_W@Z  00013a08 f i EFat.obj
 0001:00002a3c       ?strstr@@YAPADPADPBD@Z     00013a3c f i EFat.obj
 0001:00002a70       ??Y?$CStringT@_WV?$StrTraitMFC@_WV?$ChTraitsOS@_W@ATL@@@@@ATL@@QAAAAV01@PB_W@Z 00013a70 f i EFat.obj
 0001:00002aa0       ??0?$basic_string@DU?$char_traits@D@std@@V?$allocator@D@2@@std@@QAA@ABV?$allocator@D@1@@Z 00013aa0 f i EFat.obj
 0001:00002ad0       ??1?$basic_string@DU?$char_traits@D@std@@V?$allocator@D@2@@std@@QAA@XZ 00013ad0 f i EFat.obj
 0001:00002aec       ??4?$basic_string@DU?$char_traits@D@std@@V?$allocator@D@2@@std@@QAAAAV01@PBD@Z 00013aec f i EFat.obj
 0001:00002b20       ?append@?$basic_string@DU?$char_traits@D@std@@V?$allocator@D@2@@std@@QAAAAV12@PBD@Z 00013b20 f i EFat.obj
 0001:00002b64       ?length@?$char_traits@D@std@@SAIPBD@Z 00013b64 f i EFat.obj
 0001:00002b94       ?c_str@?$basic_string@DU?$char_traits@D@std@@V?$allocator@D@2@@std@@QBAPBDXZ 00013b94 f i EFat.obj
 0001:00002bf0       ?size@?$basic_string@DU?$char_traits@D@std@@V?$allocator@D@2@@std@@QBAIXZ 00013bf0 f i EFat.obj
 0001:00002c1c       ??Y?$CSimpleStringT@_W$0A@@ATL@@QAAAAV01@PB_W@Z 00013c1c f i EFat.obj
 0001:00002c4c       ?append@?$basic_string@DU?$char_traits@D@std@@V?$allocator@D@2@@std@@QAAAAV12@PBDI@Z 00013c4c f i EFat.obj
 0001:00002d14       ?copy@?$char_traits@D@std@@SAPADPADPBDI@Z 00013d14 f i EFat.obj
 0001:00002d4c       ?assign@?$basic_string@DU?$char_traits@D@std@@V?$allocator@D@2@@std@@QAAAAV12@PBD@Z 00013d4c f i EFat.obj
 0001:00002d90       ?_Nullstr@?$basic_string@DU?$char_traits@D@std@@V?$allocator@D@2@@std@@CAPBDXZ 00013d90 f i EFat.obj
 0001:00002dac       ?_Tidy@?$basic_string@DU?$char_traits@D@std@@V?$allocator@D@2@@std@@AAAX_N@Z 00013dac f i EFat.obj
 0001:00002ecc       ?Append@?$CSimpleStringT@_W$0A@@ATL@@QAAXPB_W@Z 00013ecc f i EFat.obj
 0001:00002f00       ?assign@?$basic_string@DU?$char_traits@D@std@@V?$allocator@D@2@@std@@QAAAAV12@PBDI@Z 00013f00 f i EFat.obj
 0001:00002f68       ?_Eos@?$basic_string@DU?$char_traits@D@std@@V?$allocator@D@2@@std@@AAAXI@Z 00013f68 f i EFat.obj
 0001:00002fb4       ?assign@?$char_traits@D@std@@SAXAADABD@Z 00013fb4 f i EFat.obj
 0001:00002fd4       ?_Grow@?$basic_string@DU?$char_traits@D@std@@V?$allocator@D@2@@std@@AAA_NI_N@Z 00013fd4 f i EFat.obj
 0001:000031fc       ?_Refcnt@?$basic_string@DU?$char_traits@D@std@@V?$allocator@D@2@@std@@AAAAAEPBD@Z 000141fc f i EFat.obj
 0001:00003224       ?deallocate@?$allocator@D@std@@QAAXPAXI@Z 00014224 f i EFat.obj
 0001:0000323c       ?Append@?$CSimpleStringT@_W$0A@@ATL@@QAAXPB_WH@Z 0001423c f i EFat.obj
 0001:0000331c       ?max_size@?$basic_string@DU?$char_traits@D@std@@V?$allocator@D@2@@std@@QBAIXZ 0001431c f i EFat.obj
 0001:00003380       ?_Copy@?$basic_string@DU?$char_traits@D@std@@V?$allocator@D@2@@std@@AAAXI@Z 00014380 f i EFat.obj
 0001:00003530       ?allocate@?$allocator@D@std@@QAAPADIPBX@Z 00014530 f i EFat.obj
 0001:00003564       ?max_size@?$allocator@D@std@@QBAIXZ 00014564 f i EFat.obj
 0001:000035b0       ?Format@?$CStringT@_WV?$StrTraitMFC@_WV?$ChTraitsOS@_W@ATL@@@@@ATL@@QAAXPB_WZZ 000145b0 f i EFat.obj
 0001:00003640       ??$_Allocate@D@std@@YAPADIPAD@Z 00014640 f i EFat.obj
 0001:000036c4       ?FormatV@?$CStringT@_WV?$StrTraitMFC@_WV?$ChTraitsOS@_W@ATL@@@@@ATL@@QAAXPB_WPAD@Z 000146c4 f i EFat.obj
 0001:000037a0       ?AtlThrowImpl@ATL@@YAXJ@Z  000147a0 f i EFat.obj
 0001:00003824       ??RCTraceFileAndLineInfo@ATL@@QBAXKIPB_WZZ 00014824 f i EFat.obj
 0001:0000388c       ?AtlIsValidString@ATL@@YAHPB_WI@Z 0001488c f i EFat.obj
 0001:000038d8       ?GetFormattedLength@?$ChTraitsOS@_W@ATL@@SAHPB_WPAD@Z 000148d8 f i EFat.obj
 0001:000039d4       ?wvsprintfW@ATL@@YAHPA_WPB_WPAD@Z 000149d4 f i EFat.obj
 0001:00003a58       ?Format@?$ChTraitsOS@_W@ATL@@SAHPA_WIPB_WPAD@Z 00014a58 f i EFat.obj
 0001:00003c5c       ?wcscpy_s@Checked@ATL@@YAXPA_WIPB_W@Z 00014c5c f i EFat.obj
 0001:00003c90       ?AfxCrtErrorCheck@@YAHH@Z  00014c90 f i EFat.obj
 0001:00003d14       ?GetLength@?$CSimpleStringT@_W$0A@@ATL@@QBAHXZ 00014d14 f i EFat.obj
 0001:00003d4c       ??0?$CStringT@_WV?$StrTraitMFC@_WV?$ChTraitsOS@_W@ATL@@@@@ATL@@QAA@XZ 00014d4c f i EFat.obj
 0001:00003d88       ??1?$CStringT@_WV?$StrTraitMFC@_WV?$ChTraitsOS@_W@ATL@@@@@ATL@@QAA@XZ 00014d88 f i EFat.obj
 0001:00003da0       ??0?$CSimpleStringT@_W$0A@@ATL@@QAA@PAUIAtlStringMgr@1@@Z 00014da0 f i EFat.obj
 0001:00003e7c       ??1?$CSimpleStringT@_W$0A@@ATL@@QAA@XZ 00014e7c f i EFat.obj
 0001:00003eb0       ?Release@CStringData@ATL@@QAAXXZ 00014eb0 f i EFat.obj
 0001:00003f58       ?GetBuffer@?$CSimpleStringT@_W$0A@@ATL@@QAAPA_WH@Z 00014f58 f i EFat.obj
 0001:00003f8c       ?StringLength@?$CSimpleStringT@_W$0A@@ATL@@SAHPB_W@Z 00014f8c f i EFat.obj
 0001:00003fd4       ?GetData@?$CSimpleStringT@_W$0A@@ATL@@ABAPAUCStringData@2@XZ 00014fd4 f i EFat.obj
 0001:00004000       ?PrepareWrite@?$CSimpleStringT@_W$0A@@ATL@@AAAPA_WH@Z 00015000 f i EFat.obj
 0001:00004084       ??4?$CStringT@_WV?$StrTraitMFC@_WV?$ChTraitsOS@_W@ATL@@@@@ATL@@QAAAAV01@PB_W@Z 00015084 f i EFat.obj
 0001:000040b4       ?GetDefaultManager@?$StrTraitMFC@_WV?$ChTraitsOS@_W@ATL@@@@SAPAUIAtlStringMgr@ATL@@XZ 000150b4 f i EFat.obj
 0001:000040d8       ??4?$CSimpleStringT@_W$0A@@ATL@@QAAAAV01@PB_W@Z 000150d8 f i EFat.obj
 0001:00004108       ?Empty@?$CSimpleStringT@_W$0A@@ATL@@QAAXXZ 00015108 f i EFat.obj
 0001:000041bc       ?IsLocked@CStringData@ATL@@QBA_NXZ 000151bc f i EFat.obj
 0001:0000420c       ?SetLength@?$CSimpleStringT@_W$0A@@ATL@@AAAXH@Z 0001520c f i EFat.obj
 0001:00004340       ?ReleaseBufferSetLength@?$CSimpleStringT@_W$0A@@ATL@@QAAXH@Z 00015340 f i EFat.obj
 0001:000043ac       ?Attach@?$CSimpleStringT@_W$0A@@ATL@@AAAXPAUCStringData@2@@Z 000153ac f i EFat.obj
 0001:000043dc       ?data@CStringData@ATL@@QAAPAXXZ 000153dc f i EFat.obj
 0001:00004404       ?PrepareWrite2@?$CSimpleStringT@_W$0A@@ATL@@AAAXH@Z 00015404 f i EFat.obj
 0001:000044f8       ?IsShared@CStringData@ATL@@QBA_NXZ 000154f8 f i EFat.obj
 0001:00004548       ?SetString@?$CSimpleStringT@_W$0A@@ATL@@QAAXPB_W@Z 00015548 f i EFat.obj
 0001:0000457c       ?CopyChars@?$CSimpleStringT@_W$0A@@ATL@@SAXPA_WIPB_WH@Z 0001557c f i EFat.obj
 0001:000045b0       ?Fork@?$CSimpleStringT@_W$0A@@ATL@@AAAXH@Z 000155b0 f i EFat.obj
 0001:000046d8       ?ThrowMemoryException@?$CSimpleStringT@_W$0A@@ATL@@KAXXZ 000156d8 f i EFat.obj
 0001:000046ec       ?Reallocate@?$CSimpleStringT@_W$0A@@ATL@@AAAXH@Z 000156ec f i EFat.obj
 0001:000047f0       ?SetString@?$CSimpleStringT@_W$0A@@ATL@@QAAXPB_WH@Z 000157f0 f i EFat.obj
 0001:000048dc       ?GetString@?$CSimpleStringT@_W$0A@@ATL@@QBAPB_WXZ 000158dc f i EFat.obj
 0001:00004904       ?CopyCharsOverlapped@?$CSimpleStringT@_W$0A@@ATL@@SAXPA_WIPB_WH@Z 00015904 f i EFat.obj
 0001:00004938       ?GetRuntimeClass@CEFile@@UBAPAUCRuntimeClass@@XZ 00015938 f   EFile.obj
 0001:00004968       ??0CEFile@@QAA@XZ          00015968 f   EFile.obj
 0001:00004a8c       ??1CEFile@@UAA@XZ          00015a8c f   EFile.obj
 0001:00004b74       ?DoDataExchange@CEFile@@MAAXPAVCDataExchange@@@Z 00015b74 f   EFile.obj
 0001:00004bc0       ?GetMessageMap@CEFile@@MBAPBUAFX_MSGMAP@@XZ 00015bc0 f   EFile.obj
 0001:00004bec       ?GetThisMessageMap@CEFile@@KAPBUAFX_MSGMAP@@XZ 00015bec f   EFile.obj
 0001:00004c10       ?EnumDiskInfo@CEFile@@IAAHXZ 00015c10 f   EFile.obj
 0001:00004d30       ?EnumPartInfo@CEFile@@IAAHPB_W@Z 00015d30 f   EFile.obj
 0001:00004ec8       ?FindDisk@CEFile@@IAAIPB_W@Z 00015ec8 f   EFile.obj
 0001:00004f58       ?PrintFileData@CEFile@@IAAXPAEK@Z 00015f58 f   EFile.obj
 0001:0000510c       ?Read@CEFile@@IAAHPAX@Z    0001610c f   EFile.obj
 0001:00005314       ?ReadFileData@CEFile@@IAAHPB_W@Z 00016314 f   EFile.obj
 0001:000054b8       ?InitPart@CEFile@@IAAHPB_W@Z 000164b8 f   EFile.obj
 0001:00005778       ?OnInitDialog@CEFile@@UAAHXZ 00016778 f   EFile.obj
 0001:000057b4       ?OnBnClickedFileSelect@CEFile@@QAAXXZ 000167b4 f   EFile.obj
 0001:00005940       ??_ECEFile@@UAAPAXI@Z      00016940 f i EFile.obj
 0001:00005940       ??_GCEFile@@UAAPAXI@Z      00016940 f i EFile.obj
 0001:00005980       ?IsEmpty@?$CSimpleStringT@_W$0A@@ATL@@QBA_NXZ 00016980 f i EFile.obj
 0001:000059d4       ??4?$CStringT@_WV?$StrTraitMFC@_WV?$ChTraitsOS@_W@ATL@@@@@ATL@@QAAAAV01@ABV01@@Z 000169d4 f i EFile.obj
 0001:00005a04       ?Find@?$CStringT@_WV?$StrTraitMFC@_WV?$ChTraitsOS@_W@ATL@@@@@ATL@@QBAH_WH@Z 00016a04 f i EFile.obj
 0001:00005b18       ?Right@?$CStringT@_WV?$StrTraitMFC@_WV?$ChTraitsOS@_W@ATL@@@@@ATL@@QBA?AV12@H@Z 00016b18 f i EFile.obj
 0001:00005c00       ??4?$CSimpleStringT@_W$0A@@ATL@@QAAAAV01@ABV01@@Z 00016c00 f i EFile.obj
 0001:00005ce0       ??0?$CStringT@_WV?$StrTraitMFC@_WV?$ChTraitsOS@_W@ATL@@@@@ATL@@QAA@PB_WHPAUIAtlStringMgr@1@@Z 00016ce0 f i EFile.obj
 0001:00005d1c       ?GetManager@?$CStringT@_WV?$StrTraitMFC@_WV?$ChTraitsOS@_W@ATL@@@@@ATL@@QBAPAUIAtlStringMgr@2@XZ 00016d1c f i EFile.obj
 0001:00005d9c       ??0?$CSimpleStringT@_W$0A@@ATL@@QAA@PB_WHPAUIAtlStringMgr@1@@Z 00016d9c f i EFile.obj
 0001:00005ed8       ?GetManager@?$CSimpleStringT@_W$0A@@ATL@@QBAPAUIAtlStringMgr@2@XZ 00016ed8 f i EFile.obj
 0001:00005f54       ?StringFindChar@?$ChTraitsOS@_W@ATL@@SAPB_WPB_W_W@Z 00016f54 f i EFile.obj
 0001:00005f88       ?strchr@?$ChTraitsOS@_W@ATL@@SAPB_WPB_W_W@Z 00016f88 f i EFile.obj
 0001:00005fbc       ??B?$CSimpleStringT@_W$0A@@ATL@@QBAPB_WXZ 00016fbc f i EFile.obj
 0001:00005fe4       ??0?$CStringT@_WV?$StrTraitMFC@_WV?$ChTraitsOS@_W@ATL@@@@@ATL@@QAA@ABV01@@Z 00016fe4 f i EFile.obj
 0001:00006020       ??0?$CStringT@_WV?$StrTraitMFC@_WV?$ChTraitsOS@_W@ATL@@@@@ATL@@QAA@PB_W@Z 00017020 f i EFile.obj
 0001:000060a0       ??0?$CSimpleStringT@_W$0A@@ATL@@QAA@ABV01@@Z 000170a0 f i EFile.obj
 0001:000060f8       ?CheckImplicitLoad@?$CStringT@_WV?$StrTraitMFC@_WV?$ChTraitsOS@_W@ATL@@@@@ATL@@AAA_NPBX@Z 000170f8 f i EFile.obj
 0001:000061bc       ?LoadStringW@?$CStringT@_WV?$StrTraitMFC@_WV?$ChTraitsOS@_W@ATL@@@@@ATL@@QAAHI@Z 000171bc f i EFile.obj
 0001:00006220       ?LoadStringW@?$CStringT@_WV?$StrTraitMFC@_WV?$ChTraitsOS@_W@ATL@@@@@ATL@@QAAHPAUHINSTANCE__@@I@Z 00017220 f i EFile.obj
 0001:000062d8       ?AtlGetStringResourceImage@ATL@@YAPBUATLSTRINGRESOURCEIMAGE@1@PAUHINSTANCE__@@I@Z 000172d8 f i EFile.obj
 0001:00006358       ?_AtlGetStringResourceImage@ATL@@YAPBUATLSTRINGRESOURCEIMAGE@1@PAUHINSTANCE__@@PAUHRSRC__@@I@Z 00017358 f i EFile.obj
 0001:00006490       LockResource               00017490 f i EFile.obj
 0001:000064b4       ?GetBaseTypeLength@?$ChTraitsOS@_W@ATL@@SAHPB_WH@Z 000174b4 f i EFile.obj
 0001:000064d8       ?ConvertToBaseType@?$ChTraitsOS@_W@ATL@@SAXPA_WHPB_WH@Z 000174d8 f i EFile.obj
 0001:00006528       ?wmemcpy_s@Checked@ATL@@YAXPA_WIPB_WI@Z 00017528 f i EFile.obj
 0001:00006560       wmemcpy_s                  00017560 f i EFile.obj
 0001:000065ac       ?GetBaseTypeLength@?$ChTraitsOS@_W@ATL@@SAHPB_W@Z 000175ac f i EFile.obj
 0001:000065dc       ?lstrlenW@ATL@@YAHPB_W@Z   000175dc f i EFile.obj
 0001:0000662c       ?FindStringResourceInstance@?$StrTraitMFC@_WV?$ChTraitsOS@_W@ATL@@@@SAPAUHINSTANCE__@@I@Z 0001762c f i EFile.obj
 0001:0000665c       ?CloneData@?$CSimpleStringT@_W$0A@@ATL@@CAPAUCStringData@2@PAU32@@Z 0001765c f i EFile.obj
 0001:00006798       ?AddRef@CStringData@ATL@@QAAXXZ 00017798 f i EFile.obj
 0001:00006808       ??$AtlstrchrT@_W@ATL@@YAPB_WPB_W_W@Z 00017808 f i EFile.obj
 0001:00006904       ??$AtlCharNext@_W@ATL@@YAPA_WPB_W@Z 00017904 f i EFile.obj
 0001:0000692c       ?Size2String@@YAH_JPA_WK@Z 0001792c f   eutil.obj
 0001:00006a98       ?MByteToWChar@@YAPA_WPBD@Z 00017a98 f   eutil.obj
 0001:00006be0       ?WCharToMByte@@YAPADPB_W@Z 00017be0 f   eutil.obj
 0001:00006d10       ?DeleteBuffer@@YAXPAX@Z    00017d10 f   eutil.obj
 0001:00006d4c       ?Write2File@@YAIPAEKPBD@Z  00017d4c f   eutil.obj
 0001:00006e20       ?Write2File@@YAPAXPAXPAEKPB_W@Z 00017e20 f   eutil.obj
 0001:00006f9c       ?GetCurrentDirectory@@YAHPA_WK@Z 00017f9c f   eutil.obj
 0001:00007168       ??0?$basic_string@_WU?$char_traits@_W@std@@V?$allocator@_W@2@@std@@QAA@PB_WABV?$allocator@_W@1@@Z 00018168 f i eutil.obj
 0001:000071a4       ??1?$basic_string@_WU?$char_traits@_W@std@@V?$allocator@_W@2@@std@@QAA@XZ 000181a4 f i eutil.obj
 0001:000071c0       ?append@?$basic_string@_WU?$char_traits@_W@std@@V?$allocator@_W@2@@std@@QAAAAV12@PB_W@Z 000181c0 f i eutil.obj
 0001:00007204       ?length@?$char_traits@_W@std@@SAIPB_W@Z 00018204 f i eutil.obj
 0001:00007234       ?c_str@?$basic_string@_WU?$char_traits@_W@std@@V?$allocator@_W@2@@std@@QBAPB_WXZ 00018234 f i eutil.obj
 0001:00007290       ?rfind@?$basic_string@_WU?$char_traits@_W@std@@V?$allocator@_W@2@@std@@QBAIPB_WI@Z 00018290 f i eutil.obj
 0001:000072d8       ?append@?$basic_string@_WU?$char_traits@_W@std@@V?$allocator@_W@2@@std@@QAAAAV12@PB_WI@Z 000182d8 f i eutil.obj
 0001:000073a8       ?copy@?$char_traits@_W@std@@SAPA_WPA_WPB_WI@Z 000183a8 f i eutil.obj
 0001:000073e0       ?assign@?$basic_string@_WU?$char_traits@_W@std@@V?$allocator@_W@2@@std@@QAAAAV12@PB_W@Z 000183e0 f i eutil.obj
 0001:00007424       ?rfind@?$basic_string@_WU?$char_traits@_W@std@@V?$allocator@_W@2@@std@@QBAIPB_WII@Z 00018424 f i eutil.obj
 0001:000075a8       ?eq@?$char_traits@_W@std@@SA_NAB_W0@Z 000185a8 f i eutil.obj
 0001:00007600       ?compare@?$char_traits@_W@std@@SAHPB_W0I@Z 00018600 f i eutil.obj
 0001:00007638       ?_Nullstr@?$basic_string@_WU?$char_traits@_W@std@@V?$allocator@_W@2@@std@@CAPB_WXZ 00018638 f i eutil.obj
 0001:00007654       ?_Tidy@?$basic_string@_WU?$char_traits@_W@std@@V?$allocator@_W@2@@std@@AAAX_N@Z 00018654 f i eutil.obj
 0001:00007774       ?assign@?$basic_string@_WU?$char_traits@_W@std@@V?$allocator@_W@2@@std@@QAAAAV12@PB_WI@Z 00018774 f i eutil.obj
 0001:000077dc       ?_Eos@?$basic_string@_WU?$char_traits@_W@std@@V?$allocator@_W@2@@std@@AAAXI@Z 000187dc f i eutil.obj
 0001:00007830       ?assign@?$char_traits@_W@std@@SAXAA_WAB_W@Z 00018830 f i eutil.obj
 0001:00007850       ?_Grow@?$basic_string@_WU?$char_traits@_W@std@@V?$allocator@_W@2@@std@@AAA_NI_N@Z 00018850 f i eutil.obj
 0001:00007a78       ?_Refcnt@?$basic_string@_WU?$char_traits@_W@std@@V?$allocator@_W@2@@std@@AAAAAEPB_W@Z 00018a78 f i eutil.obj
 0001:00007aa0       ?deallocate@?$allocator@_W@std@@QAAXPAXI@Z 00018aa0 f i eutil.obj
 0001:00007ab8       ?max_size@?$basic_string@_WU?$char_traits@_W@std@@V?$allocator@_W@2@@std@@QBAIXZ 00018ab8 f i eutil.obj
 0001:00007b1c       ?_Copy@?$basic_string@_WU?$char_traits@_W@std@@V?$allocator@_W@2@@std@@AAAXI@Z 00018b1c f i eutil.obj
 0001:00007ccc       ?allocate@?$allocator@_W@std@@QAAPA_WIPBX@Z 00018ccc f i eutil.obj
 0001:00007d00       ?max_size@?$allocator@_W@std@@QBAIXZ 00018d00 f i eutil.obj
 0001:00007d4c       ??$_Allocate@_W@std@@YAPA_WIPA_W@Z 00018d4c f i eutil.obj
 0001:00007dd8       wmemcmp                    00018dd8 f i eutil.obj
 0001:00007e8c       wmemcpy                    00018e8c f i eutil.obj
 0001:00007f00       ??0CEFatfs@@QAA@XZ         00018f00 f   fatfs1.obj
 0001:00007fe8       ??1CEFatfs@@UAA@XZ         00018fe8 f   fatfs1.obj
 0001:00008014       ?GetPartData@CEFatfs@@QAAHPAU_VOLUME_DATA@@@Z 00019014 f   fatfs1.obj
 0001:0000807c       ?OpenPart@CEFatfs@@QAAPAXPB_W0@Z 0001907c f   fatfs1.obj
 0001:00008194       ?InitDiskInterface@CEFatfs@@QAAHPAX@Z 00019194 f   fatfs1.obj
 0001:00008208       ?GetDiskInfo@CEFatfs@@QAAHPAU_DISK_INFO@@@Z 00019208 f   fatfs1.obj
 0001:00008270       ?ReadSectors@CEFatfs@@QAAHKPAEK@Z 00019270 f   fatfs1.obj
 0001:000082b0       ?GetBootSectorData@CEFatfs@@QAAHPAE@Z 000192b0 f   fatfs1.obj
 0001:00008320       ?ParseFatInfo@CEFatfs@@QAAHPAE@Z 00019320 f   fatfs1.obj
 0001:00008b98       ?InitRootDirEntry@CEFatfs@@IAAHPAUFATFS_DIR_ENTRY@@@Z 00019b98 f   fatfs1.obj
 0001:00008c34       ?InitPos@CEFatfs@@IAAHPAUFATFS_DIR_ENTRY@@PAUFATFS_DATA_POS@@@Z 00019c34 f   fatfs1.obj
 0001:00008c8c       ?CloseFile@CEFatfs@@QAAHPAX@Z 00019c8c f   fatfs1.obj
 0001:00008cf4       ?CreateFileW@CEFatfs@@QAAPAXPA_W@Z 00019cf4 f   fatfs1.obj
 0001:00008e90       ?ReadFile@CEFatfs@@QAAKPAXPAEK@Z 00019e90 f   fatfs1.obj
 0001:00008fe8       ?WriteFile@CEFatfs@@QAAKPAXPAEK@Z 00019fe8 f   fatfs1.obj
 0001:00009124       ?SeekFile@CEFatfs@@QAAHPAXK@Z 0001a124 f   fatfs1.obj
 0001:0000923c       ?DoCreateFile@CEFatfs@@IAAPAXPAUFATFS_DIR_SEARCH@@@Z 0001a23c f   fatfs1.obj
 0001:00009658       ?Find@CEFatfs@@IAAHPAUFATFS_DIR_SEARCH@@@Z 0001a658 f   fatfs1.obj
 0001:00009774       ?Find_DEntry@CEFatfs@@IAAHPAUFATFS_DIR_SEARCH@@@Z 0001a774 f   fatfs1.obj
 0001:000098ec       ?Find_DirEntry@CEFatfs@@IAAHPAUFATFS_DIR_SEARCH@@@Z 0001a8ec f   fatfs1.obj
 0001:00009a2c       ?Read_DEntry@CEFatfs@@IAAHPAUFATFS_DIR_ENTRY@@PAUFATFS_DATA_POS@@0@Z 0001aa2c f   fatfs1.obj
 0001:00009b0c       ?CreateDirEntry@CEFatfs@@IAAHPAUFATFS_DATA_POS@@PAE@Z 0001ab0c f   fatfs1.obj
 0001:00009bfc       ?Read_NextDEntry@CEFatfs@@IAAHPAUFATFS_DATA_POS@@PAE@Z 0001abfc f   fatfs1.obj
 0001:00009da8       ?ReadDirEntry@CEFatfs@@IAAHPAUFATFS_DATA_POS@@PAE@Z 0001ada8 f   fatfs1.obj
 0001:00009fd4       ?Raw2Entry@CEFatfs@@IAAHPAEPAUFATFS_DATA_POS@@PAUFATFS_DIR_ENTRY@@@Z 0001afd4 f   fatfs1.obj
 0001:0000a40c       ?FillDirEntry@CEFatfs@@IAAHPAE0@Z 0001b40c f   fatfs1.obj
 0001:0000a7a4       ?GetFileName@CEFatfs@@IAAHPAUFAT_LONG_DIR_ENTRY@@@Z 0001b7a4 f   fatfs1.obj
 0001:0000a9a8       ?DoChkSum@CEFatfs@@IAAEPAE@Z 0001b9a8 f   fatfs1.obj
 0001:0000aa5c       ?IsLegalShortNameChar@CEFatfs@@IAAHE@Z 0001ba5c f   fatfs1.obj
 0001:0000ab9c       ?NameConvert@CEFatfs@@IAAHPA_WPAD@Z 0001bb9c f   fatfs1.obj
 0001:0000ae84       ?Get_NextFreeCluster@CEFatfs@@IAAHPAUFATFS_DATA_POS@@@Z 0001be84 f   fatfs1.obj
 0001:0000b000       ?Get_NextChainCluster@CEFatfs@@IAAHPAUFATFS_DATA_POS@@@Z 0001c000 f   fatfs1.obj
 0001:0000b150       ?Get_FatEntryType@CEFatfs@@IAAHK@Z 0001c150 f   fatfs1.obj
 0001:0000b3f4       ?WriteData@CEFatfs@@IAAHPAEAAKPAUFATFS_DATA_POS@@@Z 0001c3f4 f   fatfs1.obj
 0001:0000b600       ?ReadData@CEFatfs@@IAAHPAEAAKPAUFATFS_DATA_POS@@@Z 0001c600 f   fatfs1.obj
 0001:0000b7d4       ?Write_FatEntry@CEFatfs@@IAAHKK@Z 0001c7d4 f   fatfs1.obj
 0001:0000bc7c       ?Read_FatEntry@CEFatfs@@IAAHKAAK@Z 0001cc7c f   fatfs1.obj
 0001:0000c00c       ?ReadCluster@CEFatfs@@IAAHPAEKKK@Z 0001d00c f   fatfs1.obj
 0001:0000c108       ?ReadSector@CEFatfs@@IAAHKKPAEK@Z 0001d108 f   fatfs1.obj
 0001:0000c3a0       ?WriteCluster@CEFatfs@@IAAHPAEKKK@Z 0001d3a0 f   fatfs1.obj
 0001:0000c49c       ?WriteSector@CEFatfs@@IAAHKKPAEK@Z 0001d49c f   fatfs1.obj
 0001:0000c7b0       ??_GCEFatfs@@UAAPAXI@Z     0001d7b0 f i fatfs1.obj
 0001:0000c7b0       ??_ECEFatfs@@UAAPAXI@Z     0001d7b0 f i fatfs1.obj
 0001:0000c7f0       ?Init@CEDiskInterface@@QAAXPAX@Z 0001d7f0 f i fatfs1.obj
 0001:0000c810       ?SetParameter@CEDiskInterface@@QAAXKPAU_VOLUME_DATA@@@Z 0001d810 f i fatfs1.obj
 0001:0000c840       ?AfxAssertFailedLine@@YAHPBDH@Z 0001d840 f   uafxcwd:afxasert.obj
 0001:0000c9a8       ?lstrlenA@ATL@@YAHPBD@Z    0001d9a8 f i uafxcwd:afxasert.obj
 0001:0000ca1c       ?_AtlGetConversionACP@ATL@@YAIXZ 0001da1c f i uafxcwd:afxasert.obj
 0001:0000ca34       ?AtlA2WHelper@@YAPA_WPA_WPBDHI@Z 0001da34 f i uafxcwd:afxasert.obj
 0001:0000cb94       ??0CAtlWinModule@ATL@@QAA@XZ 0001db94 f i uafxcwd:afxasert.obj
 0001:0000cc54       ??0_ATL_WIN_MODULE70@ATL@@QAA@XZ 0001dc54 f i uafxcwd:afxasert.obj
 0001:0000ccb8       ??0CComCriticalSection@ATL@@QAA@XZ 0001dcb8 f i uafxcwd:afxasert.obj
 0001:0000ccf0       ??1CComCriticalSection@ATL@@QAA@XZ 0001dcf0 f i uafxcwd:afxasert.obj
 0001:0000cd04       ??0?$CSimpleArray@GV?$CSimpleArrayEqualHelper@G@ATL@@@ATL@@QAA@XZ 0001dd04 f i uafxcwd:afxasert.obj
 0001:0000cd60       ??1CAtlWinModule@ATL@@QAA@XZ 0001dd60 f i uafxcwd:afxasert.obj
 0001:0000cda0       ?Term@CAtlWinModule@ATL@@QAAXXZ 0001dda0 f i uafxcwd:afxasert.obj
 0001:0000cdd8       ?GetModuleInstance@CAtlBaseModule@ATL@@QAAPAUHINSTANCE__@@XZ 0001ddd8 f i uafxcwd:afxasert.obj
 0001:0000ce10       ??1_ATL_WIN_MODULE70@ATL@@QAA@XZ 0001de10 f i uafxcwd:afxasert.obj
 0001:0000ce5c       ?AtlWinModuleTerm@ATL@@YAJPAU_ATL_WIN_MODULE70@1@PAUHINSTANCE__@@@Z 0001de5c f i uafxcwd:afxasert.obj
 0001:0000cf60       ?Term@CComCriticalSection@ATL@@QAAJXZ 0001df60 f i uafxcwd:afxasert.obj
 0001:0000cf90       ?GetSize@?$CSimpleArray@GV?$CSimpleArrayEqualHelper@G@ATL@@@ATL@@QBAHXZ 0001df90 f i uafxcwd:afxasert.obj
 0001:0000cfc0       ?RemoveAll@?$CSimpleArray@GV?$CSimpleArrayEqualHelper@G@ATL@@@ATL@@QAAXXZ 0001dfc0 f i uafxcwd:afxasert.obj
 0001:0000d058       ??A?$CSimpleArray@GV?$CSimpleArrayEqualHelper@G@ATL@@@ATL@@QAAAAGH@Z 0001e058 f i uafxcwd:afxasert.obj
 0001:0000d124       ?_AtlRaiseException@ATL@@YAXKK@Z 0001e124 f i uafxcwd:afxasert.obj
 0001:0000d14c       ??1?$CSimpleArray@GV?$CSimpleArrayEqualHelper@G@ATL@@@ATL@@QAA@XZ 0001e14c f i uafxcwd:afxasert.obj
 0001:0000d168       ?GetMessageMap@CWinApp@@MBAPBUAFX_MSGMAP@@XZ 0001e168 f   uafxcwd:appcore.obj
 0001:0000d198       ?GetThisMessageMap@CWinApp@@KAPBUAFX_MSGMAP@@XZ 0001e198 f   uafxcwd:appcore.obj
 0001:0000d1b4       ?AfxLoadLangResourceDLL@@YAPAUHINSTANCE__@@PB_W@Z 0001e1b4 f   uafxcwd:appcore.obj
 0001:0000d84c       ??0CWinApp@@QAA@PB_W@Z     0001e84c f   uafxcwd:appcore.obj
 0001:0000dc00       ?LoadSysPolicies@CWinApp@@UAAHXZ 0001ec00 f   uafxcwd:appcore.obj
 0001:0000dc34       ?_LoadSysPolicies@CWinApp@@IAAHXZ 0001ec34 f   uafxcwd:appcore.obj
 0001:0000ddf0       ?GetSysPolicyValue@CWinApp@@QAAHKPAH@Z 0001edf0 f   uafxcwd:appcore.obj
 0001:0000de68       ?InitApplication@CWinApp@@UAAHXZ 0001ee68 f   uafxcwd:appcore.obj
 0001:0000df4c       ?InitInstance@CWinApp@@UAAHXZ 0001ef4c f   uafxcwd:appcore.obj
 0001:0000dffc       ?LoadAppLangResourceDLL@CWinApp@@UAAPAUHINSTANCE__@@XZ 0001effc f   uafxcwd:appcore.obj
 0001:0000e174       ?ParseCommandLine@CWinApp@@QAAXAAVCCommandLineInfo@@@Z 0001f174 f   uafxcwd:appcore.obj
 0001:0000e2d8       ??0CCommandLineInfo@@QAA@XZ 0001f2d8 f   uafxcwd:appcore.obj
 0001:0000e36c       ??1CCommandLineInfo@@UAA@XZ 0001f36c f   uafxcwd:appcore.obj
 0001:0000e3a4       ?ParseParam@CCommandLineInfo@@UAAXPB_WHH@Z 0001f3a4 f   uafxcwd:appcore.obj
 0001:0000e3ec       ?ParseParamFlag@CCommandLineInfo@@IAAXPB_W@Z 0001f3ec f   uafxcwd:appcore.obj
 0001:0000e684       ?ParseParamNotFlag@CCommandLineInfo@@IAAXPB_W@Z 0001f684 f   uafxcwd:appcore.obj
 0001:0000e6cc       ?ParseLast@CCommandLineInfo@@IAAXH@Z 0001f6cc f   uafxcwd:appcore.obj
 0001:0000e7b8       ??1CWinApp@@UAA@XZ         0001f7b8 f   uafxcwd:appcore.obj
 0001:0000eaf0       ?ExitInstance@CWinApp@@UAAHXZ 0001faf0 f   uafxcwd:appcore.obj
 0001:0000eb80       ?Run@CWinApp@@UAAHXZ       0001fb80 f   uafxcwd:appcore.obj
 0001:0000ec24       ?AfxPostQuitMessage@@YAXH@Z 0001fc24 f   uafxcwd:appcore.obj
 0001:0000ec94       ?ProcessWndProcException@CWinApp@@UAAJPAVCException@@PBUtagMSG@@@Z 0001fc94 f   uafxcwd:appcore.obj
 0001:0000eec4       ?OnIdle@CWinApp@@UAAHJ@Z   0001fec4 f   uafxcwd:appcore.obj
 0001:0000f07c       ?AssertValid@CWinApp@@UBAXXZ 0002007c f   uafxcwd:appcore.obj
 0001:0000f188       ?GetRuntimeClass@CWinApp@@UBAPAUCRuntimeClass@@XZ 00020188 f   uafxcwd:appcore.obj
 0001:0000f1b4       GetCurrentThread           000201b4 f i uafxcwd:appcore.obj
 0001:0000f1cc       GetCurrentThreadId         000201cc f i uafxcwd:appcore.obj
 0001:0000f1ec       ??_ECWinApp@@UAAPAXI@Z     000201ec f i uafxcwd:appcore.obj
 0001:0000f1ec       ??_GCWinApp@@UAAPAXI@Z     000201ec f i uafxcwd:appcore.obj
 0001:0000f230       ??_GCCommandLineInfo@@UAAPAXI@Z 00020230 f i uafxcwd:appcore.obj
 0001:0000f230       ??_ECCommandLineInfo@@UAAPAXI@Z 00020230 f i uafxcwd:appcore.obj
 0001:0000f274       ??B?$CThreadLocal@VAFX_MODULE_THREAD_STATE@@@@QAAPAVAFX_MODULE_THREAD_STATE@@XZ 00020274 f i uafxcwd:appcore.obj
 0001:0000f2a8       ?GetData@?$CThreadLocal@VAFX_MODULE_THREAD_STATE@@@@QAAPAVAFX_MODULE_THREAD_STATE@@XZ 000202a8 f i uafxcwd:appcore.obj
 0001:0000f35c       ?CreateObject@?$CThreadLocal@VAFX_MODULE_THREAD_STATE@@@@SAPAVCNoTrackObject@@XZ 0002035c f i uafxcwd:appcore.obj
 0001:0000f3d8       ?GetVersion@ATL@@YAKXZ     000203d8 f i uafxcwd:appcore.obj
 0001:0000f49c       ?PathFindExtensionW@ATL@@YAPA_WPB_W@Z 0002049c f i uafxcwd:appcore.obj
 0001:0000f5a0       ?tcscpy_s@Checked@ATL@@YAXPA_WIPB_W@Z 000205a0 f i uafxcwd:appcore.obj
 0001:0000f5d8       ?SetResourceInstance@CAtlBaseModule@ATL@@QAAPAUHINSTANCE__@@PAU3@@Z 000205d8 f i uafxcwd:appcore.obj
 0001:0000f614       ??1?$CProcessLocal@V_AFX_WIN_STATE@@@@QAA@XZ 00020614 f i uafxcwd:appcore.obj
 0001:0000f630       ??0CObject@@IAA@XZ         00020630 f   uafxcwd:afxinl1.obj
 0001:0000f668       ??1CObject@@UAA@XZ         00020668 f   uafxcwd:afxinl1.obj
 0001:0000f68c       ?Serialize@CObject@@UAAXAAVCArchive@@@Z 0002068c f   uafxcwd:afxinl1.obj
 0001:0000f6a0       ??2CObject@@SAPAXIPAX@Z    000206a0 f   uafxcwd:afxinl1.obj
 0001:0000f6c8       ?AfxDynamicDownCast@@YAPBVCObject@@PAUCRuntimeClass@@PBV1@@Z 000206c8 f   uafxcwd:afxinl1.obj
 0001:0000f700       ?AfxStaticDownCast@@YAPBVCObject@@PAUCRuntimeClass@@PBV1@@Z 00020700 f   uafxcwd:afxinl1.obj
 0001:0000f738       ??1CException@@UAA@XZ      00020738 f   uafxcwd:afxinl1.obj
 0001:0000f764       ??0CSimpleException@@QAA@XZ 00020764 f   uafxcwd:afxinl1.obj
 0001:0000f7c8       ??0CSimpleException@@QAA@H@Z 000207c8 f   uafxcwd:afxinl1.obj
 0001:0000f830       ??1CSimpleException@@UAA@XZ 00020830 f   uafxcwd:afxinl1.obj
 0001:0000f85c       ??0CMemoryException@@QAA@XZ 0002085c f   uafxcwd:afxinl1.obj
 0001:0000f8a0       ??0CMemoryException@@QAA@HI@Z 000208a0 f   uafxcwd:afxinl1.obj
 0001:0000f8f8       ??1CMemoryException@@UAA@XZ 000208f8 f   uafxcwd:afxinl1.obj
 0001:0000f924       ??0CNotSupportedException@@QAA@XZ 00020924 f   uafxcwd:afxinl1.obj
 0001:0000f968       ??0CNotSupportedException@@QAA@HI@Z 00020968 f   uafxcwd:afxinl1.obj
 0001:0000f9c0       ??1CNotSupportedException@@UAA@XZ 000209c0 f   uafxcwd:afxinl1.obj
 0001:0000f9ec       ??0CInvalidArgException@@QAA@XZ 000209ec f   uafxcwd:afxinl1.obj
 0001:0000fa30       ??0CInvalidArgException@@QAA@HI@Z 00020a30 f   uafxcwd:afxinl1.obj
 0001:0000fa88       ??1CInvalidArgException@@UAA@XZ 00020a88 f   uafxcwd:afxinl1.obj
 0001:0000fabc       ??0CArchiveException@@QAA@HPB_W@Z 00020abc f   uafxcwd:afxinl1.obj
 0001:0000fb64       ??1CArchiveException@@UAA@XZ 00020b64 f   uafxcwd:afxinl1.obj
 0001:0000fba4       ??0CFileException@@QAA@HJPB_W@Z 00020ba4 f   uafxcwd:afxinl1.obj
 0001:0000fc5c       ??1CFileException@@UAA@XZ  00020c5c f   uafxcwd:afxinl1.obj
 0001:0000fc94       ??BCFile@@QBAPAXXZ         00020c94 f   uafxcwd:afxinl1.obj
 0001:0000fcc4       ?SeekToEnd@CFile@@QAA_KXZ  00020cc4 f   uafxcwd:afxinl1.obj
 0001:0000fd28       ?SeekToBegin@CFile@@QAAXXZ 00020d28 f   uafxcwd:afxinl1.obj
 0001:0000fd64       ?SetFilePath@CFile@@UAAXPB_W@Z 00020d64 f   uafxcwd:afxinl1.obj
 0001:0000fdf8       ?IsLoading@CArchive@@QBAHXZ 00020df8 f   uafxcwd:afxinl1.obj
 0001:0000fe48       ?IsStoring@CArchive@@QBAHXZ 00020e48 f   uafxcwd:afxinl1.obj
 0001:0000fe98       ?IsByteSwapping@CArchive@@QBAHXZ 00020e98 f   uafxcwd:afxinl1.obj
 0001:0000fec0       ?IsBufferEmpty@CArchive@@QBAHXZ 00020ec0 f   uafxcwd:afxinl1.obj
 0001:0000ff1c       ?GetFile@CArchive@@QBAPAVCFile@@XZ 00020f1c f   uafxcwd:afxinl1.obj
 0001:0000ff4c       ?SetObjectSchema@CArchive@@QAAXI@Z 00020f4c f   uafxcwd:afxinl1.obj
 0001:0000ff70       ?SetStoreParams@CArchive@@QAAXII@Z 00020f70 f   uafxcwd:afxinl1.obj
 0001:00010020       ?SetLoadParams@CArchive@@QAAXI@Z 00021020 f   uafxcwd:afxinl1.obj
 0001:000100c0       ??6CArchive@@QAAAAV0@H@Z   000210c0 f   uafxcwd:afxinl1.obj
 0001:000100f8       ??6CArchive@@QAAAAV0@I@Z   000210f8 f   uafxcwd:afxinl1.obj
 0001:00010130       ??6CArchive@@QAAAAV0@F@Z   00021130 f   uafxcwd:afxinl1.obj
 0001:00010168       ??6CArchive@@QAAAAV0@D@Z   00021168 f   uafxcwd:afxinl1.obj
 0001:000101a0       ??6CArchive@@QAAAAV0@_W@Z  000211a0 f   uafxcwd:afxinl1.obj
 0001:000101d8       ??6CArchive@@QAAAAV0@_N@Z  000211d8 f   uafxcwd:afxinl1.obj
 0001:00010234       ??6CArchive@@QAAAAV0@E@Z   00021234 f   uafxcwd:afxinl1.obj
 0001:000102ec       ??6CArchive@@QAAAAV0@_J@Z  000212ec f   uafxcwd:afxinl1.obj
 0001:000103f8       ??6CArchive@@QAAAAV0@_K@Z  000213f8 f   uafxcwd:afxinl1.obj
 0001:00010504       ??6CArchive@@QAAAAV0@G@Z   00021504 f   uafxcwd:afxinl1.obj
 0001:000105c4       ??6CArchive@@QAAAAV0@J@Z   000215c4 f   uafxcwd:afxinl1.obj
 0001:0001069c       ??6CArchive@@QAAAAV0@K@Z   0002169c f   uafxcwd:afxinl1.obj
 0001:00010774       ??6CArchive@@QAAAAV0@M@Z   00021774 f   uafxcwd:afxinl1.obj
 0001:0001084c       ??6CArchive@@QAAAAV0@N@Z   0002184c f   uafxcwd:afxinl1.obj
 0001:00010958       ??5CArchive@@QAAAAV0@AAH@Z 00021958 f   uafxcwd:afxinl1.obj
 0001:00010990       ??5CArchive@@QAAAAV0@AAI@Z 00021990 f   uafxcwd:afxinl1.obj
 0001:000109c8       ??5CArchive@@QAAAAV0@AAF@Z 000219c8 f   uafxcwd:afxinl1.obj
 0001:00010a00       ??5CArchive@@QAAAAV0@AAD@Z 00021a00 f   uafxcwd:afxinl1.obj
 0001:00010a38       ??5CArchive@@QAAAAV0@AA_W@Z 00021a38 f   uafxcwd:afxinl1.obj
 0001:00010a70       ??5CArchive@@QAAAAV0@AA_N@Z 00021a70 f   uafxcwd:afxinl1.obj
 0001:00010adc       ??5CArchive@@QAAAAV0@AAE@Z 00021adc f   uafxcwd:afxinl1.obj
 0001:00010bb8       ??5CArchive@@QAAAAV0@AA_J@Z 00021bb8 f   uafxcwd:afxinl1.obj
 0001:00010cf4       ??5CArchive@@QAAAAV0@AA_K@Z 00021cf4 f   uafxcwd:afxinl1.obj
 0001:00010e30       ??5CArchive@@QAAAAV0@AAG@Z 00021e30 f   uafxcwd:afxinl1.obj
 0001:00010f20       ??5CArchive@@QAAAAV0@AAK@Z 00021f20 f   uafxcwd:afxinl1.obj
 0001:00011020       ??5CArchive@@QAAAAV0@AAM@Z 00022020 f   uafxcwd:afxinl1.obj
 0001:00011120       ??5CArchive@@QAAAAV0@AAN@Z 00022120 f   uafxcwd:afxinl1.obj
 0001:0001125c       ??5CArchive@@QAAAAV0@AAJ@Z 0002225c f   uafxcwd:afxinl1.obj
 0001:0001135c       ??0CArchive@@IAA@ABV0@@Z   0002235c f   uafxcwd:afxinl1.obj
 0001:00011394       ??4CArchive@@IAAXABV0@@Z   00022394 f   uafxcwd:afxinl1.obj
 0001:000113a8       ??6@YAAAVCArchive@@AAV0@PBVCObject@@@Z 000223a8 f   uafxcwd:afxinl1.obj
 0001:000113dc       ??5@YAAAVCArchive@@AAV0@AAPAVCObject@@@Z 000223dc f   uafxcwd:afxinl1.obj
 0001:00011420       ??5@YAAAVCArchive@@AAV0@AAPBVCObject@@@Z 00022420 f   uafxcwd:afxinl1.obj
 0001:00011464       ?EnsureRead@CArchive@@QAAXPAXI@Z 00022464 f   uafxcwd:afxinl1.obj
 0001:000114b8       ??0CCommonDialog@@QAA@PAVCWnd@@@Z 000224b8 f   uafxcwd:afxinl1.obj
 0001:00011504       ?GetReadOnlyPref@CFileDialog@@QBAHXZ 00022504 f   uafxcwd:afxinl1.obj
 0001:00011584       ?SetTemplate@CFileDialog@@QAAXII@Z 00022584 f   uafxcwd:afxinl1.obj
 0001:000115c0       ?GetStartPosition@CFileDialog@@QBAPAU__POSITION@@XZ 000225c0 f   uafxcwd:afxinl1.obj
 0001:00011620       ?GetColor@CColorDialog@@QBAKXZ 00022620 f   uafxcwd:afxinl1.obj
 0001:00011674       ?IsTerminating@CFindReplaceDialog@@QBAHXZ 00022674 f   uafxcwd:afxinl1.obj
 0001:000116c4       ?GetReplaceString@CFindReplaceDialog@@QBA?AV?$CStringT@_WV?$StrTraitMFC@_WV?$ChTraitsOS@_W@ATL@@@@@ATL@@XZ 000226c4 f   uafxcwd:afxinl1.obj
 0001:00011718       ?GetFindString@CFindReplaceDialog@@QBA?AV?$CStringT@_WV?$StrTraitMFC@_WV?$ChTraitsOS@_W@ATL@@@@@ATL@@XZ 00022718 f   uafxcwd:afxinl1.obj
 0001:0001176c       ?SearchDown@CFindReplaceDialog@@QBAHXZ 0002276c f   uafxcwd:afxinl1.obj
 0001:000117bc       ?FindNext@CFindReplaceDialog@@QBAHXZ 000227bc f   uafxcwd:afxinl1.obj
 0001:0001180c       ?MatchCase@CFindReplaceDialog@@QBAHXZ 0002280c f   uafxcwd:afxinl1.obj
 0001:0001185c       ?MatchWholeWord@CFindReplaceDialog@@QBAHXZ 0002285c f   uafxcwd:afxinl1.obj
 0001:000118ac       ?ReplaceCurrent@CFindReplaceDialog@@QBAHXZ 000228ac f   uafxcwd:afxinl1.obj
 0001:000118fc       ?ReplaceAll@CFindReplaceDialog@@QBAHXZ 000228fc f   uafxcwd:afxinl1.obj
 0001:0001194c       ?MapDialogRect@CPropertySheet@@QBAXPAUtagRECT@@@Z 0002294c f   uafxcwd:afxinl1.obj
 0001:000119c0       ?GetPage@CPropertySheet@@QBAPAVCPropertyPage@@H@Z 000229c0 f   uafxcwd:afxinl1.obj
 0001:00011a84       ?GetTabControl@CPropertySheet@@QBAPAVCTabCtrl@@XZ 00022a84 f   uafxcwd:afxinl1.obj
 0001:00011b20       ?PressButton@CPropertySheet@@QAAXH@Z 00022b20 f   uafxcwd:afxinl1.obj
 0001:00011bc0       ?IsWizard@CPropertySheet@@QBAHXZ 00022bc0 f   uafxcwd:afxinl1.obj
 0001:00011be8       ?IsModeless@CPropertySheet@@QBAHXZ 00022be8 f   uafxcwd:afxinl1.obj
 0001:00011c18       ??0CCreateContext@@QAA@XZ  00022c18 f   uafxcwd:afxinl1.obj
 0001:00011c50       ?GetRowCount@CSplitterWnd@@QBAHXZ 00022c50 f   uafxcwd:afxinl1.obj
 0001:00011c80       ?GetColumnCount@CSplitterWnd@@QBAHXZ 00022c80 f   uafxcwd:afxinl1.obj
 0001:00011cb0       ?IsChildPane@CSplitterWnd@@QAAHPAVCWnd@@AAH1@Z 00022cb0 f   uafxcwd:afxinl1.obj
 0001:00011cfc       ?GetActivePane@CSplitterWnd@@IAAPAVCWnd@@AAH0@Z 00022cfc f   uafxcwd:afxinl1.obj
 0001:00011d48       ?IsTracking@CSplitterWnd@@QAAHXZ 00022d48 f   uafxcwd:afxinl1.obj
 0001:00011d78       ?GetCount@CControlBar@@QBAHXZ 00022d78 f   uafxcwd:afxinl1.obj
 0001:00011da8       ?GetBarStyle@CControlBar@@QAAKXZ 00022da8 f   uafxcwd:afxinl1.obj
 0001:00011dd8       ?SetBorders@CControlBar@@QAAXPBUtagRECT@@@Z 00022dd8 f   uafxcwd:afxinl1.obj
 0001:00011e2c       ?GetBorders@CControlBar@@QBA?AVCRect@@XZ 00022e2c f   uafxcwd:afxinl1.obj
 0001:00011e90       ?LoadToolBar@CToolBar@@QAAHI@Z 00022e90 f   uafxcwd:afxinl1.obj
 0001:00011ed4       ?LoadBitmapW@CToolBar@@QAAHI@Z 00022ed4 f   uafxcwd:afxinl1.obj
 0001:00011f18       ?GetToolBarCtrl@CToolBar@@QBAAAVCToolBarCtrl@@XZ 00022f18 f   uafxcwd:afxinl1.obj
 0001:00011f40       ?Create@CDialogBar@@UAAHPAVCWnd@@III@Z 00022f40 f   uafxcwd:afxinl1.obj
 0001:00011fa4       ?GetStatusBarCtrl@CStatusBar@@QBAAAVCStatusBarCtrl@@XZ 00022fa4 f   uafxcwd:afxinl1.obj
 0001:00011fcc       ?SetBorders@CStatusBar@@QAAXPBUtagRECT@@@Z 00022fcc f   uafxcwd:afxinl1.obj
 0001:00012020       ?SetBorders@CStatusBar@@QAAXHHHH@Z 00023020 f   uafxcwd:afxinl1.obj
 0001:00012088       ?GetReBarCtrl@CReBar@@QBAAAVCReBarCtrl@@XZ 00023088 f   uafxcwd:afxinl1.obj
 0001:000120b0       ?EnableDocking@CReBar@@QAAXK@Z 000230b0 f   uafxcwd:afxinl1.obj
 0001:000120f0       ??0CRectTracker@@QAA@XZ    000230f0 f   uafxcwd:afxinl1.obj
 0001:00012168       ??0CBitmapButton@@QAA@XZ   00023168 f   uafxcwd:afxinl1.obj
 0001:00012258       ?LoadBitmaps@CBitmapButton@@QAAHIIII@Z 00023258 f   uafxcwd:afxinl1.obj
 0001:000122c0       ?GetEditCtrl@CEditView@@QBAAAVCEdit@@XZ 000232c0 f   uafxcwd:afxinl1.obj
 0001:000122e8       ??_ECMemoryException@@UAAPAXI@Z 000232e8 f i uafxcwd:afxinl1.obj
 0001:000122e8       ??_GCMemoryException@@UAAPAXI@Z 000232e8 f i uafxcwd:afxinl1.obj
 0001:0001232c       ??_ECNotSupportedException@@UAAPAXI@Z 0002332c f i uafxcwd:afxinl1.obj
 0001:0001232c       ??_GCNotSupportedException@@UAAPAXI@Z 0002332c f i uafxcwd:afxinl1.obj
 0001:00012370       ??_GCInvalidArgException@@UAAPAXI@Z 00023370 f i uafxcwd:afxinl1.obj
 0001:00012370       ??_ECInvalidArgException@@UAAPAXI@Z 00023370 f i uafxcwd:afxinl1.obj
 0001:000123b4       ??_GCArchiveException@@UAAPAXI@Z 000233b4 f i uafxcwd:afxinl1.obj
 0001:000123b4       ??_ECArchiveException@@UAAPAXI@Z 000233b4 f i uafxcwd:afxinl1.obj
 0001:000123f8       ??_ECFileException@@UAAPAXI@Z 000233f8 f i uafxcwd:afxinl1.obj
 0001:000123f8       ??_GCFileException@@UAAPAXI@Z 000233f8 f i uafxcwd:afxinl1.obj
 0001:0001243c       ??_ECRectTracker@@UAAPAXI@Z 0002343c f i uafxcwd:afxinl1.obj
 0001:0001243c       ??_GCRectTracker@@UAAPAXI@Z 0002343c f i uafxcwd:afxinl1.obj
 0001:00012480       ??_ECBitmapButton@@UAAPAXI@Z 00023480 f i uafxcwd:afxinl1.obj
 0001:00012480       ??_GCBitmapButton@@UAAPAXI@Z 00023480 f i uafxcwd:afxinl1.obj
 0001:000124cc       ??1CBitmapButton@@UAA@XZ   000234cc f i uafxcwd:afxinl1.obj
 0001:00012588       ??A?$CArray@PAXPAX@@QBAABQAXH@Z 00023588 f i uafxcwd:afxinl1.obj
 0001:000125c0       ?GetAt@?$CArray@PAXPAX@@QBAABQAXH@Z 000235c0 f i uafxcwd:afxinl1.obj
 0001:00012678       ??_GCCommonDialog@@UAAPAXI@Z 00023678 f i uafxcwd:afxinl1.obj
 0001:00012678       ??_ECCommonDialog@@UAAPAXI@Z 00023678 f i uafxcwd:afxinl1.obj
 0001:000126bc       ??1CCommonDialog@@UAA@XZ   000236bc f i uafxcwd:afxinl1.obj
 0001:000126f0       ??0CCmdTarget@@QAA@XZ      000236f0 f   uafxcwd:cmdtarg.obj
 0001:00012804       ??1CCmdTarget@@UAA@XZ      00023804 f   uafxcwd:cmdtarg.obj
 0001:000128d0       ?_AfxDispatchCmdMsg@@YAHPAVCCmdTarget@@IHP81@AAXXZPAXIPAUAFX_CMDHANDLERINFO@@@Z 000238d0 f   uafxcwd:cmdtarg.obj
 0001:00013244       ?OnCmdMsg@CCmdTarget@@UAAHIHPAXPAUAFX_CMDHANDLERINFO@@@Z 00024244 f   uafxcwd:cmdtarg.obj
 0001:000135c8       ?IsInvokeAllowed@CCmdTarget@@UAAHJ@Z 000245c8 f   uafxcwd:cmdtarg.obj
 0001:000135f0       ?GetDispatchIID@CCmdTarget@@UAAHPAU_GUID@@@Z 000245f0 f   uafxcwd:cmdtarg.obj
 0001:00013618       ?GetTypeInfoCount@CCmdTarget@@UAAIXZ 00024618 f   uafxcwd:cmdtarg.obj
 0001:00013640       ?GetTypeLibCache@CCmdTarget@@UAAPAVCTypeLibCache@@XZ 00024640 f   uafxcwd:cmdtarg.obj
 0001:00013668       ?GetTypeLib@CCmdTarget@@UAAJKPAPAUITypeLib@@@Z 00024668 f   uafxcwd:cmdtarg.obj
 0001:00013694       ?BeginWaitCursor@CCmdTarget@@QAAXXZ 00024694 f   uafxcwd:cmdtarg.obj
 0001:000136e0       ?EndWaitCursor@CCmdTarget@@QAAXXZ 000246e0 f   uafxcwd:cmdtarg.obj
 0001:0001372c       ?RestoreWaitCursor@CCmdTarget@@QAAXXZ 0002472c f   uafxcwd:cmdtarg.obj
 0001:00013778       ?GetMessageMap@CCmdTarget@@MBAPBUAFX_MSGMAP@@XZ 00024778 f   uafxcwd:cmdtarg.obj
 0001:000137a8       ?GetThisMessageMap@CCmdTarget@@KAPBUAFX_MSGMAP@@XZ 000247a8 f   uafxcwd:cmdtarg.obj
 0001:000137c4       ?GetDispatchMap@CCmdTarget@@MBAPBUAFX_DISPMAP@@XZ 000247c4 f   uafxcwd:cmdtarg.obj
 0001:000137f0       ?GetEventSinkMap@CCmdTarget@@MBAPBUAFX_EVENTSINKMAP@@XZ 000247f0 f   uafxcwd:cmdtarg.obj
 0001:0001381c       ?GetInterfaceMap@CCmdTarget@@MBAPBUAFX_INTERFACEMAP@@XZ 0002481c f   uafxcwd:cmdtarg.obj
 0001:00013848       ?OnFinalRelease@CCmdTarget@@UAAXXZ 00024848 f   uafxcwd:cmdtarg.obj
 0001:00013904       ?OnCreateAggregates@CCmdTarget@@UAAHXZ 00024904 f   uafxcwd:cmdtarg.obj
 0001:0001392c       ?GetInterfaceHook@CCmdTarget@@UAAPAUIUnknown@@PBX@Z 0002492c f   uafxcwd:cmdtarg.obj
 0001:00013954       ?GetConnectionMap@CCmdTarget@@MBAPBUAFX_CONNECTIONMAP@@XZ 00024954 f   uafxcwd:cmdtarg.obj
 0001:00013980       ?GetConnectionHook@CCmdTarget@@MAAPAUIConnectionPoint@@ABU_GUID@@@Z 00024980 f   uafxcwd:cmdtarg.obj
 0001:000139a8       ?GetExtraConnectionPoints@CCmdTarget@@MAAHPAV?$CArray@PAXPAX@@@Z 000249a8 f   uafxcwd:cmdtarg.obj
 0001:000139d0       ?GetRoutingView@CCmdTarget@@IAAPAVCView@@XZ 000249d0 f   uafxcwd:cmdtarg.obj
 0001:00013a00       ?GetRoutingFrame@CCmdTarget@@IAAPAVCFrameWnd@@XZ 00024a00 f   uafxcwd:cmdtarg.obj
 0001:00013a30       ??0CCmdUI@@QAA@XZ          00024a30 f   uafxcwd:cmdtarg.obj
 0001:00013af8       ?Enable@CCmdUI@@UAAXH@Z    00024af8 f   uafxcwd:cmdtarg.obj
 0001:00013cf8       ?SetCheck@CCmdUI@@UAAXH@Z  00024cf8 f   uafxcwd:cmdtarg.obj
 0001:00013ec4       ?SetRadio@CCmdUI@@UAAXH@Z  00024ec4 f   uafxcwd:cmdtarg.obj
 0001:00014050       ?SetText@CCmdUI@@UAAXPB_W@Z 00025050 f   uafxcwd:cmdtarg.obj
 0001:00014300       ?DoUpdate@CCmdUI@@QAAHPAVCCmdTarget@@H@Z 00025300 f   uafxcwd:cmdtarg.obj
 0001:00014518       ?AssertValid@CCmdTarget@@UBAXXZ 00025518 f   uafxcwd:cmdtarg.obj
 0001:00014534       ?GetRuntimeClass@CCmdTarget@@UBAPAUCRuntimeClass@@XZ 00025534 f   uafxcwd:cmdtarg.obj
 0001:00014568       ?_AfxThreadEntry@@YAIPAX@Z 00025568 f   uafxcwd:thrdcore.obj
 0001:00014ac8       ?AfxGetThread@@YAPAVCWinThread@@XZ 00025ac8 f   uafxcwd:thrdcore.obj
 0001:00014b08       ?AfxGetCurrentMessage@@YAPAUtagMSG@@XZ 00025b08 f   uafxcwd:thrdcore.obj
 0001:00014b6c       ?AfxInternalPumpMessage@@YAHXZ 00025b6c f   uafxcwd:thrdcore.obj
 0001:00014d04       ?AfxPumpMessage@@YAHXZ     00025d04 f   uafxcwd:thrdcore.obj
 0001:00014d78       ?AfxInternalProcessWndProcException@@YAJPAVCException@@PBUtagMSG@@@Z 00025d78 f   uafxcwd:thrdcore.obj
 0001:00014df4       ?AfxProcessWndProcException@@YAJPAVCException@@PBUtagMSG@@@Z 00025df4 f   uafxcwd:thrdcore.obj
 0001:00014e80       ?AfxInternalPreTranslateMessage@@YAHPAUtagMSG@@@Z 00025e80 f   uafxcwd:thrdcore.obj
 0001:00014fb0       ?AfxPreTranslateMessage@@YAHPAUtagMSG@@@Z 00025fb0 f   uafxcwd:thrdcore.obj
 0001:00015034       ?AfxInternalIsIdleMessage@@YAHPAUtagMSG@@@Z 00026034 f   uafxcwd:thrdcore.obj
 0001:00015098       ?AfxIsIdleMessage@@YAHPAUtagMSG@@@Z 00026098 f   uafxcwd:thrdcore.obj
 0001:00015124       ?AfxBeginThread@@YAPAVCWinThread@@P6AIPAX@Z0HIKPAU_SECURITY_ATTRIBUTES@@@Z 00026124 f   uafxcwd:thrdcore.obj
 0001:000152e4       ?AfxBeginThread@@YAPAVCWinThread@@PAUCRuntimeClass@@HIKPAU_SECURITY_ATTRIBUTES@@@Z 000262e4 f   uafxcwd:thrdcore.obj
 0001:000154e8       ?AfxEndThread@@YAXIH@Z     000264e8 f   uafxcwd:thrdcore.obj
 0001:000155fc       ?AfxInitThread@@YAXXZ      000265fc f   uafxcwd:thrdcore.obj
 0001:00015620       ?AfxTermThread@@YAXPAUHINSTANCE__@@@Z 00026620 f   uafxcwd:thrdcore.obj
 0001:00015754       ??0CWinThread@@QAA@P6AIPAX@Z0@Z 00026754 f   uafxcwd:thrdcore.obj
 0001:000157e0       ??0CWinThread@@QAA@XZ      000267e0 f   uafxcwd:thrdcore.obj
 0001:00015864       ?CommonConstruct@CWinThread@@QAAXXZ 00026864 f   uafxcwd:thrdcore.obj
 0001:00015934       ??1CWinThread@@UAA@XZ      00026934 f   uafxcwd:thrdcore.obj
 0001:000159dc       ?CreateThread@CWinThread@@QAAHKIPAU_SECURITY_ATTRIBUTES@@@Z 000269dc f   uafxcwd:thrdcore.obj
 0001:00015d4c       ?Delete@CWinThread@@UAAXXZ 00026d4c f   uafxcwd:thrdcore.obj
 0001:00015dd0       ?InitInstance@CWinThread@@UAAHXZ 00026dd0 f   uafxcwd:thrdcore.obj
 0001:00015e10       ?Run@CWinThread@@UAAHXZ    00026e10 f   uafxcwd:thrdcore.obj
 0001:00015fc4       ?IsIdleMessage@CWinThread@@UAAHPAUtagMSG@@@Z 00026fc4 f   uafxcwd:thrdcore.obj
 0001:00015ff8       ?ExitInstance@CWinThread@@UAAHXZ 00026ff8 f   uafxcwd:thrdcore.obj
 0001:00016090       ?OnIdle@CWinThread@@UAAHJ@Z 00027090 f   uafxcwd:thrdcore.obj
 0001:0001633c       ?DispatchThreadMessage@CWinThread@@IAAXPAUtagMSG@@@Z 0002733c f   uafxcwd:thrdcore.obj
 0001:0001635c       ?DispatchThreadMessageEx@CWinThread@@IAAHPAUtagMSG@@@Z 0002735c f   uafxcwd:thrdcore.obj
 0001:00016584       ?PreTranslateMessage@CWinThread@@UAAHPAUtagMSG@@@Z 00027584 f   uafxcwd:thrdcore.obj
 0001:000165d0       ?ProcessWndProcException@CWinThread@@UAAJPAVCException@@PBUtagMSG@@@Z 000275d0 f   uafxcwd:thrdcore.obj
 0001:00016608       ?IsHelpKey@@YAHPAUtagMSG@@@Z 00027608 f   uafxcwd:thrdcore.obj
 0001:000166d4       ?GetMainWnd@CWinThread@@UAAPAVCWnd@@XZ 000276d4 f   uafxcwd:thrdcore.obj
 0001:00016754       ?PumpMessage@CWinThread@@UAAHXZ 00027754 f   uafxcwd:thrdcore.obj
 0001:00016784       ?AssertValid@CWinThread@@UBAXXZ 00027784 f   uafxcwd:thrdcore.obj
 0001:000167a0       ?GetRuntimeClass@CWinThread@@UBAPAUCRuntimeClass@@XZ 000277a0 f   uafxcwd:thrdcore.obj
 0001:000167cc       SetEvent                   000277cc f i uafxcwd:thrdcore.obj
 0001:00016804       ??_ECWinThread@@UAAPAXI@Z  00027804 f i uafxcwd:thrdcore.obj
 0001:00016804       ??_GCWinThread@@UAAPAXI@Z  00027804 f i uafxcwd:thrdcore.obj
 0001:00016848       ?IsEnterKey@@YAHPAUtagMSG@@@Z 00027848 f i uafxcwd:thrdcore.obj
 0001:000168ac       ?IsButtonUp@@YAHPAUtagMSG@@@Z 000278ac f i uafxcwd:thrdcore.obj
 0001:00016904       ??B?$CTypedSimpleList@PAVCFrameWnd@@@@QAAPAVCFrameWnd@@XZ 00027904 f i uafxcwd:thrdcore.obj
 0001:00016938       ?GetHead@CSimpleList@@QBAPAXXZ 00027938 f i uafxcwd:thrdcore.obj
 0001:0001696c       ?ProcessShellCommand@CWinApp@@QAAHAAVCCommandLineInfo@@@Z 0002796c f   uafxcwd:appui2.obj
 0001:00016cac       ?InitLibId@CWinApp@@UAAXXZ 00027cac f   uafxcwd:appui2.obj
 0001:00016cc0       ?Register@CWinApp@@UAAHXZ  00027cc0 f   uafxcwd:appui2.obj
 0001:00016cf0       ?Unregister@CWinApp@@UAAHXZ 00027cf0 f   uafxcwd:appui2.obj
 0001:00016fe0       ?DelRegTree@CWinApp@@QAAJPAUHKEY__@@ABV?$CStringT@_WV?$StrTraitMFC@_WV?$ChTraitsOS@_W@ATL@@@@@ATL@@@Z 00027fe0 f   uafxcwd:appui2.obj
 0001:00017020       ?AfxDelRegTreeHelper@@YAJPAUHKEY__@@ABV?$CStringT@_WV?$StrTraitMFC@_WV?$ChTraitsOS@_W@ATL@@@@@ATL@@@Z 00028020 f   uafxcwd:appui2.obj
 0001:00017244       ?GetOpenDocumentCount@CWinApp@@QAAHXZ 00028244 f   uafxcwd:appui2.obj
 0001:00017318       ?AddDocTemplate@CWinApp@@QAAXPAVCDocTemplate@@@Z 00028318 f   uafxcwd:appui2.obj
 0001:000173e8       ?GetFirstDocTemplatePosition@CWinApp@@QBAPAU__POSITION@@XZ 000283e8 f   uafxcwd:appui2.obj
 0001:00017460       ?GetNextDocTemplate@CWinApp@@QBAPAVCDocTemplate@@AAPAU__POSITION@@@Z 00028460 f   uafxcwd:appui2.obj
 0001:00017538       ??HATL@@YA?AV?$CStringT@_WV?$StrTraitMFC@_WV?$ChTraitsOS@_W@ATL@@@@@0@ABV10@PB_W@Z 00028538 f i uafxcwd:appui2.obj
 0001:00017608       ?Concatenate@?$CSimpleStringT@_W$0A@@ATL@@KAXAAV12@PB_WH1H@Z 00028608 f i uafxcwd:appui2.obj
 0001:00017690       ??0?$CStringT@_WV?$StrTraitMFC@_WV?$ChTraitsOS@_W@ATL@@@@@ATL@@QAA@PAUIAtlStringMgr@1@@Z 00028690 f i uafxcwd:appui2.obj
 0001:000176c8       ?OnAppExit@CWinApp@@IAAXXZ 000286c8 f   uafxcwd:appui.obj
 0001:00017738       ?HideApplication@CWinApp@@QAAXXZ 00028738 f   uafxcwd:appui.obj
 0001:000177bc       ?DoWaitCursor@CWinApp@@UAAXH@Z 000287bc f   uafxcwd:appui.obj
 0001:00017978       ?SaveAllModified@CWinApp@@UAAHXZ 00028978 f   uafxcwd:appui.obj
 0001:000179f0       ?OpenDocumentFile@CWinApp@@UAAPAVCDocument@@PB_W@Z 000289f0 f   uafxcwd:appui.obj
 0001:00017a80       ?CloseAllDocuments@CWinApp@@QAAXH@Z 00028a80 f   uafxcwd:appui.obj
 0001:00017ad8       ?EnableModeless@CWinApp@@QAAXH@Z 00028ad8 f   uafxcwd:appui1.obj
 0001:00017af4       ?DoEnableModeless@CWinApp@@SAXH@Z 00028af4 f   uafxcwd:appui1.obj
 0001:00017b4c       ?DoMessageBox@CWinApp@@UAAHPB_WII@Z 00028b4c f   uafxcwd:appui1.obj
 0001:00017b8c       ?ShowAppMessageBox@CWinApp@@SAHPAV1@PB_WII@Z 00028b8c f   uafxcwd:appui1.obj
 0001:00017d6c       ?AfxMessageBox@@YAHPB_WII@Z 00028d6c f   uafxcwd:appui1.obj
 0001:00017e0c       ?AfxMessageBox@@YAHIII@Z   00028e0c f   uafxcwd:appui1.obj
 0001:00017f2c       ?GetSafeOwner_@CWnd@@SAPAUHWND__@@PAU2@PAPAU2@@Z 00028f2c f   uafxcwd:appui1.obj
 0001:000180d0       ?GetRoutingView_@CCmdTarget@@KAPAVCView@@XZ 000290d0 f   uafxcwd:appui1.obj
 0001:00018108       ?GetRoutingFrame_@CCmdTarget@@KAPAVCFrameWnd@@XZ 00029108 f   uafxcwd:appui1.obj
 0001:00018140       ?GetLastActivePopup@ATL@@YAPAUHWND__@@PAU2@@Z 00029140 f i uafxcwd:appui1.obj
 0001:00018170       ??2CObject@@SAPAXI@Z       00029170 f   uafxcwd:afxmem.obj
 0001:000181a4       ??3CObject@@SAXPAX@Z       000291a4 f   uafxcwd:afxmem.obj
 0001:000181c0       ??3CObject@@SAXPAX0@Z      000291c0 f   uafxcwd:afxmem.obj
 0001:000181dc       ?AfxNewHandler@@YAHI@Z     000291dc f   uafxcwd:afxmem.obj
 0001:000181f4       ?AfxGetNewHandler@@YAP6AHI@ZXZ 000291f4 f   uafxcwd:afxmem.obj
 0001:00018214       ?AfxSetNewHandler@@YAP6AHI@ZP6AHI@Z@Z 00029214 f   uafxcwd:afxmem.obj
 0001:00018258       ??2@YAPAXIHPBDH@Z          00029258 f   uafxcwd:afxmem.obj
 0001:0001828c       ??3@YAXPAXHPBDH@Z          0002928c f   uafxcwd:afxmem.obj
 0001:000182a8       ??_U@YAPAXIHPBDH@Z         000292a8 f   uafxcwd:afxmem.obj
 0001:000182e8       ??_V@YAXPAXHPBDH@Z         000292e8 f   uafxcwd:afxmem.obj
 0001:00018310       ?SkipThisOrdinalOrSz@@YAPA_WPA_W@Z 00029310 f   uafxcwd:dlgprop.obj
 0001:00018374       ?_AfxCloneDialogTemplate@@YA_NAAPAUDLGTEMPLATE@@PBU1@@Z 00029374 f   uafxcwd:dlgprop.obj
 0001:00018594       ?AfxPropPageCallback@@YAIPAUHWND__@@IPAU_PROPSHEETPAGEW@@@Z 00029594 f   uafxcwd:dlgprop.obj
 0001:00018708       ?GetMessageMap@CPropertyPage@@MBAPBUAFX_MSGMAP@@XZ 00029708 f   uafxcwd:dlgprop.obj
 0001:00018738       ?GetThisMessageMap@CPropertyPage@@KAPBUAFX_MSGMAP@@XZ 00029738 f   uafxcwd:dlgprop.obj
 0001:00018754       ?GetPSP@CPropertyPage@@QBAABU_PROPSHEETPAGEW@@XZ 00029754 f   uafxcwd:dlgprop.obj
 0001:00018784       ?GetPSP@CPropertyPage@@QAAAAU_PROPSHEETPAGEW@@XZ 00029784 f   uafxcwd:dlgprop.obj
 0001:000187b4       ?AllocPSP@CPropertyPage@@IAAXK@Z 000297b4 f   uafxcwd:dlgprop.obj
 0001:00018888       ??0CPropertyPage@@QAA@IIK@Z 00029888 f   uafxcwd:dlgprop.obj
 0001:000189cc       ??0CPropertyPage@@QAA@PB_WIK@Z 000299cc f   uafxcwd:dlgprop.obj
 0001:00018b44       ?Construct@CPropertyPage@@QAAXII@Z 00029b44 f   uafxcwd:dlgprop.obj
 0001:00018bac       ?Construct@CPropertyPage@@QAAXPB_WI@Z 00029bac f   uafxcwd:dlgprop.obj
 0001:00018c68       ??0CPropertyPage@@QAA@XZ   00029c68 f   uafxcwd:dlgprop.obj
 0001:00018d64       ?CommonConstruct@CPropertyPage@@IAAXPB_WI@Z 00029d64 f   uafxcwd:dlgprop.obj
 0001:00018f8c       ??0CPropertyPage@@QAA@IIIIK@Z 00029f8c f   uafxcwd:dlgprop.obj
 0001:000190f8       ??0CPropertyPage@@QAA@PB_WIIIK@Z 0002a0f8 f   uafxcwd:dlgprop.obj
 0001:00019264       ?Construct@CPropertyPage@@QAAXIIII@Z 0002a264 f   uafxcwd:dlgprop.obj
 0001:000192d4       ?Construct@CPropertyPage@@QAAXPB_WIII@Z 0002a2d4 f   uafxcwd:dlgprop.obj
 0001:000193a0       ?CommonConstruct@CPropertyPage@@IAAXPB_WIII@Z 0002a3a0 f   uafxcwd:dlgprop.obj
 0001:0001947c       ??1CPropertyPage@@UAA@XZ   0002a47c f   uafxcwd:dlgprop.obj
 0001:00019578       ?Cleanup@CPropertyPage@@IAAXXZ 0002a578 f   uafxcwd:dlgprop.obj
 0001:0001961c       ?_AfxChangePropPageFont@@YAPAUDLGTEMPLATE@@PBU1@H@Z 0002a61c f   uafxcwd:dlgprop.obj
 0001:000197ac       ?InitDialogInfo@CPropertyPage@@IAAPBUDLGTEMPLATE@@PBU2@@Z 0002a7ac f   uafxcwd:dlgprop.obj
 0001:00019840       ?PreProcessPageTemplate@CPropertyPage@@IAAXAAU_PROPSHEETPAGEW@@H@Z 0002a840 f   uafxcwd:dlgprop.obj
 0001:00019974       ?CancelToClose@CPropertyPage@@QAAXXZ 0002a974 f   uafxcwd:dlgprop.obj
 0001:00019a3c       ?SetModified@CPropertyPage@@QAAXH@Z 0002aa3c f   uafxcwd:dlgprop.obj
 0001:00019b58       ?QuerySiblings@CPropertyPage@@QAAJIJ@Z 0002ab58 f   uafxcwd:dlgprop.obj
 0001:00019c2c       ?OnApply@CPropertyPage@@UAAHXZ 0002ac2c f   uafxcwd:dlgprop.obj
 0001:00019c84       ?OnReset@CPropertyPage@@UAAXXZ 0002ac84 f   uafxcwd:dlgprop.obj
 0001:00019cc8       ?OnOK@CPropertyPage@@UAAXXZ 0002acc8 f   uafxcwd:dlgprop.obj
 0001:00019cf4       ?OnCancel@CPropertyPage@@UAAXXZ 0002acf4 f   uafxcwd:dlgprop.obj
 0001:00019d1c       ?OnSetActive@CPropertyPage@@UAAHXZ 0002ad1c f   uafxcwd:dlgprop.obj
 0001:00019d90       ?OnKillActive@CPropertyPage@@UAAHXZ 0002ad90 f   uafxcwd:dlgprop.obj
 0001:00019e34       ?OnQueryCancel@CPropertyPage@@UAAHXZ 0002ae34 f   uafxcwd:dlgprop.obj
 0001:00019e5c       ?IsButtonEnabled@CPropertyPage@@IAAHH@Z 0002ae5c f   uafxcwd:dlgprop.obj
 0001:00019ed4       ?OnNotify@CPropertyPage@@MAAHIJPAJ@Z 0002aed4 f   uafxcwd:dlgprop.obj
 0001:0001a214       ?PreTranslateMessage@CPropertyPage@@MAAHPAUtagMSG@@@Z 0002b214 f   uafxcwd:dlgprop.obj
 0001:0001a280       ?OnCtlColor@CPropertyPage@@IAAPAUHBRUSH__@@PAVCDC@@PAVCWnd@@I@Z 0002b280 f   uafxcwd:dlgprop.obj
 0001:0001a2e8       ?AssertValid@CPropertyPage@@UBAXXZ 0002b2e8 f   uafxcwd:dlgprop.obj
 0001:0001a3e8       ?EndDialog@CPropertyPage@@QAAXH@Z 0002b3e8 f   uafxcwd:dlgprop.obj
 0001:0001a444       ?GetMessageMap@CPropertySheet@@MBAPBUAFX_MSGMAP@@XZ 0002b444 f   uafxcwd:dlgprop.obj
 0001:0001a474       ?GetThisMessageMap@CPropertySheet@@KAPBUAFX_MSGMAP@@XZ 0002b474 f   uafxcwd:dlgprop.obj
 0001:0001a490       ?OnSetDefID@CPropertySheet@@IAAJIJ@Z 0002b490 f   uafxcwd:dlgprop.obj
 0001:0001a658       ??0CPropertySheet@@QAA@XZ  0002b658 f   uafxcwd:dlgprop.obj
 0001:0001a724       ??0CPropertySheet@@QAA@IPAVCWnd@@I@Z 0002b724 f   uafxcwd:dlgprop.obj
 0001:0001a86c       ??0CPropertySheet@@QAA@PB_WPAVCWnd@@I@Z 0002b86c f   uafxcwd:dlgprop.obj
 0001:0001a9bc       ?Construct@CPropertySheet@@QAAXIPAVCWnd@@I@Z 0002b9bc f   uafxcwd:dlgprop.obj
 0001:0001aa64       ?Construct@CPropertySheet@@QAAXPB_WPAVCWnd@@I@Z 0002ba64 f   uafxcwd:dlgprop.obj
 0001:0001ab18       ?CommonConstruct@CPropertySheet@@QAAXPAVCWnd@@I@Z 0002bb18 f   uafxcwd:dlgprop.obj
 0001:0001ac68       ??0CPropertySheet@@QAA@IPAVCWnd@@IPAUHBITMAP__@@PAUHPALETTE__@@1@Z 0002bc68 f   uafxcwd:dlgprop.obj
 0001:0001add8       ??0CPropertySheet@@QAA@PB_WPAVCWnd@@IPAUHBITMAP__@@PAUHPALETTE__@@2@Z 0002bdd8 f   uafxcwd:dlgprop.obj
 0001:0001af54       ?Construct@CPropertySheet@@QAAXIPAVCWnd@@IPAUHBITMAP__@@PAUHPALETTE__@@1@Z 0002bf54 f   uafxcwd:dlgprop.obj
 0001:0001b00c       ?Construct@CPropertySheet@@QAAXPB_WPAVCWnd@@IPAUHBITMAP__@@PAUHPALETTE__@@2@Z 0002c00c f   uafxcwd:dlgprop.obj
 0001:0001b0d8       ?CommonConstruct@CPropertySheet@@QAAXPAVCWnd@@IPAUHBITMAP__@@PAUHPALETTE__@@1@Z 0002c0d8 f   uafxcwd:dlgprop.obj
 0001:0001b0fc       ?EnableStackedTabs@CPropertySheet@@QAAXH@Z 0002c0fc f   uafxcwd:dlgprop.obj
 0001:0001b120       ?SetTitle@CPropertySheet@@QAAXPB_WI@Z 0002c120 f   uafxcwd:dlgprop.obj
 0001:0001b26c       ??1CPropertySheet@@UAA@XZ  0002c26c f   uafxcwd:dlgprop.obj
 0001:0001b2dc       ?PreTranslateMessage@CPropertySheet@@UAAHPAUtagMSG@@@Z 0002c2dc f   uafxcwd:dlgprop.obj
 0001:0001b448       ?OnCmdMsg@CPropertySheet@@UAAHIHPAXPAUAFX_CMDHANDLERINFO@@@Z 0002c448 f   uafxcwd:dlgprop.obj
 0001:0001b6f4       ?GetActivePage@CPropertySheet@@QBAPAVCPropertyPage@@XZ 0002c6f4 f   uafxcwd:dlgprop.obj
 0001:0001b7bc       ?ContinueModal@CPropertySheet@@UAAHXZ 0002c7bc f   uafxcwd:dlgprop.obj
 0001:0001b894       ?DoModal@CPropertySheet@@UAAHXZ 0002c894 f   uafxcwd:dlgprop.obj
 0001:0001c004       ?AfxPropSheetCallback@@YAHPAUHWND__@@IJ@Z 0002d004 f   uafxcwd:dlgprop.obj
 0001:0001c1dc       ?Create@CPropertySheet@@UAAHPAVCWnd@@KK@Z 0002d1dc f   uafxcwd:dlgprop.obj
 0001:0001c54c       ?BuildPropPageArray@CPropertySheet@@UAAXXZ 0002d54c f   uafxcwd:dlgprop.obj
 0001:0001c820       ?GetPageCount@CPropertySheet@@QBAHXZ 0002d820 f   uafxcwd:dlgprop.obj
 0001:0001c91c       ?GetActiveIndex@CPropertySheet@@QBAHXZ 0002d91c f   uafxcwd:dlgprop.obj
 0001:0001c9f8       ?SetActivePage@CPropertySheet@@QAAHH@Z 0002d9f8 f   uafxcwd:dlgprop.obj
 0001:0001ca6c       ?GetPageIndex@CPropertySheet@@QAAHPAVCPropertyPage@@@Z 0002da6c f   uafxcwd:dlgprop.obj
 0001:0001caf8       ?SetActivePage@CPropertySheet@@QAAHPAVCPropertyPage@@@Z 0002daf8 f   uafxcwd:dlgprop.obj
 0001:0001cc08       ?_AfxAdjustPropertySheetSize@@YAXPAVCPropertySheet@@@Z 0002dc08 f   uafxcwd:dlgprop.obj
 0001:0001d01c       ?AddPage@CPropertySheet@@QAAXPAVCPropertyPage@@@Z 0002e01c f   uafxcwd:dlgprop.obj
 0001:0001d3ec       ?RemovePage@CPropertySheet@@QAAXPAVCPropertyPage@@@Z 0002e3ec f   uafxcwd:dlgprop.obj
 0001:0001d4e8       ?RemovePage@CPropertySheet@@QAAXH@Z 0002e4e8 f   uafxcwd:dlgprop.obj
 0001:0001d554       ?EndDialog@CPropertySheet@@QAAXH@Z 0002e554 f   uafxcwd:dlgprop.obj
 0001:0001d5d4       ?OnClose@CPropertySheet@@IAAXXZ 0002e5d4 f   uafxcwd:dlgprop.obj
 0001:0001d634       ?OnKickIdle@CPropertySheet@@IAAJIJ@Z 0002e634 f   uafxcwd:dlgprop.obj
 0001:0001d6d8       ?OnSysCommand@CPropertySheet@@IAAXIJ@Z 0002e6d8 f   uafxcwd:dlgprop.obj
 0001:0001d754       ?OnInitDialog@CPropertySheet@@UAAHXZ 0002e754 f   uafxcwd:dlgprop.obj
 0001:0001d800       ?HandleInitDialog@CPropertySheet@@IAAJIJ@Z 0002e800 f   uafxcwd:dlgprop.obj
 0001:0001d850       ?OnCommand@CPropertySheet@@UAAHIJ@Z 0002e850 f   uafxcwd:dlgprop.obj
 0001:0001da14       ?OnCtlColor@CPropertySheet@@IAAPAUHBRUSH__@@PAVCDC@@PAVCWnd@@I@Z 0002ea14 f   uafxcwd:dlgprop.obj
 0001:0001dae8       ?AssertValid@CPropertySheet@@UBAXXZ 0002eae8 f   uafxcwd:dlgprop.obj
 0001:0001dbac       ?GetRuntimeClass@CPropertyPage@@UBAPAUCRuntimeClass@@XZ 0002ebac f   uafxcwd:dlgprop.obj
 0001:0001dbd8       ?GetRuntimeClass@CPropertySheet@@UBAPAUCRuntimeClass@@XZ 0002ebd8 f   uafxcwd:dlgprop.obj
 0001:0001dc04       ?SkipThisSz@@YAPA_WPA_W@Z  0002ec04 f i uafxcwd:dlgprop.obj
 0001:0001dc4c       ??_ECPropertyPage@@UAAPAXI@Z 0002ec4c f i uafxcwd:dlgprop.obj
 0001:0001dc4c       ??_GCPropertyPage@@UAAPAXI@Z 0002ec4c f i uafxcwd:dlgprop.obj
 0001:0001dc90       ??_ECPropertySheet@@UAAPAXI@Z 0002ec90 f i uafxcwd:dlgprop.obj
 0001:0001dc90       ??_GCPropertySheet@@UAAPAXI@Z 0002ec90 f i uafxcwd:dlgprop.obj
 0001:0001dcd4       ??9ATL@@YA_NABV?$CStringT@_WV?$StrTraitMFC@_WV?$ChTraitsOS@_W@ATL@@@@@0@0@Z 0002ecd4 f i uafxcwd:dlgprop.obj
 0001:0001dd3c       ?Compare@?$CStringT@_WV?$StrTraitMFC@_WV?$ChTraitsOS@_W@ATL@@@@@ATL@@QBAHPB_W@Z 0002ed3c f i uafxcwd:dlgprop.obj
 0001:0001de18       ??0?$CArray@PAXPAX@@QAA@XZ 0002ee18 f i uafxcwd:dlgprop.obj
 0001:0001de9c       ?GetSize@?$CArray@PAXPAX@@QBAHXZ 0002ee9c f i uafxcwd:dlgprop.obj
 0001:0001decc       ?Add@?$CArray@PAXPAX@@QAAHPAX@Z 0002eecc f i uafxcwd:dlgprop.obj
 0001:0001df14       ?RemoveAt@?$CArray@PAXPAX@@QAAXHH@Z 0002ef14 f i uafxcwd:dlgprop.obj
 0001:0001e134       ?memcpy_s@Checked@ATL@@YAXPAXIPBXI@Z 0002f134 f i uafxcwd:dlgprop.obj
 0001:0001e170       ?memmove_s@Checked@ATL@@YAXPAXIPBXI@Z 0002f170 f i uafxcwd:dlgprop.obj
 0001:0001e1ac       ?SetAtGrow@?$CArray@PAXPAX@@QAAXHPAX@Z 0002f1ac f i uafxcwd:dlgprop.obj
 0001:0001e274       ?SetSize@?$CArray@PAXPAX@@QAAXHH@Z 0002f274 f i uafxcwd:dlgprop.obj
 0001:0001e954       ??2@YAPAXIPAX@Z            0002f954 f i uafxcwd:dlgprop.obj
 0001:0001e97c       ?StringCompare@?$ChTraitsOS@_W@ATL@@SAHPB_W0@Z 0002f97c f i uafxcwd:dlgprop.obj
 0001:0001e9b4       ?AfxCreatePropertySheetPageW@@YAPAU_PSP@@PBU_PROPSHEETPAGEW@@@Z 0002f9b4 f i uafxcwd:dlgprop.obj
 0001:0001e9fc       ?_CreatePropertySheetPageW@CComCtlWrapper@@QAAPAU_PSP@@PBU_PROPSHEETPAGEW@@@Z 0002f9fc f i uafxcwd:dlgprop.obj
 0001:0001ead0       ??BCreatePropertySheetPageW_Type@CComCtlWrapper@@QAAP6APAU_PSP@@PBU_PROPSHEETPAGEW@@@ZXZ 0002fad0 f i uafxcwd:dlgprop.obj
 0001:0001eafc       ?GetProcAddress_CreatePropertySheetPageW@CComCtlWrapper@@QAA?AUCreatePropertySheetPageW_Type@1@XZ 0002fafc f i uafxcwd:dlgprop.obj
 0001:0001eb84       ?GetModuleHandleW@CComCtlWrapper@@QAAPAUHINSTANCE__@@XZ 0002fb84 f i uafxcwd:dlgprop.obj
 0001:0001ec54       ??4CreatePropertySheetPageW_Type@CComCtlWrapper@@QAAXP6APAU_PSP@@PBU_PROPSHEETPAGEW@@@Z@Z 0002fc54 f i uafxcwd:dlgprop.obj
 0001:0001ec74       ??7CreatePropertySheetPageW_Type@CComCtlWrapper@@QBA_NXZ 0002fc74 f i uafxcwd:dlgprop.obj
 0001:0001ecc4       ?AfxDestroyPropertySheetPage@@YAHPAU_PSP@@@Z 0002fcc4 f i uafxcwd:dlgprop.obj
 0001:0001ed0c       ?_DestroyPropertySheetPage@CComCtlWrapper@@QAAHPAU_PSP@@@Z 0002fd0c f i uafxcwd:dlgprop.obj
 0001:0001ede0       ??BDestroyPropertySheetPage_Type@CComCtlWrapper@@QAAP6AHPAU_PSP@@@ZXZ 0002fde0 f i uafxcwd:dlgprop.obj
 0001:0001ee0c       ?GetProcAddress_DestroyPropertySheetPage@CComCtlWrapper@@QAA?AUDestroyPropertySheetPage_Type@1@XZ 0002fe0c f i uafxcwd:dlgprop.obj
 0001:0001ee94       ??4DestroyPropertySheetPage_Type@CComCtlWrapper@@QAAXP6AHPAU_PSP@@@Z@Z 0002fe94 f i uafxcwd:dlgprop.obj
 0001:0001eeb4       ??7DestroyPropertySheetPage_Type@CComCtlWrapper@@QBA_NXZ 0002feb4 f i uafxcwd:dlgprop.obj
 0001:0001ef04       ?AfxPropertySheetW@@YAHPBU_PROPSHEETHEADERW@@@Z 0002ff04 f i uafxcwd:dlgprop.obj
 0001:0001ef4c       ?_PropertySheetW@CComCtlWrapper@@QAAHPBU_PROPSHEETHEADERW@@@Z 0002ff4c f i uafxcwd:dlgprop.obj
 0001:0001f020       ??BPropertySheetW_Type@CComCtlWrapper@@QAAP6AHPBU_PROPSHEETHEADERW@@@ZXZ 00030020 f i uafxcwd:dlgprop.obj
 0001:0001f04c       ?GetProcAddress_PropertySheetW@CComCtlWrapper@@QAA?AUPropertySheetW_Type@1@XZ 0003004c f i uafxcwd:dlgprop.obj
 0001:0001f0d4       ??4PropertySheetW_Type@CComCtlWrapper@@QAAXP6AHPBU_PROPSHEETHEADERW@@@Z@Z 000300d4 f i uafxcwd:dlgprop.obj
 0001:0001f0f4       ??7PropertySheetW_Type@CComCtlWrapper@@QBA_NXZ 000300f4 f i uafxcwd:dlgprop.obj
 0001:0001f14c       ??1?$CArray@PAXPAX@@UAA@XZ 0003014c f i uafxcwd:dlgprop.obj
 0001:0001f20c       ?Serialize@?$CArray@PAXPAX@@UAAXAAVCArchive@@@Z 0003020c f i uafxcwd:dlgprop.obj
 0001:0001f2c0       ??$SerializeElements@PAX@@YAXAAVCArchive@@PAPAXH@Z 000302c0 f i uafxcwd:dlgprop.obj
 0001:0001f4d4       ?AssertValid@?$CArray@PAXPAX@@UBAXXZ 000304d4 f i uafxcwd:dlgprop.obj
 0001:0001f6a0       ??_G?$CArray@PAXPAX@@UAAPAXI@Z 000306a0 f i uafxcwd:dlgprop.obj
 0001:0001f6a0       ??_E?$CArray@PAXPAX@@UAAPAXI@Z 000306a0 f i uafxcwd:dlgprop.obj
 0001:0001f6e4       ?SetRegistryKey@CWinApp@@IAAXPB_W@Z 000306e4 f   uafxcwd:appui3.obj
 0001:0001f808       ?SetRegistryKey@CWinApp@@IAAXI@Z 00030808 f   uafxcwd:appui3.obj
 0001:0001f8c4       ?GetAppRegistryKey@CWinApp@@QAAPAUHKEY__@@XZ 000308c4 f   uafxcwd:appui3.obj
 0001:0001faf4       ?GetSectionKey@CWinApp@@QAAPAUHKEY__@@PB_W@Z 00030af4 f   uafxcwd:appui3.obj
 0001:0001fbc8       ?GetProfileInt@CWinApp@@QAAIPB_W0H@Z 00030bc8 f   uafxcwd:appui3.obj
 0001:0001fd60       ?GetProfileString@CWinApp@@QAA?AV?$CStringT@_WV?$StrTraitMFC@_WV?$ChTraitsOS@_W@ATL@@@@@ATL@@PB_W00@Z 00030d60 f   uafxcwd:appui3.obj
 0001:00020028       ?GetProfileBinary@CWinApp@@QAAHPB_W0PAPAEPAI@Z 00031028 f   uafxcwd:appui3.obj
 0001:00020528       ?WriteProfileInt@CWinApp@@QAAHPB_W0H@Z 00031528 f   uafxcwd:appui3.obj
 0001:00020660       ?WriteProfileString@CWinApp@@QAAHPB_W00@Z 00031660 f   uafxcwd:appui3.obj
 0001:00020834       ?WriteProfileBinary@CWinApp@@QAAHPB_W0PAEI@Z 00031834 f   uafxcwd:appui3.obj
 0001:00020ad0       ??A?$CSimpleStringT@_W$0A@@ATL@@QBA_WH@Z 00031ad0 f i uafxcwd:appui3.obj
 0001:00020ba4       ??0CRegKey@ATL@@QAA@PAUHKEY__@@@Z 00031ba4 f i uafxcwd:appui3.obj
 0001:00020bd8       ??1CRegKey@ATL@@QAA@XZ     00031bd8 f i uafxcwd:appui3.obj
 0001:00020bf4       ?Close@CRegKey@ATL@@QAAJXZ 00031bf4 f i uafxcwd:appui3.obj
 0001:00020c58       ?ReleaseBuffer@?$CSimpleStringT@_W$0A@@ATL@@QAAXH@Z 00031c58 f i uafxcwd:appui3.obj
 0001:00020ca4       ??BCWnd@@QBAPAUHWND__@@XZ  00031ca4 f   uafxcwd:afxinl3.obj
 0001:00020cf4       ??8CWnd@@QBAHABV0@@Z       00031cf4 f   uafxcwd:afxinl3.obj
 0001:00020d54       ??9CWnd@@QBAHABV0@@Z       00031d54 f   uafxcwd:afxinl3.obj
 0001:00020db4       ?GetSafeHwnd@CWnd@@QBAPAUHWND__@@XZ 00031db4 f   uafxcwd:afxinl3.obj
 0001:00020e04       ?GetOwner@CWnd@@QBAPAV1@XZ 00031e04 f   uafxcwd:afxinl3.obj
 0001:00020e74       ?SetOwner@CWnd@@QAAXPAV1@@Z 00031e74 f   uafxcwd:afxinl3.obj
 0001:00020ec8       ?SendMessageW@CWnd@@QAAJIIJ@Z 00031ec8 f   uafxcwd:afxinl3.obj
 0001:00020f54       ?SendMessage@CWnd@@QAAJIIJ@Z 00031f54 f   uafxcwd:afxinl3.obj
 0001:00020f94       ?PostMessageW@CWnd@@QAAHIIJ@Z 00031f94 f   uafxcwd:afxinl3.obj
 0001:00021020       ?SetFont@CWnd@@QAAXPAVCFont@@H@Z 00032020 f   uafxcwd:afxinl3.obj
 0001:000210a8       ?GetFont@CWnd@@QBAPAVCFont@@XZ 000320a8 f   uafxcwd:afxinl3.obj
 0001:00021140       ?GetMenu@CWnd@@QBAPAVCMenu@@XZ 00032140 f   uafxcwd:afxinl3.obj
 0001:000211cc       ?SetMenu@CWnd@@QAAHPAVCMenu@@@Z 000321cc f   uafxcwd:afxinl3.obj
 0001:0002125c       ?DrawMenuBar@CWnd@@QAAXXZ  0003225c f   uafxcwd:afxinl3.obj
 0001:000212cc       ?GetSystemMenu@CWnd@@QBAPAVCMenu@@H@Z 000322cc f   uafxcwd:afxinl3.obj
 0001:0002135c       ?EnsureParentFrame@CWnd@@QBAPAVCFrameWnd@@XZ 0003235c f   uafxcwd:afxinl3.obj
 0001:000213bc       ?EnsureTopLevelParent@CWnd@@QBAPAV1@XZ 000323bc f   uafxcwd:afxinl3.obj
 0001:0002141c       ?IsIconic@CWnd@@QBAHXZ     0003241c f   uafxcwd:afxinl3.obj
 0001:0002149c       ?MoveWindow@CWnd@@QAAXPBUtagRECT@@H@Z 0003249c f   uafxcwd:afxinl3.obj
 0001:00021514       ?SetWindowRgn@CWnd@@QAAHPAUHRGN__@@H@Z 00032514 f   uafxcwd:afxinl3.obj
 0001:0002159c       ?GetWindowRgn@CWnd@@QBAHPAUHRGN__@@@Z 0003259c f   uafxcwd:afxinl3.obj
 0001:0002162c       ?BringWindowToTop@CWnd@@QAAXXZ 0003262c f   uafxcwd:afxinl3.obj
 0001:0002169c       ?GetWindowRect@CWnd@@QBAXPAUtagRECT@@@Z 0003269c f   uafxcwd:afxinl3.obj
 0001:00021710       ?GetClientRect@CWnd@@QBAXPAUtagRECT@@@Z 00032710 f   uafxcwd:afxinl3.obj
 0001:00021784       ?MapWindowPoints@CWnd@@QBAXPAV1@PAUtagPOINT@@I@Z 00032784 f   uafxcwd:afxinl3.obj
 0001:0002180c       ?MapWindowPoints@CWnd@@QBAXPAV1@PAUtagRECT@@@Z 0003280c f   uafxcwd:afxinl3.obj
 0001:00021894       ?ClientToScreen@CWnd@@QBAXPAUtagPOINT@@@Z 00032894 f   uafxcwd:afxinl3.obj
 0001:00021908       ?ScreenToClient@CWnd@@QBAXPAUtagPOINT@@@Z 00032908 f   uafxcwd:afxinl3.obj
 0001:0002197c       ?BeginPaint@CWnd@@QAAPAVCDC@@PAU_PAINTSTRUCT@@@Z 0003297c f   uafxcwd:afxinl3.obj
 0001:00021a0c       ?EndPaint@CWnd@@QAAXPAU_PAINTSTRUCT@@@Z 00032a0c f   uafxcwd:afxinl3.obj
 0001:00021a80       ?GetDC@CWnd@@QAAPAVCDC@@XZ 00032a80 f   uafxcwd:afxinl3.obj
 0001:00021b0c       ?GetWindowDC@CWnd@@QAAPAVCDC@@XZ 00032b0c f   uafxcwd:afxinl3.obj
 0001:00021b98       ?ReleaseDC@CWnd@@QAAHPAVCDC@@@Z 00032b98 f   uafxcwd:afxinl3.obj
 0001:00021c24       ?UpdateWindow@CWnd@@QAAXXZ 00032c24 f   uafxcwd:afxinl3.obj
 0001:00021c94       ?SetRedraw@CWnd@@QAAXH@Z   00032c94 f   uafxcwd:afxinl3.obj
 0001:00021d10       ?GetUpdateRect@CWnd@@QAAHPAUtagRECT@@H@Z 00032d10 f   uafxcwd:afxinl3.obj
 0001:00021d98       ?GetUpdateRgn@CWnd@@QAAHPAVCRgn@@H@Z 00032d98 f   uafxcwd:afxinl3.obj
 0001:00021e2c       ?Invalidate@CWnd@@QAAXH@Z  00032e2c f   uafxcwd:afxinl3.obj
 0001:00021ea4       ?InvalidateRect@CWnd@@QAAXPBUtagRECT@@H@Z 00032ea4 f   uafxcwd:afxinl3.obj
 0001:00021f1c       ?InvalidateRgn@CWnd@@QAAXPAVCRgn@@H@Z 00032f1c f   uafxcwd:afxinl3.obj
 0001:00021fa0       ?ValidateRect@CWnd@@QAAXPBUtagRECT@@@Z 00032fa0 f   uafxcwd:afxinl3.obj
 0001:00022014       ?ValidateRgn@CWnd@@QAAXPAVCRgn@@@Z 00033014 f   uafxcwd:afxinl3.obj
 0001:00022094       ?IsWindowVisible@CWnd@@QBAHXZ 00033094 f   uafxcwd:afxinl3.obj
 0001:00022114       ?SendMessageToDescendants@CWnd@@QAAXIIJHH@Z 00033114 f   uafxcwd:afxinl3.obj
 0001:000221a0       ?GetDescendantWindow@CWnd@@QBAPAV1@HH@Z 000331a0 f   uafxcwd:afxinl3.obj
 0001:00022228       ?GetDCEx@CWnd@@QAAPAVCDC@@PAVCRgn@@K@Z 00033228 f   uafxcwd:afxinl3.obj
 0001:000222c8       ?RedrawWindow@CWnd@@QAAHPBUtagRECT@@PAVCRgn@@I@Z 000332c8 f   uafxcwd:afxinl3.obj
 0001:00022358       ?SetTimer@CWnd@@QAAIIIP6AXPAUHWND__@@IIK@Z@Z 00033358 f   uafxcwd:afxinl3.obj
 0001:000223e4       ?KillTimer@CWnd@@QAAHI@Z   000333e4 f   uafxcwd:afxinl3.obj
 0001:00022468       ?GetActiveWindow@CWnd@@SAPAV1@XZ 00033468 f   uafxcwd:afxinl3.obj
 0001:0002249c       ?SetActiveWindow@CWnd@@QAAPAV1@XZ 0003349c f   uafxcwd:afxinl3.obj
 0001:00022528       ?GetCapture@CWnd@@SAPAV1@XZ 00033528 f   uafxcwd:afxinl3.obj
 0001:0002255c       ?SetCapture@CWnd@@QAAPAV1@XZ 0003355c f   uafxcwd:afxinl3.obj
 0001:000225e8       ?GetFocus@CWnd@@SAPAV1@XZ  000335e8 f   uafxcwd:afxinl3.obj
 0001:0002261c       ?GetDesktopWindow@CWnd@@SAPAV1@XZ 0003361c f   uafxcwd:afxinl3.obj
 0001:00022650       ?GetNextDlgGroupItem@CWnd@@QBAPAV1@PAV1@H@Z 00033650 f   uafxcwd:afxinl3.obj
 0001:000226f4       ?GetNextDlgTabItem@CWnd@@QBAPAV1@PAV1@H@Z 000336f4 f   uafxcwd:afxinl3.obj
 0001:00022798       ?ShowScrollBar@CWnd@@QAAXIH@Z 00033798 f   uafxcwd:afxinl3.obj
 0001:000228a8       ?ChildWindowFromPoint@CWnd@@QBAPAV1@UtagPOINT@@@Z 000338a8 f   uafxcwd:afxinl3.obj
 0001:00022940       ?FindWindowW@CWnd@@SAPAV1@PB_W0@Z 00033940 f   uafxcwd:afxinl3.obj
 0001:00022984       ?GetNextWindow@CWnd@@QBAPAV1@I@Z 00033984 f   uafxcwd:afxinl3.obj
 0001:00022a18       ?GetTopWindow@CWnd@@QBAPAV1@XZ 00033a18 f   uafxcwd:afxinl3.obj
 0001:00022aa8       ?GetWindow@CWnd@@QBAPAV1@I@Z 00033aa8 f   uafxcwd:afxinl3.obj
 0001:00022b3c       ?GetLastActivePopup@CWnd@@QBAPAV1@XZ 00033b3c f   uafxcwd:afxinl3.obj
 0001:00022bcc       ?IsChild@CWnd@@QBAHPBV1@@Z 00033bcc f   uafxcwd:afxinl3.obj
 0001:00022c60       ?GetParent@CWnd@@QBAPAV1@XZ 00033c60 f   uafxcwd:afxinl3.obj
 0001:00022cf0       ?SetParent@CWnd@@QAAPAV1@PAV1@@Z 00033cf0 f   uafxcwd:afxinl3.obj
 0001:00022d90       ?WindowFromPoint@CWnd@@SAPAV1@UtagPOINT@@@Z 00033d90 f   uafxcwd:afxinl3.obj
 0001:00022dd4       ?MessageBox@CWnd@@QAAHPB_W0I@Z 00033dd4 f   uafxcwd:afxinl3.obj
 0001:00022e14       ?OpenClipboard@CWnd@@QAAHXZ 00033e14 f   uafxcwd:afxinl3.obj
 0001:00022e98       ?GetOpenClipboardWindow@CWnd@@SAPAV1@XZ 00033e98 f   uafxcwd:afxinl3.obj
 0001:00022ecc       ?GetClipboardOwner@CWnd@@SAPAV1@XZ 00033ecc f   uafxcwd:afxinl3.obj
 0001:00022f00       ?CreateCaret@CWnd@@QAAXPAVCBitmap@@@Z 00033f00 f   uafxcwd:afxinl3.obj
 0001:00022f8c       ?CreateSolidCaret@CWnd@@QAAXHH@Z 00033f8c f   uafxcwd:afxinl3.obj
 0001:0002300c       ?CreateGrayCaret@CWnd@@QAAXHH@Z 0003400c f   uafxcwd:afxinl3.obj
 0001:0002308c       ?GetCaretPos@CWnd@@SA?AVCPoint@@XZ 0003408c f   uafxcwd:afxinl3.obj
 0001:000230d4       ?SetCaretPos@CWnd@@SAXUtagPOINT@@@Z 000340d4 f   uafxcwd:afxinl3.obj
 0001:000230f4       ?HideCaret@CWnd@@QAAXXZ    000340f4 f   uafxcwd:afxinl3.obj
 0001:00023168       ?ShowCaret@CWnd@@QAAXXZ    00034168 f   uafxcwd:afxinl3.obj
 0001:000231dc       ?SetForegroundWindow@CWnd@@QAAHXZ 000341dc f   uafxcwd:afxinl3.obj
 0001:00023260       ?GetForegroundWindow@CWnd@@SAPAV1@XZ 00034260 f   uafxcwd:afxinl3.obj
 0001:00023294       ?SendNotifyMessageW@CWnd@@QAAHIIJ@Z 00034294 f   uafxcwd:afxinl3.obj
 0001:00023324       ?SetIcon@CWnd@@QAAPAUHICON__@@PAU2@H@Z 00034324 f   uafxcwd:afxinl3.obj
 0001:000233b4       ?GetIcon@CWnd@@QBAPAUHICON__@@H@Z 000343b4 f   uafxcwd:afxinl3.obj
 0001:00023440       ?OnActivate@CWnd@@IAAXIPAV1@H@Z 00034440 f   uafxcwd:afxinl3.obj
 0001:0002345c       ?OnCancelMode@CWnd@@IAAXXZ 0003445c f   uafxcwd:afxinl3.obj
 0001:00023478       ?OnClose@CWnd@@IAAXXZ      00034478 f   uafxcwd:afxinl3.obj
 0001:00023494       ?OnContextMenu@CWnd@@IAAXPAV1@VCPoint@@@Z 00034494 f   uafxcwd:afxinl3.obj
 0001:000234b0       ?OnCopyData@CWnd@@IAAHPAV1@PAUtagCOPYDATASTRUCT@@@Z 000344b0 f   uafxcwd:afxinl3.obj
 0001:000234e4       ?OnCreate@CWnd@@QAAHPAUtagCREATESTRUCTW@@@Z 000344e4 f   uafxcwd:afxinl3.obj
 0001:00023518       ?OnEnable@CWnd@@IAAXH@Z    00034518 f   uafxcwd:afxinl3.obj
 0001:00023534       ?OnEraseBkgnd@CWnd@@IAAHPAVCDC@@@Z 00034534 f   uafxcwd:afxinl3.obj
 0001:00023568       ?OnKillFocus@CWnd@@IAAXPAV1@@Z 00034568 f   uafxcwd:afxinl3.obj
 0001:00023584       ?OnMenuChar@CWnd@@IAAJIIPAVCMenu@@@Z 00034584 f   uafxcwd:afxinl3.obj
 0001:000235b8       ?OnMove@CWnd@@IAAXHH@Z     000345b8 f   uafxcwd:afxinl3.obj
 0001:000235d4       ?OnQueryDragIcon@CWnd@@IAAPAUHICON__@@XZ 000345d4 f   uafxcwd:afxinl3.obj
 0001:00023608       ?OnQueryNewPalette@CWnd@@IAAHXZ 00034608 f   uafxcwd:afxinl3.obj
 0001:0002363c       ?OnSetCursor@CWnd@@IAAHPAV1@II@Z 0003463c f   uafxcwd:afxinl3.obj
 0001:00023670       ?OnShowWindow@CWnd@@IAAXHI@Z 00034670 f   uafxcwd:afxinl3.obj
 0001:0002368c       ?OnSize@CWnd@@IAAXIHH@Z    0003468c f   uafxcwd:afxinl3.obj
 0001:000236a8       ?OnWindowPosChanged@CWnd@@IAAXPAUtagWINDOWPOS@@@Z 000346a8 f   uafxcwd:afxinl3.obj
 0001:000236c4       ?OnSysChar@CWnd@@IAAXIII@Z 000346c4 f   uafxcwd:afxinl3.obj
 0001:000236e0       ?OnSysCommand@CWnd@@IAAXIJ@Z 000346e0 f   uafxcwd:afxinl3.obj
 0001:000236fc       ?OnSysDeadChar@CWnd@@IAAXIII@Z 000346fc f   uafxcwd:afxinl3.obj
 0001:00023718       ?OnSysKeyDown@CWnd@@IAAXIII@Z 00034718 f   uafxcwd:afxinl3.obj
 0001:00023734       ?OnSysKeyUp@CWnd@@IAAXIII@Z 00034734 f   uafxcwd:afxinl3.obj
 0001:00023750       ?OnFontChange@CWnd@@IAAXXZ 00034750 f   uafxcwd:afxinl3.obj
 0001:0002376c       ?OnPaletteChanged@CWnd@@IAAXPAV1@@Z 0003476c f   uafxcwd:afxinl3.obj
 0001:00023788       ?OnChar@CWnd@@IAAXIII@Z    00034788 f   uafxcwd:afxinl3.obj
 0001:000237a4       ?OnDeadChar@CWnd@@IAAXIII@Z 000347a4 f   uafxcwd:afxinl3.obj
 0001:000237c0       ?OnKeyDown@CWnd@@IAAXIII@Z 000347c0 f   uafxcwd:afxinl3.obj
 0001:000237dc       ?OnKeyUp@CWnd@@IAAXIII@Z   000347dc f   uafxcwd:afxinl3.obj
 0001:000237f8       ?OnLButtonDblClk@CWnd@@IAAXIVCPoint@@@Z 000347f8 f   uafxcwd:afxinl3.obj
 0001:00023814       ?OnLButtonUp@CWnd@@IAAXIVCPoint@@@Z 00034814 f   uafxcwd:afxinl3.obj
 0001:00023830       ?OnMButtonDblClk@CWnd@@IAAXIVCPoint@@@Z 00034830 f   uafxcwd:afxinl3.obj
 0001:0002384c       ?OnMButtonDown@CWnd@@IAAXIVCPoint@@@Z 0003484c f   uafxcwd:afxinl3.obj
 0001:00023868       ?OnMButtonUp@CWnd@@IAAXIVCPoint@@@Z 00034868 f   uafxcwd:afxinl3.obj
 0001:00023884       ?OnMouseMove@CWnd@@IAAXIVCPoint@@@Z 00034884 f   uafxcwd:afxinl3.obj
 0001:000238a0       ?OnMouseWheel@CWnd@@IAAHIFVCPoint@@@Z 000348a0 f   uafxcwd:afxinl3.obj
 0001:000238d4       ?OnRegisteredMouseWheel@CWnd@@IAAJIJ@Z 000348d4 f   uafxcwd:afxinl3.obj
 0001:00023908       ?OnRButtonDblClk@CWnd@@IAAXIVCPoint@@@Z 00034908 f   uafxcwd:afxinl3.obj
 0001:00023924       ?OnRButtonDown@CWnd@@IAAXIVCPoint@@@Z 00034924 f   uafxcwd:afxinl3.obj
 0001:00023940       ?OnRButtonUp@CWnd@@IAAXIVCPoint@@@Z 00034940 f   uafxcwd:afxinl3.obj
 0001:0002395c       ?OnTimer@CWnd@@IAAXI@Z     0003495c f   uafxcwd:afxinl3.obj
 0001:00023978       ?OnInitMenuPopup@CWnd@@IAAXPAVCMenu@@IH@Z 00034978 f   uafxcwd:afxinl3.obj
 0001:00023994       ?OnDestroyClipboard@CWnd@@IAAXXZ 00034994 f   uafxcwd:afxinl3.obj
 0001:000239b0       ?OnRenderAllFormats@CWnd@@IAAXXZ 000349b0 f   uafxcwd:afxinl3.obj
 0001:000239cc       ?OnRenderFormat@CWnd@@IAAXI@Z 000349cc f   uafxcwd:afxinl3.obj
 0001:000239e8       ?OnSizeClipboard@CWnd@@IAAXPAV1@PAX@Z 000349e8 f   uafxcwd:afxinl3.obj
 0001:00023a04       ?OnGetDlgCode@CWnd@@IAAIXZ 00034a04 f   uafxcwd:afxinl3.obj
 0001:00023a38       ?OnEnterMenuLoop@CWnd@@IAAXH@Z 00034a38 f   uafxcwd:afxinl3.obj
 0001:00023a54       ?OnExitMenuLoop@CWnd@@IAAXH@Z 00034a54 f   uafxcwd:afxinl3.obj
 0001:00023a70       ?OnStyleChanged@CWnd@@IAAXHPAUtagSTYLESTRUCT@@@Z 00034a70 f   uafxcwd:afxinl3.obj
 0001:00023a8c       ?OnCaptureChanged@CWnd@@IAAXPAV1@@Z 00034a8c f   uafxcwd:afxinl3.obj
 0001:00023aa8       ?OnDeviceChange@CWnd@@IAAHIK@Z 00034aa8 f   uafxcwd:afxinl3.obj
 0001:00023adc       ?OnWinIniChange@CWnd@@IAAXPB_W@Z 00034adc f   uafxcwd:afxinl3.obj
 0001:00023af8       ?OnChangeUIState@CWnd@@IAAXII@Z 00034af8 f   uafxcwd:afxinl3.obj
 0001:00023b14       ?OnUpdateUIState@CWnd@@IAAXII@Z 00034b14 f   uafxcwd:afxinl3.obj
 0001:00023b30       ?OnQueryUIState@CWnd@@IAAIXZ 00034b30 f   uafxcwd:afxinl3.obj
 0001:00023b64       ?DoDataExchange@CWnd@@MAAXPAVCDataExchange@@@Z 00034b64 f   uafxcwd:afxinl3.obj
 0001:00023b78       ?BeginModalState@CWnd@@UAAXXZ 00034b78 f   uafxcwd:afxinl3.obj
 0001:00023ba0       ?EndModalState@CWnd@@UAAXXZ 00034ba0 f   uafxcwd:afxinl3.obj
 0001:00023bc8       ?DelayUpdateFrameTitle@CFrameWnd@@QAAXXZ 00034bc8 f   uafxcwd:afxinl3.obj
 0001:00023bf8       ?DelayRecalcLayout@CFrameWnd@@QAAXH@Z 00034bf8 f   uafxcwd:afxinl3.obj
 0001:00023c58       ?InModalState@CFrameWnd@@QBAHXZ 00034c58 f   uafxcwd:afxinl3.obj
 0001:00023ca8       ?AddControlBar@CFrameWnd@@QAAXPAVCControlBar@@@Z 00034ca8 f   uafxcwd:afxinl3.obj
 0001:00023ccc       ?SetTitle@CFrameWnd@@QAAXPB_W@Z 00034ccc f   uafxcwd:afxinl3.obj
 0001:00023cf0       ?GetTitle@CFrameWnd@@QBA?AV?$CStringT@_WV?$StrTraitMFC@_WV?$ChTraitsOS@_W@ATL@@@@@ATL@@XZ 00034cf0 f   uafxcwd:afxinl3.obj
 0001:00023d40       ?Create@CDialog@@UAAHIPAVCWnd@@@Z 00034d40 f   uafxcwd:afxinl3.obj
 0001:00023d88       ?MapDialogRect@CDialog@@QBAXPAUtagRECT@@@Z 00034d88 f   uafxcwd:afxinl3.obj
 0001:00023e00       ?SetHelpID@CDialog@@QAAXI@Z 00034e00 f   uafxcwd:afxinl3.obj
 0001:00023e24       ?NextDlgCtrl@CDialog@@QBAXXZ 00034e24 f   uafxcwd:afxinl3.obj
 0001:00023ea4       ?PrevDlgCtrl@CDialog@@QBAXXZ 00034ea4 f   uafxcwd:afxinl3.obj
 0001:00023f20       ?GotoDlgCtrl@CDialog@@QAAXPAVCWnd@@@Z 00034f20 f   uafxcwd:afxinl3.obj
 0001:00023fa8       ?SetDefID@CDialog@@QAAXI@Z 00034fa8 f   uafxcwd:afxinl3.obj
 0001:00024028       ?GetDefID@CDialog@@QBAKXZ  00035028 f   uafxcwd:afxinl3.obj
 0001:000240b8       ??0CStatic@@QAA@XZ         000350b8 f   uafxcwd:afxinl3.obj
 0001:000240fc       ?SetBitmap@CStatic@@QAAPAUHBITMAP__@@PAU2@@Z 000350fc f   uafxcwd:afxinl3.obj
 0001:00024190       ?GetBitmap@CStatic@@QBAPAUHBITMAP__@@XZ 00035190 f   uafxcwd:afxinl3.obj
 0001:00024224       ?SetCursor@CStatic@@QAAPAUHICON__@@PAU2@@Z 00035224 f   uafxcwd:afxinl3.obj
 0001:000242b8       ?GetCursor@CStatic@@QAAPAUHICON__@@XZ 000352b8 f   uafxcwd:afxinl3.obj
 0001:0002434c       ??0CButton@@QAA@XZ         0003534c f   uafxcwd:afxinl3.obj
 0001:00024390       ?GetState@CButton@@QBAIXZ  00035390 f   uafxcwd:afxinl3.obj
 0001:00024420       ?SetState@CButton@@QAAXH@Z 00035420 f   uafxcwd:afxinl3.obj
 0001:00024450       ?GetCheck@CButton@@QBAHXZ  00035450 f   uafxcwd:afxinl3.obj
 0001:000244e0       ?SetCheck@CButton@@QAAXH@Z 000354e0 f   uafxcwd:afxinl3.obj
 0001:0002455c       ?GetButtonStyle@CButton@@QBAIXZ 0003555c f   uafxcwd:afxinl3.obj
 0001:000245e8       ?SetButtonStyle@CButton@@QAAXIH@Z 000355e8 f   uafxcwd:afxinl3.obj
 0001:00024664       ??0CListBox@@QAA@XZ        00035664 f   uafxcwd:afxinl3.obj
 0001:000246a8       ?GetCount@CListBox@@QBAHXZ 000356a8 f   uafxcwd:afxinl3.obj
 0001:00024738       ?GetCurSel@CListBox@@QBAHXZ 00035738 f   uafxcwd:afxinl3.obj
 0001:000247c8       ?SetCurSel@CListBox@@QAAHH@Z 000357c8 f   uafxcwd:afxinl3.obj
 0001:00024858       ?GetHorizontalExtent@CListBox@@QBAHXZ 00035858 f   uafxcwd:afxinl3.obj
 0001:000248ec       ?SetHorizontalExtent@CListBox@@QAAXH@Z 000358ec f   uafxcwd:afxinl3.obj
 0001:0002496c       ?GetSelCount@CListBox@@QBAHXZ 0003596c f   uafxcwd:afxinl3.obj
 0001:000249fc       ?GetSelItems@CListBox@@QBAHHPAH@Z 000359fc f   uafxcwd:afxinl3.obj
 0001:00024a90       ?GetTopIndex@CListBox@@QBAHXZ 00035a90 f   uafxcwd:afxinl3.obj
 0001:00024b24       ?SetTopIndex@CListBox@@QAAHH@Z 00035b24 f   uafxcwd:afxinl3.obj
 0001:00024bb8       ?GetItemData@CListBox@@QBAKH@Z 00035bb8 f   uafxcwd:afxinl3.obj
 0001:00024c4c       ?SetItemData@CListBox@@QAAHHK@Z 00035c4c f   uafxcwd:afxinl3.obj
 0001:00024ce0       ?GetItemDataPtr@CListBox@@QBAPAXH@Z 00035ce0 f   uafxcwd:afxinl3.obj
 0001:00024d74       ?SetItemDataPtr@CListBox@@QAAHHPAX@Z 00035d74 f   uafxcwd:afxinl3.obj
 0001:00024df8       ?GetItemRect@CListBox@@QBAHHPAUtagRECT@@@Z 00035df8 f   uafxcwd:afxinl3.obj
 0001:00024e88       ?GetSel@CListBox@@QBAHH@Z  00035e88 f   uafxcwd:afxinl3.obj
 0001:00024f1c       ?SetSel@CListBox@@QAAHHH@Z 00035f1c f   uafxcwd:afxinl3.obj
 0001:00024fb0       ?GetText@CListBox@@QBAHHPA_W@Z 00035fb0 f   uafxcwd:afxinl3.obj
 0001:00025044       ?GetTextLen@CListBox@@QBAHH@Z 00036044 f   uafxcwd:afxinl3.obj
 0001:000250d8       ?SetColumnWidth@CListBox@@QAAXH@Z 000360d8 f   uafxcwd:afxinl3.obj
 0001:00025158       ?SetTabStops@CListBox@@QAAHHPAH@Z 00036158 f   uafxcwd:afxinl3.obj
 0001:000251ec       ?SetTabStops@CListBox@@QAAXXZ 000361ec f   uafxcwd:afxinl3.obj
 0001:000252a0       ?SetTabStops@CListBox@@QAAHABH@Z 000362a0 f   uafxcwd:afxinl3.obj
 0001:00025334       ?SetItemHeight@CListBox@@QAAHHI@Z 00036334 f   uafxcwd:afxinl3.obj
 0001:000253c8       ?GetItemHeight@CListBox@@QBAHH@Z 000363c8 f   uafxcwd:afxinl3.obj
 0001:0002545c       ?FindStringExact@CListBox@@QBAHHPB_W@Z 0003645c f   uafxcwd:afxinl3.obj
 0001:000254ec       ?GetCaretIndex@CListBox@@QBAHXZ 000364ec f   uafxcwd:afxinl3.obj
 0001:00025580       ?SetCaretIndex@CListBox@@QAAHHH@Z 00036580 f   uafxcwd:afxinl3.obj
 0001:00025618       ?AddString@CListBox@@QAAHPB_W@Z 00036618 f   uafxcwd:afxinl3.obj
 0001:000256a8       ?DeleteString@CListBox@@QAAHI@Z 000366a8 f   uafxcwd:afxinl3.obj
 0001:00025738       ?InsertString@CListBox@@QAAHHPB_W@Z 00036738 f   uafxcwd:afxinl3.obj
 0001:000257cc       ?ResetContent@CListBox@@QAAXXZ 000367cc f   uafxcwd:afxinl3.obj
 0001:00025848       ?FindString@CListBox@@QBAHHPB_W@Z 00036848 f   uafxcwd:afxinl3.obj
 0001:000258dc       ?SelectString@CListBox@@QAAHHPB_W@Z 000368dc f   uafxcwd:afxinl3.obj
 0001:0002596c       ?SelItemRange@CListBox@@QAAHHHH@Z 0003696c f   uafxcwd:afxinl3.obj
 0001:00025a40       ?SetAnchorIndex@CListBox@@QAAXH@Z 00036a40 f   uafxcwd:afxinl3.obj
 0001:00025abc       ?GetAnchorIndex@CListBox@@QBAHXZ 00036abc f   uafxcwd:afxinl3.obj
 0001:00025b50       ?GetLocale@CListBox@@QBAKXZ 00036b50 f   uafxcwd:afxinl3.obj
 0001:00025be0       ?SetLocale@CListBox@@QAAKK@Z 00036be0 f   uafxcwd:afxinl3.obj
 0001:00025c74       ?InitStorage@CListBox@@QAAHHI@Z 00036c74 f   uafxcwd:afxinl3.obj
 0001:00025d00       ??0CComboBox@@QAA@XZ       00036d00 f   uafxcwd:afxinl3.obj
 0001:00025d44       ?GetCount@CComboBox@@QBAHXZ 00036d44 f   uafxcwd:afxinl3.obj
 0001:00025dd4       ?GetCurSel@CComboBox@@QBAHXZ 00036dd4 f   uafxcwd:afxinl3.obj
 0001:00025e68       ?SetCurSel@CComboBox@@QAAHH@Z 00036e68 f   uafxcwd:afxinl3.obj
 0001:00025ef8       ?GetEditSel@CComboBox@@QBAKXZ 00036ef8 f   uafxcwd:afxinl3.obj
 0001:00025f88       ?LimitText@CComboBox@@QAAHH@Z 00036f88 f   uafxcwd:afxinl3.obj
 0001:0002601c       ?SetEditSel@CComboBox@@QAAHHH@Z 0003701c f   uafxcwd:afxinl3.obj
 0001:000260cc       ?GetItemData@CComboBox@@QBAKH@Z 000370cc f   uafxcwd:afxinl3.obj
 0001:0002615c       ?SetItemData@CComboBox@@QAAHHK@Z 0003715c f   uafxcwd:afxinl3.obj
 0001:000261f0       ?GetItemDataPtr@CComboBox@@QBAPAXH@Z 000371f0 f   uafxcwd:afxinl3.obj
 0001:00026270       ?SetItemDataPtr@CComboBox@@QAAHHPAX@Z 00037270 f   uafxcwd:afxinl3.obj
 0001:000262f4       ?GetLBText@CComboBox@@QBAHHPA_W@Z 000372f4 f   uafxcwd:afxinl3.obj
 0001:00026384       ?GetLBTextLen@CComboBox@@QBAHH@Z 00037384 f   uafxcwd:afxinl3.obj
 0001:00026418       ?ShowDropDown@CComboBox@@QAAXH@Z 00037418 f   uafxcwd:afxinl3.obj
 0001:00026498       ?AddString@CComboBox@@QAAHPB_W@Z 00037498 f   uafxcwd:afxinl3.obj
 0001:0002652c       ?DeleteString@CComboBox@@QAAHI@Z 0003752c f   uafxcwd:afxinl3.obj
 0001:000265b8       ?InsertString@CComboBox@@QAAHHPB_W@Z 000375b8 f   uafxcwd:afxinl3.obj
 0001:0002664c       ?ResetContent@CComboBox@@QAAXXZ 0003764c f   uafxcwd:afxinl3.obj
 0001:000266cc       ?FindString@CComboBox@@QBAHHPB_W@Z 000376cc f   uafxcwd:afxinl3.obj
 0001:0002675c       ?SelectString@CComboBox@@QAAHHPB_W@Z 0003775c f   uafxcwd:afxinl3.obj
 0001:000267f0       ?Clear@CComboBox@@QAAXXZ   000377f0 f   uafxcwd:afxinl3.obj
 0001:00026870       ?Copy@CComboBox@@QAAXXZ    00037870 f   uafxcwd:afxinl3.obj
 0001:000268f4       ?Cut@CComboBox@@QAAXXZ     000378f4 f   uafxcwd:afxinl3.obj
 0001:00026970       ?Paste@CComboBox@@QAAXXZ   00037970 f   uafxcwd:afxinl3.obj
 0001:000269f4       ?SetItemHeight@CComboBox@@QAAHHI@Z 000379f4 f   uafxcwd:afxinl3.obj
 0001:00026a8c       ?GetItemHeight@CComboBox@@QBAHH@Z 00037a8c f   uafxcwd:afxinl3.obj
 0001:00026b1c       ?FindStringExact@CComboBox@@QBAHHPB_W@Z 00037b1c f   uafxcwd:afxinl3.obj
 0001:00026ba8       ?SetExtendedUI@CComboBox@@QAAHH@Z 00037ba8 f   uafxcwd:afxinl3.obj
 0001:00026c3c       ?GetExtendedUI@CComboBox@@QBAHXZ 00037c3c f   uafxcwd:afxinl3.obj
 0001:00026ccc       ?GetDroppedControlRect@CComboBox@@QBAXPAUtagRECT@@@Z 00037ccc f   uafxcwd:afxinl3.obj
 0001:00026d50       ?GetDroppedState@CComboBox@@QBAHXZ 00037d50 f   uafxcwd:afxinl3.obj
 0001:00026de0       ?GetLocale@CComboBox@@QBAKXZ 00037de0 f   uafxcwd:afxinl3.obj
 0001:00026e74       ?SetLocale@CComboBox@@QAAKK@Z 00037e74 f   uafxcwd:afxinl3.obj
 0001:00026f04       ?GetTopIndex@CComboBox@@QBAHXZ 00037f04 f   uafxcwd:afxinl3.obj
 0001:00026f98       ?SetTopIndex@CComboBox@@QAAHH@Z 00037f98 f   uafxcwd:afxinl3.obj
 0001:00027024       ?InitStorage@CComboBox@@QAAHHI@Z 00038024 f   uafxcwd:afxinl3.obj
 0001:000270b8       ?SetHorizontalExtent@CComboBox@@QAAXI@Z 000380b8 f   uafxcwd:afxinl3.obj
 0001:00027138       ?GetHorizontalExtent@CComboBox@@QBAIXZ 00038138 f   uafxcwd:afxinl3.obj
 0001:000271cc       ?SetDroppedWidth@CComboBox@@QAAHI@Z 000381cc f   uafxcwd:afxinl3.obj
 0001:00027258       ?GetDroppedWidth@CComboBox@@QBAHXZ 00038258 f   uafxcwd:afxinl3.obj
 0001:000272ec       ??0CEdit@@QAA@XZ           000382ec f   uafxcwd:afxinl3.obj
 0001:00027330       ?CanUndo@CEdit@@QBAHXZ     00038330 f   uafxcwd:afxinl3.obj
 0001:000273c0       ?GetLineCount@CEdit@@QBAHXZ 000383c0 f   uafxcwd:afxinl3.obj
 0001:0002744c       ?GetModify@CEdit@@QBAHXZ   0003844c f   uafxcwd:afxinl3.obj
 0001:000274dc       ?SetModify@CEdit@@QAAXH@Z  000384dc f   uafxcwd:afxinl3.obj
 0001:00027558       ?GetRect@CEdit@@QBAXPAUtagRECT@@@Z 00038558 f   uafxcwd:afxinl3.obj
 0001:000275d8       ?GetSel@CEdit@@QBAXAAH0@Z  000385d8 f   uafxcwd:afxinl3.obj
 0001:00027654       ?GetSel@CEdit@@QBAKXZ      00038654 f   uafxcwd:afxinl3.obj
 0001:000276e4       ?GetLine@CEdit@@QBAHHPA_W@Z 000386e4 f   uafxcwd:afxinl3.obj
 0001:00027774       ?GetLine@CEdit@@QBAHHPA_WH@Z 00038774 f   uafxcwd:afxinl3.obj
 0001:00027818       ?EmptyUndoBuffer@CEdit@@QAAXXZ 00038818 f   uafxcwd:afxinl3.obj
 0001:00027898       ?FmtLines@CEdit@@QAAHH@Z   00038898 f   uafxcwd:afxinl3.obj
 0001:00027928       ?LimitText@CEdit@@QAAXH@Z  00038928 f   uafxcwd:afxinl3.obj
 0001:000279a8       ?LineFromChar@CEdit@@QBAHH@Z 000389a8 f   uafxcwd:afxinl3.obj
 0001:00027a38       ?LineIndex@CEdit@@QBAHH@Z  00038a38 f   uafxcwd:afxinl3.obj
 0001:00027ac8       ?LineLength@CEdit@@QBAHH@Z 00038ac8 f   uafxcwd:afxinl3.obj
 0001:00027b58       ?LineScroll@CEdit@@QAAXHH@Z 00038b58 f   uafxcwd:afxinl3.obj
 0001:00027bd8       ?ReplaceSel@CEdit@@QAAXPB_WH@Z 00038bd8 f   uafxcwd:afxinl3.obj
 0001:00027c58       ?SetPasswordChar@CEdit@@QAAX_W@Z 00038c58 f   uafxcwd:afxinl3.obj
 0001:00027cd8       ?SetRect@CEdit@@QAAXPBUtagRECT@@@Z 00038cd8 f   uafxcwd:afxinl3.obj
 0001:00027d58       ?SetRectNP@CEdit@@QAAXPBUtagRECT@@@Z 00038d58 f   uafxcwd:afxinl3.obj
 0001:00027dd8       ?SetSel@CEdit@@QAAXKH@Z    00038dd8 f   uafxcwd:afxinl3.obj
 0001:00027e94       ?SetSel@CEdit@@QAAXHHH@Z   00038e94 f   uafxcwd:afxinl3.obj
 0001:00027f3c       ?SetTabStops@CEdit@@QAAHHPAH@Z 00038f3c f   uafxcwd:afxinl3.obj
 0001:00027fcc       ?SetTabStops@CEdit@@QAAXXZ 00038fcc f   uafxcwd:afxinl3.obj
 0001:00028084       ?SetTabStops@CEdit@@QAAHABH@Z 00039084 f   uafxcwd:afxinl3.obj
 0001:00028114       ?Undo@CEdit@@QAAHXZ        00039114 f   uafxcwd:afxinl3.obj
 0001:000281a4       ?Clear@CEdit@@QAAXXZ       000391a4 f   uafxcwd:afxinl3.obj
 0001:00028228       ?Copy@CEdit@@QAAXXZ        00039228 f   uafxcwd:afxinl3.obj
 0001:000282ac       ?Cut@CEdit@@QAAXXZ         000392ac f   uafxcwd:afxinl3.obj
 0001:0002832c       ?Paste@CEdit@@QAAXXZ       0003932c f   uafxcwd:afxinl3.obj
 0001:000283b0       ?SetReadOnly@CEdit@@QAAHH@Z 000393b0 f   uafxcwd:afxinl3.obj
 0001:0002843c       ?GetFirstVisibleLine@CEdit@@QBAHXZ 0003943c f   uafxcwd:afxinl3.obj
 0001:000284cc       ?GetPasswordChar@CEdit@@QBA_WXZ 000394cc f   uafxcwd:afxinl3.obj
 0001:00028564       ?SetMargins@CEdit@@QAAXII@Z 00039564 f   uafxcwd:afxinl3.obj
 0001:00028600       ?GetMargins@CEdit@@QBAKXZ  00039600 f   uafxcwd:afxinl3.obj
 0001:00028690       ?SetLimitText@CEdit@@QAAXI@Z 00039690 f   uafxcwd:afxinl3.obj
 0001:00028710       ?GetLimitText@CEdit@@QBAIXZ 00039710 f   uafxcwd:afxinl3.obj
 0001:000287a0       ?PosFromChar@CEdit@@QBA?AVCPoint@@I@Z 000397a0 f   uafxcwd:afxinl3.obj
 0001:0002883c       ?CharFromPos@CEdit@@QBAHVCPoint@@@Z 0003983c f   uafxcwd:afxinl3.obj
 0001:000288e4       ??0CScrollBar@@QAA@XZ      000398e4 f   uafxcwd:afxinl3.obj
 0001:00028928       ?GetScrollPos@CScrollBar@@QBAHXZ 00039928 f   uafxcwd:afxinl3.obj
 0001:000289b0       ?SetScrollPos@CScrollBar@@QAAHHH@Z 000399b0 f   uafxcwd:afxinl3.obj
 0001:00028a40       ?GetScrollRange@CScrollBar@@QBAXPAH0@Z 00039a40 f   uafxcwd:afxinl3.obj
 0001:00028ac0       ?SetScrollRange@CScrollBar@@QAAXHHH@Z 00039ac0 f   uafxcwd:afxinl3.obj
 0001:00028b48       ?ShowScrollBar@CScrollBar@@QAAXH@Z 00039b48 f   uafxcwd:afxinl3.obj
 0001:00028bdc       ?SetScrollInfo@CScrollBar@@QAAHPAUtagSCROLLINFO@@H@Z 00039bdc f   uafxcwd:afxinl3.obj
 0001:00028c1c       ?GetScrollInfo@CScrollBar@@QAAHPAUtagSCROLLINFO@@I@Z 00039c1c f   uafxcwd:afxinl3.obj
 0001:00028c5c       ?GetScrollLimit@CScrollBar@@QAAHXZ 00039c5c f   uafxcwd:afxinl3.obj
 0001:00028c94       ?GetDocument@CView@@QBAPAVCDocument@@XZ 00039c94 f   uafxcwd:afxinl3.obj
 0001:00028cf8       ?GetTotalSize@CScrollView@@QBA?AVCSize@@XZ 00039cf8 f   uafxcwd:afxinl3.obj
 0001:00028d68       ?GetTitle@CDocument@@QBAABV?$CStringT@_WV?$StrTraitMFC@_WV?$ChTraitsOS@_W@ATL@@@@@ATL@@XZ 00039d68 f   uafxcwd:afxinl3.obj
 0001:00028dc8       ?GetPathName@CDocument@@QBAABV?$CStringT@_WV?$StrTraitMFC@_WV?$ChTraitsOS@_W@ATL@@@@@ATL@@XZ 00039dc8 f   uafxcwd:afxinl3.obj
 0001:00028e28       ?GetDocTemplate@CDocument@@QBAPAVCDocTemplate@@XZ 00039e28 f   uafxcwd:afxinl3.obj
 0001:00028e8c       ?IsModified@CDocument@@UAAHXZ 00039e8c f   uafxcwd:afxinl3.obj
 0001:00028ef0       ?SetModifiedFlag@CDocument@@UAAXH@Z 00039ef0 f   uafxcwd:afxinl3.obj
 0001:00028f50       ??BCWinThread@@QBAPAXXZ    00039f50 f   uafxcwd:afxinl3.obj
 0001:00028fa0       ?SetThreadPriority@CWinThread@@QAAHH@Z 00039fa0 f   uafxcwd:afxinl3.obj
 0001:0002901c       ?GetThreadPriority@CWinThread@@QAAHXZ 0003a01c f   uafxcwd:afxinl3.obj
 0001:00029094       ?ResumeThread@CWinThread@@QAAKXZ 0003a094 f   uafxcwd:afxinl3.obj
 0001:0002910c       ?SuspendThread@CWinThread@@QAAKXZ 0003a10c f   uafxcwd:afxinl3.obj
 0001:00029184       ?PostThreadMessageW@CWinThread@@QAAHIIJ@Z 0003a184 f   uafxcwd:afxinl3.obj
 0001:00029208       ?LoadCursorW@CWinApp@@QBAPAUHICON__@@PB_W@Z 0003a208 f   uafxcwd:afxinl3.obj
 0001:00029248       ?LoadCursorW@CWinApp@@QBAPAUHICON__@@I@Z 0003a248 f   uafxcwd:afxinl3.obj
 0001:00029294       ?LoadStandardCursor@CWinApp@@QBAPAUHICON__@@PB_W@Z 0003a294 f   uafxcwd:afxinl3.obj
 0001:000292cc       ?LoadOEMCursor@CWinApp@@QBAPAUHICON__@@I@Z 0003a2cc f   uafxcwd:afxinl3.obj
 0001:00029310       ?LoadIconW@CWinApp@@QBAPAUHICON__@@PB_W@Z 0003a310 f   uafxcwd:afxinl3.obj
 0001:00029350       ?LoadIconW@CWinApp@@QBAPAUHICON__@@I@Z 0003a350 f   uafxcwd:afxinl3.obj
 0001:0002939c       ?LoadStandardIcon@CWinApp@@QBAPAUHICON__@@PB_W@Z 0003a39c f   uafxcwd:afxinl3.obj
 0001:000293d4       ?LoadOEMIcon@CWinApp@@QBAPAUHICON__@@I@Z 0003a3d4 f   uafxcwd:afxinl3.obj
 0001:00029418       ?Enable3dControls@CWinApp@@IAAHXZ 0003a418 f   uafxcwd:afxinl3.obj
 0001:00029440       ?Enable3dControlsStatic@CWinApp@@IAAHXZ 0003a440 f   uafxcwd:afxinl3.obj
 0001:00029468       ?SetDialogBkColor@CWinApp@@IAAXKK@Z 0003a468 f   uafxcwd:afxinl3.obj
 0001:0002947c       ??0CWaitCursor@@QAA@XZ     0003a47c f   uafxcwd:afxinl3.obj
 0001:000294bc       ??1CWaitCursor@@QAA@XZ     0003a4bc f   uafxcwd:afxinl3.obj
 0001:000296c8       ?Restore@CWaitCursor@@QAAXXZ 0003a6c8 f   uafxcwd:afxinl3.obj
 0001:000296f4       ?GetSystemMenu@@YAPAUHMENU__@@PAUHWND__@@H@Z 0003a6f4 f i uafxcwd:afxinl3.obj
 0001:0002971c       ?IsIconic@ATL@@YAHPAUHWND__@@@Z 0003a71c f i uafxcwd:afxinl3.obj
 0001:00029770       ?GetTopWindow@ATL@@YAPAUHWND__@@PAU2@@Z 0003a770 f i uafxcwd:afxinl3.obj
 0001:000297a8       ?GetNextWindow@ATL@@YAPAUHWND__@@PAU2@I@Z 0003a7a8 f i uafxcwd:afxinl3.obj
 0001:00029804       ??_ECStatic@@UAAPAXI@Z     0003a804 f i uafxcwd:afxinl3.obj
 0001:00029804       ??_GCStatic@@UAAPAXI@Z     0003a804 f i uafxcwd:afxinl3.obj
 0001:00029848       ??_GCButton@@UAAPAXI@Z     0003a848 f i uafxcwd:afxinl3.obj
 0001:00029848       ??_ECButton@@UAAPAXI@Z     0003a848 f i uafxcwd:afxinl3.obj
 0001:0002988c       ??_ECListBox@@UAAPAXI@Z    0003a88c f i uafxcwd:afxinl3.obj
 0001:0002988c       ??_GCListBox@@UAAPAXI@Z    0003a88c f i uafxcwd:afxinl3.obj
 0001:000298d0       ??_ECComboBox@@UAAPAXI@Z   0003a8d0 f i uafxcwd:afxinl3.obj
 0001:000298d0       ??_GCComboBox@@UAAPAXI@Z   0003a8d0 f i uafxcwd:afxinl3.obj
 0001:00029914       ??_GCEdit@@UAAPAXI@Z       0003a914 f i uafxcwd:afxinl3.obj
 0001:00029914       ??_ECEdit@@UAAPAXI@Z       0003a914 f i uafxcwd:afxinl3.obj
 0001:00029958       ??_ECScrollBar@@UAAPAXI@Z  0003a958 f i uafxcwd:afxinl3.obj
 0001:00029958       ??_GCScrollBar@@UAAPAXI@Z  0003a958 f i uafxcwd:afxinl3.obj
 0001:0002999c       ?GetScrollPos@ATL@@YAHPAUHWND__@@H@Z 0003a99c f i uafxcwd:afxinl3.obj
 0001:00029a10       ?GetScrollRange@ATL@@YAHPAUHWND__@@HPAH1@Z 0003aa10 f i uafxcwd:afxinl3.obj
 0001:00029a9c       ?GetMenu@@YAPAUHMENU__@@PAUHWND__@@@Z 0003aa9c f i uafxcwd:afxinl3.obj
 0001:00029b00       ?SetMenu@@YAHPAUHWND__@@PAUHMENU__@@@Z 0003ab00 f i uafxcwd:afxinl3.obj
 0001:00029b64       ?AddTail@?$CList@PAXPAX@@QAAPAU__POSITION@@PAX@Z 0003ab64 f i uafxcwd:afxinl3.obj
 0001:00029c24       ?NewNode@?$CList@PAXPAX@@IAAPAUCNode@1@PAU21@0@Z 0003ac24 f i uafxcwd:afxinl3.obj
 0001:00029e50       ?data@CPlex@@QAAPAXXZ      0003ae50 f i uafxcwd:afxinl3.obj
 0001:00029e7c       ?AfxGetApp@@YAPAVCWinApp@@XZ 0003ae7c f   uafxcwd:afxinl2.obj
 0001:00029eac       ?AfxGetInstanceHandle@@YAPAUHINSTANCE__@@XZ 0003aeac f   uafxcwd:afxinl2.obj
 0001:00029f1c       ?AfxGetResourceHandle@@YAPAUHINSTANCE__@@XZ 0003af1c f   uafxcwd:afxinl2.obj
 0001:00029f8c       ?AfxSetResourceHandle@@YAXPAUHINSTANCE__@@@Z 0003af8c f   uafxcwd:afxinl2.obj
 0001:00029ff0       ?AfxGetAppName@@YAPB_WXZ   0003aff0 f   uafxcwd:afxinl2.obj
 0001:0002a060       ?AfxGetMainWnd@@YAPAVCWnd@@XZ 0003b060 f   uafxcwd:afxinl2.obj
 0001:0002a0d0       ??1AFX_MAINTAIN_STATE2@@QAA@XZ 0003b0d0 f   uafxcwd:afxinl2.obj
 0001:0002a0e4       ??6@YAAAVCArchive@@AAV0@UtagSIZE@@@Z 0003b0e4 f   uafxcwd:afxinl2.obj
 0001:0002a11c       ??6@YAAAVCArchive@@AAV0@UtagPOINT@@@Z 0003b11c f   uafxcwd:afxinl2.obj
 0001:0002a154       ??6@YAAAVCArchive@@AAV0@ABUtagRECT@@@Z 0003b154 f   uafxcwd:afxinl2.obj
 0001:0002a18c       ??5@YAAAVCArchive@@AAV0@AAUtagSIZE@@@Z 0003b18c f   uafxcwd:afxinl2.obj
 0001:0002a1c4       ??5@YAAAVCArchive@@AAV0@AAUtagPOINT@@@Z 0003b1c4 f   uafxcwd:afxinl2.obj
 0001:0002a1fc       ??5@YAAAVCArchive@@AAV0@AAUtagRECT@@@Z 0003b1fc f   uafxcwd:afxinl2.obj
 0001:0002a234       ??0CResourceException@@QAA@XZ 0003b234 f   uafxcwd:afxinl2.obj
 0001:0002a278       ??0CResourceException@@QAA@HI@Z 0003b278 f   uafxcwd:afxinl2.obj
 0001:0002a2d0       ??1CResourceException@@UAA@XZ 0003b2d0 f   uafxcwd:afxinl2.obj
 0001:0002a2fc       ??0CUserException@@QAA@XZ  0003b2fc f   uafxcwd:afxinl2.obj
 0001:0002a340       ??0CUserException@@QAA@HI@Z 0003b340 f   uafxcwd:afxinl2.obj
 0001:0002a398       ??1CUserException@@UAA@XZ  0003b398 f   uafxcwd:afxinl2.obj
 0001:0002a3c4       ??BCGdiObject@@QBAPAXXZ    0003b3c4 f   uafxcwd:afxinl2.obj
 0001:0002a414       ?GetSafeHandle@CGdiObject@@QBAPAXXZ 0003b414 f   uafxcwd:afxinl2.obj
 0001:0002a464       ??0CGdiObject@@QAA@XZ      0003b464 f   uafxcwd:afxinl2.obj
 0001:0002a4c0       ??1CGdiObject@@UAA@XZ      0003b4c0 f   uafxcwd:afxinl2.obj
 0001:0002a510       ?GetObjectW@CGdiObject@@QBAHHPAX@Z 0003b510 f   uafxcwd:afxinl2.obj
 0001:0002a58c       ?GetObject@CGdiObject@@QBAHHPAX@Z 0003b58c f   uafxcwd:afxinl2.obj
 0001:0002a5c8       ?CreateStockObject@CGdiObject@@QAAHH@Z 0003b5c8 f   uafxcwd:afxinl2.obj
 0001:0002a634       ?GetObjectType@CGdiObject@@QBAIXZ 0003b634 f   uafxcwd:afxinl2.obj
 0001:0002a670       ??8CGdiObject@@QBAHABV0@@Z 0003b670 f   uafxcwd:afxinl2.obj
 0001:0002a6d0       ??9CGdiObject@@QBAHABV0@@Z 0003b6d0 f   uafxcwd:afxinl2.obj
 0001:0002a730       ??BCPen@@QBAPAUHPEN__@@XZ  0003b730 f   uafxcwd:afxinl2.obj
 0001:0002a780       ?FromHandle@CPen@@SAPAV1@PAUHPEN__@@@Z 0003b780 f   uafxcwd:afxinl2.obj
 0001:0002a7b4       ??0CPen@@QAA@XZ            0003b7b4 f   uafxcwd:afxinl2.obj
 0001:0002a7f8       ??1CPen@@UAA@XZ            0003b7f8 f   uafxcwd:afxinl2.obj
 0001:0002a824       ?CreatePen@CPen@@QAAHHHK@Z 0003b824 f   uafxcwd:afxinl2.obj
 0001:0002a870       ?CreatePenIndirect@CPen@@QAAHPAUtagLOGPEN@@@Z 0003b870 f   uafxcwd:afxinl2.obj
 0001:0002a8b4       ?GetLogPen@CPen@@QAAHPAUtagLOGPEN@@@Z 0003b8b4 f   uafxcwd:afxinl2.obj
 0001:0002a930       ??BCBrush@@QBAPAUHBRUSH__@@XZ 0003b930 f   uafxcwd:afxinl2.obj
 0001:0002a980       ?FromHandle@CBrush@@SAPAV1@PAUHBRUSH__@@@Z 0003b980 f   uafxcwd:afxinl2.obj
 0001:0002a9b4       ??0CBrush@@QAA@XZ          0003b9b4 f   uafxcwd:afxinl2.obj
 0001:0002a9f8       ??1CBrush@@UAA@XZ          0003b9f8 f   uafxcwd:afxinl2.obj
 0001:0002aa24       ?CreateSolidBrush@CBrush@@QAAHK@Z 0003ba24 f   uafxcwd:afxinl2.obj
 0001:0002aa68       ?CreateBrushIndirect@CBrush@@QAAHPBUtagLOGBRUSH@@@Z 0003ba68 f   uafxcwd:afxinl2.obj
 0001:0002aaac       ?CreatePatternBrush@CBrush@@QAAHPAVCBitmap@@@Z 0003baac f   uafxcwd:afxinl2.obj
 0001:0002aafc       ?CreateDIBPatternBrush@CBrush@@QAAHPBXI@Z 0003bafc f   uafxcwd:afxinl2.obj
 0001:0002ab44       ?CreateSysColorBrush@CBrush@@QAAHH@Z 0003bb44 f   uafxcwd:afxinl2.obj
 0001:0002ab88       ?GetLogBrush@CBrush@@QAAHPAUtagLOGBRUSH@@@Z 0003bb88 f   uafxcwd:afxinl2.obj
 0001:0002ac04       ??BCFont@@QBAPAUHFONT__@@XZ 0003bc04 f   uafxcwd:afxinl2.obj
 0001:0002ac54       ?FromHandle@CFont@@SAPAV1@PAUHFONT__@@@Z 0003bc54 f   uafxcwd:afxinl2.obj
 0001:0002ac88       ??0CFont@@QAA@XZ           0003bc88 f   uafxcwd:afxinl2.obj
 0001:0002accc       ??1CFont@@UAA@XZ           0003bccc f   uafxcwd:afxinl2.obj
 0001:0002acf8       ?CreateFontIndirectW@CFont@@QAAHPBUtagLOGFONTW@@@Z 0003bcf8 f   uafxcwd:afxinl2.obj
 0001:0002ad3c       ?CreateFont@CFont@@QAAHHHHHHEEEEEEEEPB_W@Z 0003bd3c f   uafxcwd:afxinl2.obj
 0001:0002addc       ?GetLogFont@CFont@@QAAHPAUtagLOGFONTW@@@Z 0003bddc f   uafxcwd:afxinl2.obj
 0001:0002ae58       ??BCBitmap@@QBAPAUHBITMAP__@@XZ 0003be58 f   uafxcwd:afxinl2.obj
 0001:0002aea8       ?FromHandle@CBitmap@@SAPAV1@PAUHBITMAP__@@@Z 0003bea8 f   uafxcwd:afxinl2.obj
 0001:0002aedc       ??0CBitmap@@QAA@XZ         0003bedc f   uafxcwd:afxinl2.obj
 0001:0002af34       ??1CBitmap@@UAA@XZ         0003bf34 f   uafxcwd:afxinl2.obj
 0001:0002af60       ?CreateBitmap@CBitmap@@QAAHHHIIPBX@Z 0003bf60 f   uafxcwd:afxinl2.obj
 0001:0002afb8       ?LoadBitmapW@CBitmap@@QAAHPB_W@Z 0003bfb8 f   uafxcwd:afxinl2.obj
 0001:0002b008       ?SetBitmapDimension@CBitmap@@QAA?AVCSize@@HH@Z 0003c008 f   uafxcwd:afxinl2.obj
 0001:0002b074       ?GetBitmapDimension@CBitmap@@QBA?AVCSize@@XZ 0003c074 f   uafxcwd:afxinl2.obj
 0001:0002b0b0       ?LoadBitmapW@CBitmap@@QAAHI@Z 0003c0b0 f   uafxcwd:afxinl2.obj
 0001:0002b10c       ?LoadOEMBitmap@CBitmap@@QAAHI@Z 0003c10c f   uafxcwd:afxinl2.obj
 0001:0002b160       ?CreateCompatibleBitmap@CBitmap@@QAAHPAVCDC@@HH@Z 0003c160 f   uafxcwd:afxinl2.obj
 0001:0002b1b4       ?GetBitmap@CBitmap@@QAAHPAUtagBITMAP@@@Z 0003c1b4 f   uafxcwd:afxinl2.obj
 0001:0002b234       ??BCPalette@@QBAPAUHPALETTE__@@XZ 0003c234 f   uafxcwd:afxinl2.obj
 0001:0002b284       ?FromHandle@CPalette@@SAPAV1@PAUHPALETTE__@@@Z 0003c284 f   uafxcwd:afxinl2.obj
 0001:0002b2b8       ??0CPalette@@QAA@XZ        0003c2b8 f   uafxcwd:afxinl2.obj
 0001:0002b2fc       ??1CPalette@@UAA@XZ        0003c2fc f   uafxcwd:afxinl2.obj
 0001:0002b328       ?CreatePalette@CPalette@@QAAHPAUtagLOGPALETTE@@@Z 0003c328 f   uafxcwd:afxinl2.obj
 0001:0002b36c       ?GetPaletteEntries@CPalette@@QBAIIIPAUtagPALETTEENTRY@@@Z 0003c36c f   uafxcwd:afxinl2.obj
 0001:0002b3f0       ?SetPaletteEntries@CPalette@@QAAIIIPAUtagPALETTEENTRY@@@Z 0003c3f0 f   uafxcwd:afxinl2.obj
 0001:0002b474       ?GetNearestPaletteIndex@CPalette@@QBAIK@Z 0003c474 f   uafxcwd:afxinl2.obj
 0001:0002b4f0       ?GetEntryCount@CPalette@@QAAHXZ 0003c4f0 f   uafxcwd:afxinl2.obj
 0001:0002b56c       ??BCRgn@@QBAPAUHRGN__@@XZ  0003c56c f   uafxcwd:afxinl2.obj
 0001:0002b5bc       ?FromHandle@CRgn@@SAPAV1@PAUHRGN__@@@Z 0003c5bc f   uafxcwd:afxinl2.obj
 0001:0002b5f0       ??0CRgn@@QAA@XZ            0003c5f0 f   uafxcwd:afxinl2.obj
 0001:0002b634       ??1CRgn@@UAA@XZ            0003c634 f   uafxcwd:afxinl2.obj
 0001:0002b660       ?CreateRectRgn@CRgn@@QAAHHHHH@Z 0003c660 f   uafxcwd:afxinl2.obj
 0001:0002b6b0       ?CreateRectRgnIndirect@CRgn@@QAAHPBUtagRECT@@@Z 0003c6b0 f   uafxcwd:afxinl2.obj
 0001:0002b6f4       ?CreateFromData@CRgn@@QAAHPBUtagXFORM@@HPBU_RGNDATA@@@Z 0003c6f4 f   uafxcwd:afxinl2.obj
 0001:0002b740       ?GetRegionData@CRgn@@QBAHPAU_RGNDATA@@H@Z 0003c740 f   uafxcwd:afxinl2.obj
 0001:0002b7c0       ?SetRectRgn@CRgn@@QAAXHHHH@Z 0003c7c0 f   uafxcwd:afxinl2.obj
 0001:0002b838       ?SetRectRgn@CRgn@@QAAXPBUtagRECT@@@Z 0003c838 f   uafxcwd:afxinl2.obj
 0001:0002b8d0       ?CombineRgn@CRgn@@QAAHPBV1@0H@Z 0003c8d0 f   uafxcwd:afxinl2.obj
 0001:0002b96c       ?CopyRgn@CRgn@@QAAHPBV1@@Z 0003c96c f   uafxcwd:afxinl2.obj
 0001:0002b9f8       ?EqualRgn@CRgn@@QBAHPBV1@@Z 0003c9f8 f   uafxcwd:afxinl2.obj
 0001:0002ba80       ?OffsetRgn@CRgn@@QAAHHH@Z  0003ca80 f   uafxcwd:afxinl2.obj
 0001:0002bafc       ?OffsetRgn@CRgn@@QAAHUtagPOINT@@@Z 0003cafc f   uafxcwd:afxinl2.obj
 0001:0002bb7c       ?GetRgnBox@CRgn@@QBAHPAUtagRECT@@@Z 0003cb7c f   uafxcwd:afxinl2.obj
 0001:0002bbf4       ?PtInRegion@CRgn@@QBAHHH@Z 0003cbf4 f   uafxcwd:afxinl2.obj
 0001:0002bc74       ?PtInRegion@CRgn@@QBAHUtagPOINT@@@Z 0003cc74 f   uafxcwd:afxinl2.obj
 0001:0002bcf0       ?RectInRegion@CRgn@@QBAHPBUtagRECT@@@Z 0003ccf0 f   uafxcwd:afxinl2.obj
 0001:0002bd6c       ??BCDC@@QBAPAUHDC__@@XZ    0003cd6c f   uafxcwd:afxinl2.obj
 0001:0002bdbc       ?GetSafeHdc@CDC@@QBAPAUHDC__@@XZ 0003cdbc f   uafxcwd:afxinl2.obj
 0001:0002be0c       ?IsPrinting@CDC@@QBAHXZ    0003ce0c f   uafxcwd:afxinl2.obj
 0001:0002be3c       ?CreateDCW@CDC@@QAAHPB_W00PBX@Z 0003ce3c f   uafxcwd:afxinl2.obj
 0001:0002be8c       ?CreateCompatibleDC@CDC@@QAAHPAV1@@Z 0003ce8c f   uafxcwd:afxinl2.obj
 0001:0002bedc       ?GetDeviceCaps@CDC@@QBAHH@Z 0003cedc f   uafxcwd:afxinl2.obj
 0001:0002bf54       ?SetBrushOrg@CDC@@QAA?AVCPoint@@HH@Z 0003cf54 f   uafxcwd:afxinl2.obj
 0001:0002c018       ?SetBrushOrg@CDC@@QAA?AVCPoint@@UtagPOINT@@@Z 0003d018 f   uafxcwd:afxinl2.obj
 0001:0002c0dc       ?SelectObject@CDC@@QAAPAVCBitmap@@PAV2@@Z 0003d0dc f   uafxcwd:afxinl2.obj
 0001:0002c164       ?SelectObject@CDC@@QAAPAVCGdiObject@@PAV2@@Z 0003d164 f   uafxcwd:afxinl2.obj
 0001:0002c1ec       ?SelectObject@CDC@@QAAPAXPAX@Z 0003d1ec f   uafxcwd:afxinl2.obj
 0001:0002c294       ?GetNearestColor@CDC@@QBAKK@Z 0003d294 f   uafxcwd:afxinl2.obj
 0001:0002c30c       ?RealizePalette@CDC@@QAAIXZ 0003d30c f   uafxcwd:afxinl2.obj
 0001:0002c384       ?GetBkColor@CDC@@QBAKXZ    0003d384 f   uafxcwd:afxinl2.obj
 0001:0002c3f8       ?GetBkMode@CDC@@QBAHXZ     0003d3f8 f   uafxcwd:afxinl2.obj
 0001:0002c470       ?GetTextColor@CDC@@QBAKXZ  0003d470 f   uafxcwd:afxinl2.obj
 0001:0002c4e4       ?GetMapMode@CDC@@QBAHXZ    0003d4e4 f   uafxcwd:afxinl2.obj
 0001:0002c548       ?GetViewportOrg@CDC@@QBA?AVCPoint@@XZ 0003d548 f   uafxcwd:afxinl2.obj
 0001:0002c604       ?GetViewportExt@CDC@@QBA?AVCSize@@XZ 0003d604 f   uafxcwd:afxinl2.obj
 0001:0002c6c4       ?GetWindowOrg@CDC@@QBA?AVCPoint@@XZ 0003d6c4 f   uafxcwd:afxinl2.obj
 0001:0002c780       ?GetWindowExt@CDC@@QBA?AVCSize@@XZ 0003d780 f   uafxcwd:afxinl2.obj
 0001:0002c840       ?DPtoLP@CDC@@QBAXPAUtagPOINT@@H@Z 0003d840 f   uafxcwd:afxinl2.obj
 0001:0002c8e0       ?DPtoLP@CDC@@QBAXPAUtagRECT@@@Z 0003d8e0 f   uafxcwd:afxinl2.obj
 0001:0002c988       ?LPtoDP@CDC@@QBAXPAUtagPOINT@@H@Z 0003d988 f   uafxcwd:afxinl2.obj
 0001:0002ca28       ?LPtoDP@CDC@@QBAXPAUtagRECT@@@Z 0003da28 f   uafxcwd:afxinl2.obj
 0001:0002cad0       ?FillRgn@CDC@@QAAHPAVCRgn@@PAVCBrush@@@Z 0003dad0 f   uafxcwd:afxinl2.obj
 0001:0002cb68       ?RectVisible@CDC@@UBAHPBUtagRECT@@@Z 0003db68 f   uafxcwd:afxinl2.obj
 0001:0002cbe0       ?GetCurrentPosition@CDC@@QBA?AVCPoint@@XZ 0003dbe0 f   uafxcwd:afxinl2.obj
 0001:0002cca0       ?MoveTo@CDC@@QAA?AVCPoint@@UtagPOINT@@@Z 0003dca0 f   uafxcwd:afxinl2.obj
 0001:0002cd18       ?LineTo@CDC@@QAAHUtagPOINT@@@Z 0003dd18 f   uafxcwd:afxinl2.obj
 0001:0002cd8c       ?Polyline@CDC@@QAAHPBUtagPOINT@@H@Z 0003dd8c f   uafxcwd:afxinl2.obj
 0001:0002ce0c       ?Polyline@CDC@@QAAHPBUtagPOINT@@HH@Z 0003de0c f   uafxcwd:afxinl2.obj
 0001:0002ce90       ?FillRect@CDC@@QAAXPBUtagRECT@@PAVCBrush@@@Z 0003de90 f   uafxcwd:afxinl2.obj
 0001:0002cf08       ?FrameRect@CDC@@QAAXPBUtagRECT@@PAVCBrush@@@Z 0003df08 f   uafxcwd:afxinl2.obj
 0001:0002cf84       ?InvertRect@CDC@@QAAXPBUtagRECT@@@Z 0003df84 f   uafxcwd:afxinl2.obj
 0001:0002cfec       ?DrawIcon@CDC@@QAAHHHPAUHICON__@@@Z 0003dfec f   uafxcwd:afxinl2.obj
 0001:0002d070       ?DrawIcon@CDC@@QAAHUtagPOINT@@PAUHICON__@@@Z 0003e070 f   uafxcwd:afxinl2.obj
 0001:0002d0f0       ?DrawEdge@CDC@@QAAHPAUtagRECT@@II@Z 0003e0f0 f   uafxcwd:afxinl2.obj
 0001:0002d170       ?DrawFrameControl@CDC@@QAAHPAUtagRECT@@II@Z 0003e170 f   uafxcwd:afxinl2.obj
 0001:0002d1f4       ?DrawFocusRect@CDC@@QAAXPBUtagRECT@@@Z 0003e1f4 f   uafxcwd:afxinl2.obj
 0001:0002d260       ?Ellipse@CDC@@QAAHHHHH@Z   0003e260 f   uafxcwd:afxinl2.obj
 0001:0002d2e8       ?Ellipse@CDC@@QAAHPBUtagRECT@@@Z 0003e2e8 f   uafxcwd:afxinl2.obj
 0001:0002d390       ?Polygon@CDC@@QAAHPBUtagPOINT@@H@Z 0003e390 f   uafxcwd:afxinl2.obj
 0001:0002d410       ?PolyPolygon@CDC@@QAAHPBUtagPOINT@@PBHH@Z 0003e410 f   uafxcwd:afxinl2.obj
 0001:0002d494       ?Rectangle@CDC@@QAAHHHHH@Z 0003e494 f   uafxcwd:afxinl2.obj
 0001:0002d56c       ?Rectangle@CDC@@QAAHPBUtagRECT@@@Z 0003e56c f   uafxcwd:afxinl2.obj
 0001:0002d614       ?RoundRect@CDC@@QAAHHHHHHH@Z 0003e614 f   uafxcwd:afxinl2.obj
 0001:0002d6b0       ?RoundRect@CDC@@QAAHPBUtagRECT@@UtagPOINT@@@Z 0003e6b0 f   uafxcwd:afxinl2.obj
 0001:0002d764       ?PatBlt@CDC@@QAAHHHHHK@Z   0003e764 f   uafxcwd:afxinl2.obj
 0001:0002d7f8       ?BitBlt@CDC@@QAAHHHHHPAV1@HHK@Z 0003e7f8 f   uafxcwd:afxinl2.obj
 0001:0002d8b0       ?StretchBlt@CDC@@QAAHHHHHPAV1@HHHHK@Z 0003e8b0 f   uafxcwd:afxinl2.obj
 0001:0002d978       ?GetPixel@CDC@@QBAKHH@Z    0003e978 f   uafxcwd:afxinl2.obj
 0001:0002d9f8       ?GetPixel@CDC@@QBAKUtagPOINT@@@Z 0003e9f8 f   uafxcwd:afxinl2.obj
 0001:0002da74       ?SetPixel@CDC@@QAAKHHK@Z   0003ea74 f   uafxcwd:afxinl2.obj
 0001:0002daf8       ?SetPixel@CDC@@QAAKUtagPOINT@@K@Z 0003eaf8 f   uafxcwd:afxinl2.obj
 0001:0002db78       ?ExtTextOutW@CDC@@UAAHHHIPBUtagRECT@@PB_WIPAH@Z 0003eb78 f   uafxcwd:afxinl2.obj
 0001:0002dc1c       ?ExtTextOutW@CDC@@QAAHHHIPBUtagRECT@@ABV?$CStringT@_WV?$StrTraitMFC@_WV?$ChTraitsOS@_W@ATL@@@@@ATL@@PAH@Z 0003ec1c f   uafxcwd:afxinl2.obj
 0001:0002dcd8       ?DrawTextW@CDC@@UAAHPB_WHPAUtagRECT@@I@Z 0003ecd8 f   uafxcwd:afxinl2.obj
 0001:0002dd64       ?DrawTextW@CDC@@QAAHABV?$CStringT@_WV?$StrTraitMFC@_WV?$ChTraitsOS@_W@ATL@@@@@ATL@@PAUtagRECT@@I@Z 0003ed64 f   uafxcwd:afxinl2.obj
 0001:0002de14       ?DrawText@CDC@@QAAHPB_WHPAUtagRECT@@I@Z 0003ee14 f   uafxcwd:afxinl2.obj
 0001:0002de70       ?DrawText@CDC@@QAAHABV?$CStringT@_WV?$StrTraitMFC@_WV?$ChTraitsOS@_W@ATL@@@@@ATL@@PAUtagRECT@@I@Z 0003ee70 f   uafxcwd:afxinl2.obj
 0001:0002deb0       ?GetTextExtent@CDC@@QBA?AVCSize@@PB_WH@Z 0003eeb0 f   uafxcwd:afxinl2.obj
 0001:0002df8c       ?GetTextExtent@CDC@@QBA?AVCSize@@ABV?$CStringT@_WV?$StrTraitMFC@_WV?$ChTraitsOS@_W@ATL@@@@@ATL@@@Z 0003ef8c f   uafxcwd:afxinl2.obj
 0001:0002e084       ?GetOutputTextExtent@CDC@@QBA?AVCSize@@PB_WH@Z 0003f084 f   uafxcwd:afxinl2.obj
 0001:0002e164       ?GetOutputTextExtent@CDC@@QBA?AVCSize@@ABV?$CStringT@_WV?$StrTraitMFC@_WV?$ChTraitsOS@_W@ATL@@@@@ATL@@@Z 0003f164 f   uafxcwd:afxinl2.obj
 0001:0002e258       ?GetTextAlign@CDC@@QBAIXZ  0003f258 f   uafxcwd:afxinl2.obj
 0001:0002e2d0       ?GetTextFaceW@CDC@@QBAHHPA_W@Z 0003f2d0 f   uafxcwd:afxinl2.obj
 0001:0002e350       ?GetTextFaceW@CDC@@QBAHAAV?$CStringT@_WV?$StrTraitMFC@_WV?$ChTraitsOS@_W@ATL@@@@@ATL@@@Z 0003f350 f   uafxcwd:afxinl2.obj
 0001:0002e3f4       ?GetTextMetricsW@CDC@@QBAHPAUtagTEXTMETRICW@@@Z 0003f3f4 f   uafxcwd:afxinl2.obj
 0001:0002e470       ?GetTextMetrics@CDC@@QBAHPAUtagTEXTMETRICW@@@Z 0003f470 f   uafxcwd:afxinl2.obj
 0001:0002e4a8       ?GetOutputTextMetrics@CDC@@QBAHPAUtagTEXTMETRICW@@@Z 0003f4a8 f   uafxcwd:afxinl2.obj
 0001:0002e520       ?ScrollDC@CDC@@QAAHHHPBUtagRECT@@0PAVCRgn@@PAU2@@Z 0003f520 f   uafxcwd:afxinl2.obj
 0001:0002e5c4       ?GetCharABCWidths@CDC@@QBAHIIPAU_ABC@@@Z 0003f5c4 f   uafxcwd:afxinl2.obj
 0001:0002e648       ?MaskBlt@CDC@@QAAHHHHHPAV1@HHAAVCBitmap@@HHK@Z 0003f648 f   uafxcwd:afxinl2.obj
 0001:0002e720       ?GetCurrentPen@CDC@@QBAPAVCPen@@XZ 0003f720 f   uafxcwd:afxinl2.obj
 0001:0002e7a8       ?GetCurrentBrush@CDC@@QBAPAVCBrush@@XZ 0003f7a8 f   uafxcwd:afxinl2.obj
 0001:0002e830       ?GetCurrentPalette@CDC@@QBAPAVCPalette@@XZ 0003f830 f   uafxcwd:afxinl2.obj
 0001:0002e8b8       ?GetCurrentFont@CDC@@QBAPAVCFont@@XZ 0003f8b8 f   uafxcwd:afxinl2.obj
 0001:0002e940       ?GetCurrentBitmap@CDC@@QBAPAVCBitmap@@XZ 0003f940 f   uafxcwd:afxinl2.obj
 0001:0002e9c8       ??0CMenu@@QAA@XZ           0003f9c8 f   uafxcwd:afxinl2.obj
 0001:0002ea24       ??1CMenu@@UAA@XZ           0003fa24 f   uafxcwd:afxinl2.obj
 0001:0002ea74       ?CreateMenu@CMenu@@QAAHXZ  0003fa74 f   uafxcwd:afxinl2.obj
 0001:0002eab4       ?CreatePopupMenu@CMenu@@QAAHXZ 0003fab4 f   uafxcwd:afxinl2.obj
 0001:0002eaf4       ??BCMenu@@QBAPAUHMENU__@@XZ 0003faf4 f   uafxcwd:afxinl2.obj
 0001:0002ebac       ??8CMenu@@QBAHABV0@@Z      0003fbac f   uafxcwd:afxinl2.obj
 0001:0002ec0c       ??9CMenu@@QBAHABV0@@Z      0003fc0c f   uafxcwd:afxinl2.obj
 0001:0002ec6c       ?GetSafeHmenu@CMenu@@QBAPAUHMENU__@@XZ 0003fc6c f   uafxcwd:afxinl2.obj
 0001:0002ed20       ?DeleteMenu@CMenu@@QAAHII@Z 0003fd20 f   uafxcwd:afxinl2.obj
 0001:0002edac       ?AppendMenuW@CMenu@@QAAHIIPB_W@Z 0003fdac f   uafxcwd:afxinl2.obj
 0001:0002ee3c       ?AppendMenuW@CMenu@@QAAHIIPBVCBitmap@@@Z 0003fe3c f   uafxcwd:afxinl2.obj
 0001:0002eed4       ?CheckMenuItem@CMenu@@QAAIII@Z 0003fed4 f   uafxcwd:afxinl2.obj
 0001:0002ef60       ?EnableMenuItem@CMenu@@QAAIII@Z 0003ff60 f   uafxcwd:afxinl2.obj
 0001:0002efec       ?GetMenuItemCount@CMenu@@QBAIXZ 0003ffec f   uafxcwd:afxinl2.obj
 0001:0002f070       ?GetMenuItemID@CMenu@@QBAIH@Z 00040070 f   uafxcwd:afxinl2.obj
 0001:0002f0f8       ?GetMenuState@CMenu@@QBAIII@Z 000400f8 f   uafxcwd:afxinl2.obj
 0001:0002f184       ?GetMenuStringW@CMenu@@QBAHIPA_WHI@Z 00040184 f   uafxcwd:afxinl2.obj
 0001:0002f21c       ?GetMenuItemInfoW@CMenu@@QAAHIPAUtagMENUITEMINFOW@@H@Z 0004021c f   uafxcwd:afxinl2.obj
 0001:0002f300       ?SetMenuItemInfoW@CMenu@@QAAHIPAUtagMENUITEMINFOW@@H@Z 00040300 f   uafxcwd:afxinl2.obj
 0001:0002f3e4       ?GetSubMenu@CMenu@@QBAPAV1@H@Z 000403e4 f   uafxcwd:afxinl2.obj
 0001:0002f478       ?InsertMenuW@CMenu@@QAAHIIIPB_W@Z 00040478 f   uafxcwd:afxinl2.obj
 0001:0002f510       ?InsertMenuW@CMenu@@QAAHIIIPBVCBitmap@@@Z 00040510 f   uafxcwd:afxinl2.obj
 0001:0002f5b4       ?ModifyMenuW@CMenu@@QAAHIIIPB_W@Z 000405b4 f   uafxcwd:afxinl2.obj
 0001:0002f64c       ?ModifyMenuW@CMenu@@QAAHIIIPBVCBitmap@@@Z 0004064c f   uafxcwd:afxinl2.obj
 0001:0002f6f0       ?RemoveMenu@CMenu@@QAAHII@Z 000406f0 f   uafxcwd:afxinl2.obj
 0001:0002f77c       ?LoadMenuW@CMenu@@QAAHPB_W@Z 0004077c f   uafxcwd:afxinl2.obj
 0001:0002f7cc       ?LoadMenuW@CMenu@@QAAHI@Z  000407cc f   uafxcwd:afxinl2.obj
 0001:0002f828       ?CheckMenuRadioItem@CMenu@@QAAHIIII@Z 00040828 f   uafxcwd:afxinl2.obj
 0001:0002f878       ?ContinueRouting@CCmdUI@@QAAXXZ 00040878 f   uafxcwd:afxinl2.obj
 0001:0002f89c       ??_ECResourceException@@UAAPAXI@Z 0004089c f i uafxcwd:afxinl2.obj
 0001:0002f89c       ??_GCResourceException@@UAAPAXI@Z 0004089c f i uafxcwd:afxinl2.obj
 0001:0002f8e0       ??_ECUserException@@UAAPAXI@Z 000408e0 f i uafxcwd:afxinl2.obj
 0001:0002f8e0       ??_GCUserException@@UAAPAXI@Z 000408e0 f i uafxcwd:afxinl2.obj
 0001:0002f924       ??_ECGdiObject@@UAAPAXI@Z  00040924 f i uafxcwd:afxinl2.obj
 0001:0002f924       ??_GCGdiObject@@UAAPAXI@Z  00040924 f i uafxcwd:afxinl2.obj
 0001:0002f968       ??_GCPen@@UAAPAXI@Z        00040968 f i uafxcwd:afxinl2.obj
 0001:0002f968       ??_ECPen@@UAAPAXI@Z        00040968 f i uafxcwd:afxinl2.obj
 0001:0002f9ac       ??_ECBrush@@UAAPAXI@Z      000409ac f i uafxcwd:afxinl2.obj
 0001:0002f9ac       ??_GCBrush@@UAAPAXI@Z      000409ac f i uafxcwd:afxinl2.obj
 0001:0002f9f0       ??_GCFont@@UAAPAXI@Z       000409f0 f i uafxcwd:afxinl2.obj
 0001:0002f9f0       ??_ECFont@@UAAPAXI@Z       000409f0 f i uafxcwd:afxinl2.obj
 0001:0002fa34       ??_ECBitmap@@UAAPAXI@Z     00040a34 f i uafxcwd:afxinl2.obj
 0001:0002fa34       ??_GCBitmap@@UAAPAXI@Z     00040a34 f i uafxcwd:afxinl2.obj
 0001:0002fa78       ??_GCPalette@@UAAPAXI@Z    00040a78 f i uafxcwd:afxinl2.obj
 0001:0002fa78       ??_ECPalette@@UAAPAXI@Z    00040a78 f i uafxcwd:afxinl2.obj
 0001:0002fabc       ??_ECRgn@@UAAPAXI@Z        00040abc f i uafxcwd:afxinl2.obj
 0001:0002fabc       ??_GCRgn@@UAAPAXI@Z        00040abc f i uafxcwd:afxinl2.obj
 0001:0002fb00       ?Polyline@DRA@@YAHPAUHDC__@@PBUtagPOINT@@HH@Z 00040b00 f i uafxcwd:afxinl2.obj
 0001:0002fe88       ?GetViewportOrgEx@ATL@@YAHPAUHDC__@@PAUtagPOINT@@@Z 00040e88 f i uafxcwd:afxinl2.obj
 0001:0002fee4       ?GetViewportExtEx@ATL@@YAHPAUHDC__@@PAUtagSIZE@@@Z 00040ee4 f i uafxcwd:afxinl2.obj
 0001:0002ff40       ?GetWindowOrgEx@ATL@@YAHPAUHDC__@@PAUtagPOINT@@@Z 00040f40 f i uafxcwd:afxinl2.obj
 0001:0002ff9c       ?GetWindowExtEx@ATL@@YAHPAUHDC__@@PAUtagSIZE@@@Z 00040f9c f i uafxcwd:afxinl2.obj
 0001:0002fff8       ?DPtoLP@ATL@@YAHPAUHDC__@@PAUtagPOINT@@H@Z 00040ff8 f i uafxcwd:afxinl2.obj
 0001:00030038       ?LPtoDP@ATL@@YAHPAUHDC__@@PAUtagPOINT@@H@Z 00041038 f i uafxcwd:afxinl2.obj
 0001:00030078       ?PolyPolygon@ATL@@YAHPAUHDC__@@PBUtagPOINT@@PBHH@Z 00041078 f i uafxcwd:afxinl2.obj
 0001:00030198       ?Rectangle@DRA@@YAHPAUHDC__@@HHHH@Z 00041198 f i uafxcwd:afxinl2.obj
 0001:000302a4       ?DrawIcon@ATL@@YAHPAUHDC__@@HHPAUHICON__@@@Z 000412a4 f i uafxcwd:afxinl2.obj
 0001:0003030c       ?CreateBrushIndirect@ATL@@YAPAUHBRUSH__@@PBUtagLOGBRUSH@@@Z 0004130c f i uafxcwd:afxinl2.obj
 0001:000303fc       ??_GCMenu@@UAAPAXI@Z       000413fc f i uafxcwd:afxinl2.obj
 0001:000303fc       ??_ECMenu@@UAAPAXI@Z       000413fc f i uafxcwd:afxinl2.obj
 0001:00030440       ?CreateFont@ATL@@YAPAUHFONT__@@HHHHHEEEEEEEEPB_W@Z 00041440 f i uafxcwd:afxinl2.obj
 0001:00030508       ?IsMenu@ATL@@YAHPAUHMENU__@@@Z 00041508 f i uafxcwd:afxinl2.obj
 0001:000305b4       ?FrameRect@ATL@@YAHPAUHDC__@@PBUtagRECT@@PAUHBRUSH__@@@Z 000415b4 f i uafxcwd:afxinl2.obj
 0001:000307d4       ?GetMenuItemCount@ATL@@YAHPAUHMENU__@@@Z 000417d4 f i uafxcwd:afxinl2.obj
 0001:00030880       ?GetMenuItemID@ATL@@YAIPAUHMENU__@@H@Z 00041880 f i uafxcwd:afxinl2.obj
 0001:00030904       ?GetMenuState@ATL@@YAIPAUHMENU__@@II@Z 00041904 f i uafxcwd:afxinl2.obj
 0001:00030988       ?IsByPosition@ATL@@YAHI@Z  00041988 f i uafxcwd:afxinl2.obj
 0001:000309d0       ?GetMenuStringW@ATL@@YAHPAUHMENU__@@IPA_WHI@Z 000419d0 f i uafxcwd:afxinl2.obj
 0001:00030aa8       ?ModifyMenuW@ATL@@YAHPAUHMENU__@@IIIPB_W@Z 00041aa8 f i uafxcwd:afxinl2.obj
 0001:00030bd0       ??0CWnd@@QAA@XZ            00041bd0 f   uafxcwd:wincore.obj
 0001:00030c94       ??0CWnd@@AAA@PAUHWND__@@@Z 00041c94 f   uafxcwd:wincore.obj
 0001:00030d58       ?_AfxModifyStyle@@YAHPAUHWND__@@HKKI@Z 00041d58 f   uafxcwd:wincore.obj
 0001:00030e4c       ?ModifyStyle@CWnd@@SAHPAUHWND__@@KKI@Z 00041e4c f   uafxcwd:wincore.obj
 0001:00030e94       ?ModifyStyleEx@CWnd@@SAHPAUHWND__@@KKI@Z 00041e94 f   uafxcwd:wincore.obj
 0001:00030edc       ?_AfxPreInitDialog@@YAXPAVCWnd@@PAUtagRECT@@PAK@Z 00041edc f   uafxcwd:wincore.obj
 0001:00030f7c       ?_AfxPostInitDialog@@YAXPAVCWnd@@ABUtagRECT@@K@Z 00041f7c f   uafxcwd:wincore.obj
 0001:00031090       ?_AfxHandleActivate@@YAXPAVCWnd@@I0@Z 00042090 f   uafxcwd:wincore.obj
 0001:00031198       ?_AfxHandleSetCursor@@YAHPAVCWnd@@II@Z 00042198 f   uafxcwd:wincore.obj
 0001:0003128c       ?AfxCallWndProc@@YAJPAVCWnd@@PAUHWND__@@IIJ@Z 0004228c f   uafxcwd:wincore.obj
 0001:00031614       ?GetCurrentMessage@CWnd@@KAPBUtagMSG@@XZ 00042614 f   uafxcwd:wincore.obj
 0001:0003167c       ?Default@CWnd@@IAAJXZ      0004267c f   uafxcwd:wincore.obj
 0001:00031708       ?afxMapHWND@@YAPAVCHandleMap@@H@Z 00042708 f   uafxcwd:wincore.obj
 0001:00031830       ?FromHandle@CWnd@@SAPAV1@PAUHWND__@@@Z 00042830 f   uafxcwd:wincore.obj
 0001:0003190c       ?FromHandlePermanent@CWnd@@SAPAV1@PAUHWND__@@@Z 0004290c f   uafxcwd:wincore.obj
 0001:000319c0       ?Attach@CWnd@@QAAHPAUHWND__@@@Z 000429c0 f   uafxcwd:wincore.obj
 0001:00031af0       ?Detach@CWnd@@QAAPAUHWND__@@XZ 00042af0 f   uafxcwd:wincore.obj
 0001:00031b88       ?PreSubclassWindow@CWnd@@UAAXXZ 00042b88 f   uafxcwd:wincore.obj
 0001:00031b9c       ?AfxNullWndProc@@YAJPAUHWND__@@IIJ@Z 00042b9c f   uafxcwd:wincore.obj
 0001:00031bc4       ?AfxWndProc@@YAJPAUHWND__@@IIJ@Z 00042bc4 f   uafxcwd:wincore.obj
 0001:00031d0c       ?AfxGetAfxWndProc@@YAP6AJPAUHWND__@@IIJ@ZXZ 00042d0c f   uafxcwd:wincore.obj
 0001:00031d30       ?_AfxCbtFilterHook@@YAJHIJ@Z 00042d30 f   uafxcwd:wincore.obj
 0001:00031f5c       ?AfxHookWindowCreate@@YAXPAVCWnd@@@Z 00042f5c f   uafxcwd:wincore.obj
 0001:00032064       ?AfxUnhookWindowCreate@@YAHXZ 00043064 f   uafxcwd:wincore.obj
 0001:000320cc       ?CreateEx@CWnd@@UAAHKPB_W0KABUtagRECT@@PAV1@IPAX@Z 000430cc f   uafxcwd:wincore.obj
 0001:000321a4       ?CreateEx@CWnd@@UAAHKPB_W0KHHHHPAUHWND__@@PAUHMENU__@@PAX@Z 000431a4 f   uafxcwd:wincore.obj
 0001:000325d8       ?PreCreateWindow@CWnd@@UAAHAAUtagCREATESTRUCTW@@@Z 000435d8 f   uafxcwd:wincore.obj
 0001:000326ac       ?PreCreateWindowEx@@YAHAAUtagCREATESTRUCTW@@@Z 000436ac f   uafxcwd:wincore.obj
 0001:000329c0       ?DefWindowProcEx@@YAJPAUHWND__@@IIJ@Z 000439c0 f   uafxcwd:wincore.obj
 0001:00032ad4       ?PostCreateWindowEx@@YAXAAUtagCREATESTRUCTW@@PAUHWND__@@PAUHMENU__@@@Z 00043ad4 f   uafxcwd:wincore.obj
 0001:00032c2c       ?Create@CWnd@@UAAHPB_W0KABUtagRECT@@PAV1@IPAUCCreateContext@@@Z 00043c2c f   uafxcwd:wincore.obj
 0001:00032d74       ??1CWnd@@UAA@XZ            00043d74 f   uafxcwd:wincore.obj
 0001:00032f18       ?OnDestroy@CWnd@@IAAXXZ    00043f18 f   uafxcwd:wincore.obj
 0001:00032fc8       ?OnNcDestroy@CWnd@@IAAXXZ  00043fc8 f   uafxcwd:wincore.obj
 0001:00033218       ?PostNcDestroy@CWnd@@MAAXXZ 00044218 f   uafxcwd:wincore.obj
 0001:0003322c       ?OnFinalRelease@CWnd@@UAAXXZ 0004422c f   uafxcwd:wincore.obj
 0001:00033290       ?AssertValid@CWnd@@UBAXXZ  00044290 f   uafxcwd:wincore.obj
 0001:0003351c       ?DestroyWindow@CWnd@@UAAHXZ 0004451c f   uafxcwd:wincore.obj
 0001:00033798       ?DefWindowProcW@CWnd@@MAAJIIJ@Z 00044798 f   uafxcwd:wincore.obj
 0001:000338b8       ?GetSuperWndProcAddr@CWnd@@MAAPAP6AJPAUHWND__@@IIJ@ZXZ 000448b8 f   uafxcwd:wincore.obj
 0001:000338e4       ?PreTranslateMessage@CWnd@@UAAHPAUtagMSG@@@Z 000448e4 f   uafxcwd:wincore.obj
 0001:0003390c       ?GetWindowTextW@CWnd@@QBAXAAV?$CStringT@_WV?$StrTraitMFC@_WV?$ChTraitsOS@_W@ATL@@@@@ATL@@@Z 0004490c f   uafxcwd:wincore.obj
 0001:00033a0c       ?GetDlgItemTextW@CWnd@@QBAHHAAV?$CStringT@_WV?$StrTraitMFC@_WV?$ChTraitsOS@_W@ATL@@@@@ATL@@@Z 00044a0c f   uafxcwd:wincore.obj
 0001:00033b50       ?OnDrawItem@CWnd@@IAAXHPAUtagDRAWITEMSTRUCT@@@Z 00044b50 f   uafxcwd:wincore.obj
 0001:00033bf8       ?OnCompareItem@CWnd@@IAAHHPAUtagCOMPAREITEMSTRUCT@@@Z 00044bf8 f   uafxcwd:wincore.obj
 0001:00033c5c       ?OnDeleteItem@CWnd@@IAAXHPAUtagDELETITEMSTRUCT@@@Z 00044c5c f   uafxcwd:wincore.obj
 0001:00033ca8       ?OnCharToItem@CWnd@@IAAHIPAVCListBox@@I@Z 00044ca8 f   uafxcwd:wincore.obj
 0001:00033d10       ?OnVKeyToItem@CWnd@@IAAHIPAVCListBox@@I@Z 00044d10 f   uafxcwd:wincore.obj
 0001:00033d78       ?TrackPopupMenu@CMenu@@QAAHIHHPAVCWnd@@PBUtagRECT@@@Z 00044d78 f   uafxcwd:wincore.obj
 0001:00033ea0       ?TrackPopupMenuEx@CMenu@@QAAHIHHPAVCWnd@@PAUtagTPMPARAMS@@@Z 00044ea0 f   uafxcwd:wincore.obj
 0001:00033fc8       ?_AfxFindPopupMenuFromID@@YAPAVCMenu@@PAV1@I@Z 00044fc8 f   uafxcwd:wincore.obj
 0001:00034138       ?OnMeasureItem@CWnd@@IAAXHPAUtagMEASUREITEMSTRUCT@@@Z 00045138 f   uafxcwd:wincore.obj
 0001:00034388       ?AfxRegisterClass@@YAHPAUtagWNDCLASSW@@@Z 00045388 f   uafxcwd:wincore.obj
 0001:00034560       ?AfxRegisterWndClass@@YAPB_WIPAUHICON__@@PAUHBRUSH__@@0@Z 00045560 f   uafxcwd:wincore.obj
 0001:00034710       ?OnNTCtlColor@CWnd@@IAAJIJ@Z 00045710 f   uafxcwd:wincore.obj
 0001:000347dc       ?GetMessageMap@CWnd@@MBAPBUAFX_MSGMAP@@XZ 000457dc f   uafxcwd:wincore.obj
 0001:0003480c       ?GetThisMessageMap@CWnd@@KAPBUAFX_MSGMAP@@XZ 0004580c f   uafxcwd:wincore.obj
 0001:00034828       ?AfxFindMessageEntry@@YAPBUAFX_MSGMAP_ENTRY@@PBU1@III@Z 00045828 f   uafxcwd:wincore.obj
 0001:000348dc       ?AfxResetMsgCache@@YAXXZ   000458dc f   uafxcwd:wincore.obj
 0001:000348fc       ?WindowProc@CWnd@@MAAJIIJ@Z 000458fc f   uafxcwd:wincore.obj
 0001:000349a8       ?OnWndMsg@CWnd@@MAAHIIJPAJ@Z 000459a8 f   uafxcwd:wincore.obj
 0001:00035dd8       ??0CTestCmdUI@@QAA@XZ      00046dd8 f   uafxcwd:wincore.obj
 0001:00035e28       ?Enable@CTestCmdUI@@UAAXH@Z 00046e28 f   uafxcwd:wincore.obj
 0001:00035e5c       ?SetCheck@CTestCmdUI@@UAAXH@Z 00046e5c f   uafxcwd:wincore.obj
 0001:00035e70       ?SetRadio@CTestCmdUI@@UAAXH@Z 00046e70 f   uafxcwd:wincore.obj
 0001:00035e84       ?SetText@CTestCmdUI@@UAAXPB_W@Z 00046e84 f   uafxcwd:wincore.obj
 0001:00035e98       ?OnCommand@CWnd@@MAAHIJ@Z  00046e98 f   uafxcwd:wincore.obj
 0001:0003611c       ?OnNotify@CWnd@@MAAHIJPAJ@Z 0004711c f   uafxcwd:wincore.obj
 0001:000362e0       ?GetParentFrame@CWnd@@QBAPAVCFrameWnd@@XZ 000472e0 f   uafxcwd:wincore.obj
 0001:000363b4       ?AfxGetParentOwner@@YAPAUHWND__@@PAU1@@Z 000473b4 f   uafxcwd:wincore.obj
 0001:0003646c       ?GetTopLevelParent@CWnd@@QBAPAV1@XZ 0004746c f   uafxcwd:wincore.obj
 0001:00036514       ?GetTopLevelOwner@CWnd@@QBAPAV1@XZ 00047514 f   uafxcwd:wincore.obj
 0001:000365c4       ?GetParentOwner@CWnd@@QBAPAV1@XZ 000475c4 f   uafxcwd:wincore.obj
 0001:0003668c       ?IsTopParentActive@CWnd@@QBAHXZ 0004768c f   uafxcwd:wincore.obj
 0001:00036754       ?GetTopLevelFrame@CWnd@@QBAPAVCFrameWnd@@XZ 00047754 f   uafxcwd:wincore.obj
 0001:00036838       ?GetSafeOwner@CWnd@@SAPAV1@PAV1@PAPAUHWND__@@@Z 00047838 f   uafxcwd:wincore.obj
 0001:00036890       ?MessageBoxW@CWnd@@QAAHPB_W0I@Z 00047890 f   uafxcwd:wincore.obj
 0001:00036900       ?GetDescendantWindow@CWnd@@SAPAV1@PAUHWND__@@HH@Z 00047900 f   uafxcwd:wincore.obj
 0001:00036a5c       ?SendMessageToDescendants@CWnd@@SAXPAUHWND__@@IIJHH@Z 00047a5c f   uafxcwd:wincore.obj
 0001:00036c64       ?GetScrollBarCtrl@CWnd@@UBAPAVCScrollBar@@H@Z 00047c64 f   uafxcwd:wincore.obj
 0001:00036c8c       ?SetScrollPos@CWnd@@QAAHHHH@Z 00047c8c f   uafxcwd:wincore.obj
 0001:00036d30       ?GetScrollPos@CWnd@@QBAHH@Z 00047d30 f   uafxcwd:wincore.obj
 0001:00036dc4       ?SetScrollRange@CWnd@@QAAXHHHH@Z 00047dc4 f   uafxcwd:wincore.obj
 0001:00036e54       ?GetScrollRange@CWnd@@QBAXHPAH0@Z 00047e54 f   uafxcwd:wincore.obj
 0001:00036ed8       ?EnableScrollBarCtrl@CWnd@@QAAXHH@Z 00047ed8 f   uafxcwd:wincore.obj
 0001:00036f7c       ?SetScrollInfo@CWnd@@QAAHHPAUtagSCROLLINFO@@H@Z 00047f7c f   uafxcwd:wincore.obj
 0001:00037064       ?GetScrollInfo@CWnd@@QAAHHPAUtagSCROLLINFO@@I@Z 00048064 f   uafxcwd:wincore.obj
 0001:0003715c       ?GetScrollLimit@CWnd@@QAAHH@Z 0004815c f   uafxcwd:wincore.obj
 0001:000371f0       ?ScrollWindow@CWnd@@QAAXHHPBUtagRECT@@0@Z 000481f0 f   uafxcwd:wincore.obj
 0001:000373cc       ?RepositionBars@CWnd@@QAAXIIIIPAUtagRECT@@PBU2@H@Z 000483cc f   uafxcwd:wincore.obj
 0001:00037824       ?AfxRepositionWindow@@YAXPAUAFX_SIZEPARENTPARAMS@@PAUHWND__@@PBUtagRECT@@@Z 00048824 f   uafxcwd:wincore.obj
 0001:00037a70       ?CalcWindowRect@CWnd@@UAAXPAUtagRECT@@I@Z 00048a70 f   uafxcwd:wincore.obj
 0001:00037ae4       ?WalkPreTranslateTree@CWnd@@SAHPAUHWND__@@PAUtagMSG@@@Z 00048ae4 f   uafxcwd:wincore.obj
 0001:00037c30       ?SendChildNotifyLastMsg@CWnd@@QAAHPAJ@Z 00048c30 f   uafxcwd:wincore.obj
 0001:00037cc4       ?ReflectLastMsg@CWnd@@KAHPAUHWND__@@PAJ@Z 00048cc4 f   uafxcwd:wincore.obj
 0001:00037ed8       ?OnChildNotify@CWnd@@MAAHIIJPAJ@Z 00048ed8 f   uafxcwd:wincore.obj
 0001:00037fb4       ?ReflectChildNotify@CWnd@@IAAHIIJPAJ@Z 00048fb4 f   uafxcwd:wincore.obj
 0001:00038238       ?OnSetFocus@CWnd@@IAAXPAV1@@Z 00049238 f   uafxcwd:wincore.obj
 0001:000382bc       ?OnActivateTopLevel@CWnd@@IAAJIJ@Z 000492bc f   uafxcwd:wincore.obj
 0001:000382e4       ?OnSysColorChange@CWnd@@IAAXXZ 000492e4 f   uafxcwd:wincore.obj
 0001:00038384       ?OnSettingChange@CWnd@@IAAXIPB_W@Z 00049384 f   uafxcwd:wincore.obj
 0001:000383fc       ?OnDisplayChange@CWnd@@IAAJIJ@Z 000493fc f   uafxcwd:wincore.obj
 0001:000384b8       ?GetWindowLessChildCount@CWnd@@QAAJXZ 000494b8 f   uafxcwd:wincore.obj
 0001:000385c4       ?GetWindowedChildCount@CWnd@@QAAJXZ 000495c4 f   uafxcwd:wincore.obj
 0001:00038644       ?OnHScroll@CWnd@@IAAXIIPAVCScrollBar@@@Z 00049644 f   uafxcwd:wincore.obj
 0001:00038694       ?OnVScroll@CWnd@@IAAXIIPAVCScrollBar@@@Z 00049694 f   uafxcwd:wincore.obj
 0001:000386ec       ?OnPaint@CWnd@@IAAXXZ      000496ec f   uafxcwd:wincore.obj
 0001:0003879c       ?OnCtlColor@CWnd@@IAAPAUHBRUSH__@@PAVCDC@@PAV1@I@Z 0004979c f   uafxcwd:wincore.obj
 0001:00038840       ?GrayCtlColor@CWnd@@SAHPAUHDC__@@PAUHWND__@@IPAUHBRUSH__@@K@Z 00049840 f   uafxcwd:wincore.obj
 0001:000389bc       ?UpdateData@CWnd@@QAAHH@Z  000499bc f   uafxcwd:wincore.obj
 0001:00038c68       ??0CDataExchange@@QAA@PAVCWnd@@H@Z 00049c68 f   uafxcwd:wincore.obj
 0001:00038cd4       ?CenterWindow@CWnd@@QAAXPAV1@@Z 00049cd4 f   uafxcwd:wincore.obj
 0001:00039148       ?CheckAutoCenter@CWnd@@UAAHXZ 0004a148 f   uafxcwd:wincore.obj
 0001:00039170       ?ExecuteDlgInit@CWnd@@QAAHPB_W@Z 0004a170 f   uafxcwd:wincore.obj
 0001:000392a4       ?ExecuteDlgInit@CWnd@@QAAHPAX@Z 0004a2a4 f   uafxcwd:wincore.obj
 0001:000396cc       ?UpdateDialogControls@CWnd@@QAAXPAVCCmdTarget@@H@Z 0004a6cc f   uafxcwd:wincore.obj
 0001:000398c8       ?PreTranslateInput@CWnd@@QAAHPAUtagMSG@@@Z 0004a8c8 f   uafxcwd:wincore.obj
 0001:000399ac       ?RunModalLoop@CWnd@@QAAHK@Z 0004a9ac f   uafxcwd:wincore.obj
 0001:00039e44       ?ContinueModal@CWnd@@UAAHXZ 0004ae44 f   uafxcwd:wincore.obj
 0001:00039e78       ?EndModalLoop@CWnd@@UAAXH@Z 0004ae78 f   uafxcwd:wincore.obj
 0001:00039f34       ?SetOccDialogInfo@CWnd@@MAAHPAU_AFX_OCC_DIALOG_INFO@@@Z 0004af34 f   uafxcwd:wincore.obj
 0001:00039f84       ?GetOccDialogInfo@CWnd@@MAAPAU_AFX_OCC_DIALOG_INFO@@XZ 0004af84 f   uafxcwd:wincore.obj
 0001:00039fac       ?_AfxRegisterWithIcon@@YAHPAUtagWNDCLASSW@@PB_WI@Z 0004afac f   uafxcwd:wincore.obj
 0001:0003a000       ?_AfxInitCommonControls@@YAJPAUtagINITCOMMONCONTROLSEX@@J@Z 0004b000 f   uafxcwd:wincore.obj
 0001:0003a0e0       ?AfxEndDeferRegisterClass@@YAHJ@Z 0004b0e0 f   uafxcwd:wincore.obj
 0001:0003a580       ?IsFrameWnd@CWnd@@UBAHXZ   0004b580 f   uafxcwd:wincore.obj
 0001:0003a5a8       ?IsFrameWnd@CFrameWnd@@UBAHXZ 0004b5a8 f   uafxcwd:wincore.obj
 0001:0003a5d0       ?IsTracking@CFrameWnd@@QBAHXZ 0004b5d0 f   uafxcwd:wincore.obj
 0001:0003a658       ?SubclassWindow@CWnd@@QAAHPAUHWND__@@@Z 0004b658 f   uafxcwd:wincore.obj
 0001:0003a8d4       ?SubclassDlgItem@CWnd@@QAAHIPAV1@@Z 0004b8d4 f   uafxcwd:wincore.obj
 0001:0003aaec       ?UnsubclassWindow@CWnd@@QAAPAUHWND__@@XZ 0004baec f   uafxcwd:wincore.obj
 0001:0003abb8       ?SHDoneButton@CWnd@@QAAHH@Z 0004bbb8 f   uafxcwd:wincore.obj
 0001:0003ad7c       ?SHRecognizeGesture@CWnd@@QAAHVCPoint@@H@Z 0004bd7c f   uafxcwd:wincore.obj
 0001:0003ae40       ?OnLButtonDown@CWnd@@IAAXIVCPoint@@@Z 0004be40 f   uafxcwd:wincore.obj
 0001:0003aec0       ?CreateControlContainer@CWnd@@MAAHPAPAVCOleControlContainer@@@Z 0004bec0 f   uafxcwd:wincore.obj
 0001:0003af60       ?CreateControlSite@CWnd@@MAAHPAVCOleControlContainer@@PAPAVCOleControlSite@@IABU_GUID@@@Z 0004bf60 f   uafxcwd:wincore.obj
 0001:0003b000       ?GetControlContainer@CWnd@@QAAPAVCOleControlContainer@@XZ 0004c000 f   uafxcwd:wincore.obj
 0001:0003b038       ?CreateObject@CWnd@@SAPAVCObject@@XZ 0004c038 f   uafxcwd:wincore.obj
 0001:0003b0b4       ?GetRuntimeClass@CWnd@@UBAPAUCRuntimeClass@@XZ 0004c0b4 f   uafxcwd:wincore.obj
 0001:0003b0e0       ??_ECWnd@@UAAPAXI@Z        0004c0e0 f i uafxcwd:wincore.obj
 0001:0003b0e0       ??_GCWnd@@UAAPAXI@Z        0004c0e0 f i uafxcwd:wincore.obj
 0001:0003b124       ?FreeResource@@YAHPAX@Z    0004c124 f i uafxcwd:wincore.obj
 0001:0003b14c       ?UnlockResource@@YAHPAX@Z  0004c14c f i uafxcwd:wincore.obj
 0001:0003b174       ?wcsncpy_s@Checked@ATL@@YAHPA_WIPB_WI@Z 0004c174 f i uafxcwd:wincore.obj
 0001:0003b1c0       ??Y?$CStringT@_WV?$StrTraitMFC@_WV?$ChTraitsOS@_W@ATL@@@@@ATL@@QAAAAV01@D@Z 0004c1c0 f i uafxcwd:wincore.obj
 0001:0003b1f4       ?GetData@?$CThreadLocal@V_AFX_THREAD_STATE@@@@QAAPAV_AFX_THREAD_STATE@@XZ 0004c1f4 f i uafxcwd:wincore.obj
 0001:0003b2a0       ??C?$CThreadLocal@V_AFX_THREAD_STATE@@@@QAAPAV_AFX_THREAD_STATE@@XZ 0004c2a0 f i uafxcwd:wincore.obj
 0001:0003b2d4       ?GetNext@?$_CTypedPtrList@V?$CList@PAXPAX@@PAUCOleControlSiteOrWnd@@@@QAAAAPAUCOleControlSiteOrWnd@@AAPAU__POSITION@@@Z 0004c2d4 f i uafxcwd:wincore.obj
 0001:0003b314       ?Construct@?$ConstructDestruct@VCWnd@@@@SAXPAVCObject@@@Z 0004c314 f i uafxcwd:wincore.obj
 0001:0003b398       ?Destruct@?$ConstructDestruct@VCWnd@@@@SAXPAVCObject@@@Z 0004c398 f i uafxcwd:wincore.obj
 0001:0003b3dc       ??Y?$CSimpleStringT@_W$0A@@ATL@@QAAAAV01@D@Z 0004c3dc f i uafxcwd:wincore.obj
 0001:0003b420       ?CreateObject@?$CThreadLocal@V_AFX_THREAD_STATE@@@@SAPAVCNoTrackObject@@XZ 0004c420 f i uafxcwd:wincore.obj
 0001:0003b49c       ?GetHeadPosition@?$CList@PAXPAX@@QBAPAU__POSITION@@XZ 0004c49c f i uafxcwd:wincore.obj
 0001:0003b4cc       ?GetNext@?$CList@PAXPAX@@QAAAAPAXAAPAU__POSITION@@@Z 0004c4cc f i uafxcwd:wincore.obj
 0001:0003b55c       ?SHDoneButton@AYGSHELL@@YAHPAUHWND__@@K@Z 0004c55c f i uafxcwd:wincore.obj
 0001:0003b5f0       ?SHRecognizeGesture@AYGSHELL@@YAKPAUtagSHRGI@@@Z 0004c5f0 f i uafxcwd:wincore.obj
 0001:0003b680       ?SHSipInfo@AYGSHELL@@YAHIIPAXI@Z 0004c680 f i uafxcwd:wincore.obj
 0001:0003b71c       ??BInitCommonControlsEx_Type@CComCtlWrapper@@QAAP6AHPAUtagINITCOMMONCONTROLSEX@@@ZXZ 0004c71c f i uafxcwd:wincore.obj
 0001:0003b748       ?GetProcAddress_InitCommonControlsEx@CComCtlWrapper@@QAA?AUInitCommonControlsEx_Type@1@XZ 0004c748 f i uafxcwd:wincore.obj
 0001:0003b7d0       ??4InitCommonControlsEx_Type@CComCtlWrapper@@QAAXP6AHPAUtagINITCOMMONCONTROLSEX@@@Z@Z 0004c7d0 f i uafxcwd:wincore.obj
 0001:0003b7f0       ??7InitCommonControlsEx_Type@CComCtlWrapper@@QBA_NXZ 0004c7f0 f i uafxcwd:wincore.obj
 0001:0003b840       ?AfxInitCommonControls@@YAXXZ 0004c840 f i uafxcwd:wincore.obj
 0001:0003b86c       ?_InitCommonControls@CComCtlWrapper@@QAAXXZ 0004c86c f i uafxcwd:wincore.obj
 0001:0003b928       ??BInitCommonControls_Type@CComCtlWrapper@@QAAP6AXXZXZ 0004c928 f i uafxcwd:wincore.obj
 0001:0003b954       ?GetProcAddress_InitCommonControls@CComCtlWrapper@@QAA?AUInitCommonControls_Type@1@XZ 0004c954 f i uafxcwd:wincore.obj
 0001:0003b9dc       ??4InitCommonControls_Type@CComCtlWrapper@@QAAXP6AXXZ@Z 0004c9dc f i uafxcwd:wincore.obj
 0001:0003b9fc       ??7InitCommonControls_Type@CComCtlWrapper@@QBA_NXZ 0004c9fc f i uafxcwd:wincore.obj
 0001:0003ba4c       ?AfxInitCommonControlsEx@@YAHPAUtagINITCOMMONCONTROLSEX@@@Z 0004ca4c f i uafxcwd:wincore.obj
 0001:0003ba94       ?_InitCommonControlsEx@CComCtlWrapper@@QAAHPAUtagINITCOMMONCONTROLSEX@@@Z 0004ca94 f i uafxcwd:wincore.obj
 0001:0003bb64       ?SetWindowLongPtrW@@YAJPAUHWND__@@HJ@Z 0004cb64 f i uafxcwd:wincore.obj
 0001:0003bba0       ?GetWindowLongPtrW@@YAJPAUHWND__@@H@Z 0004cba0 f i uafxcwd:wincore.obj
 0001:0003bbd8       ??0CInternalGlobalLock@@QAA@H@Z 0004cbd8 f i uafxcwd:wincore.obj
 0001:0003bc28       ??1CInternalGlobalLock@@QAA@XZ 0004cc28 f i uafxcwd:wincore.obj
 0001:0003bc44       ?Lock@CInternalGlobalLock@@QAAXH@Z 0004cc44 f i uafxcwd:wincore.obj
 0001:0003bd74       ?Unlock@CInternalGlobalLock@@QAAXXZ 0004cd74 f i uafxcwd:wincore.obj
 0001:0003bdb0       ?LookupPermanent@CHandleMap@@QAAPAVCObject@@PAX@Z 0004cdb0 f i uafxcwd:wincore.obj
 0001:0003bdec       ?LookupTemporary@CHandleMap@@QAAPAVCObject@@PAX@Z 0004cdec f i uafxcwd:wincore.obj
 0001:0003be28       ?GetBufferSetLength@?$CSimpleStringT@_W$0A@@ATL@@QAAPA_WH@Z 0004ce28 f i uafxcwd:wincore.obj
 0001:0003be74       ?AppendChar@?$CSimpleStringT@_W$0A@@ATL@@QAAX_W@Z 0004ce74 f i uafxcwd:wincore.obj
 0001:0003bef0       ?GetValueAt@?$CMap@PAXPAXPAXPAX@@QBAPAXPAX@Z 0004cef0 f i uafxcwd:wincore.obj
 0001:0003bf78       ?GetAssocAt@?$CMap@PAXPAXPAXPAX@@IBAPAVCAssoc@1@PAXAAI1@Z 0004cf78 f i uafxcwd:wincore.obj
 0001:0003c098       ??$HashKey@PAX@@YAIPAX@Z   0004d098 f i uafxcwd:wincore.obj
 0001:0003c0c4       ??$CompareElements@PAXPAX@@YAHPBQAX0@Z 0004d0c4 f i uafxcwd:wincore.obj
 0001:0003c21c       ??$_MapProc@P6AJPAUHWND__@@IIJ@Z@ATL@@YAP6AJPAUHWND__@@IIJ@ZP6AJ0IIJ@Z@Z 0004d21c f i uafxcwd:wincore.obj
 0001:0003c2d0       ?GetOsMajorVersion@ATL@@YAKXZ 0004d2d0 f i uafxcwd:wincore.obj
 0001:0003c34c       ??0?$CePtr_t@P6AJPAUHWND__@@IIJ@Z@ATL@@QAA@P6AJPAUHWND__@@IIJ@Z@Z 0004d34c f i uafxcwd:wincore.obj
 0001:0003c380       ??0CePtrBase_t@ATL@@IAA@PAX@Z 0004d380 f i uafxcwd:wincore.obj
 0001:0003c3b4       ?MapToCurrentProcess@?$CePtr_t@P6AJPAUHWND__@@IIJ@Z@ATL@@QAAAAV12@XZ 0004d3b4 f i uafxcwd:wincore.obj
 0001:0003c3e8       ?MapToProcess@CePtrBase_t@ATL@@QAAXPAX@Z 0004d3e8 f i uafxcwd:wincore.obj
 0001:0003c4d4       GetCurrentProcess          0004d4d4 f i uafxcwd:wincore.obj
 0001:0003c4ec       ?IsMapped@CePtrBase_t@ATL@@QBA_NXZ 0004d4ec f i uafxcwd:wincore.obj
 0001:0003c568       ?AsCppPtr@?$CePtr_t@P6AJPAUHWND__@@IIJ@Z@ATL@@QBAP6AJPAUHWND__@@IIJ@ZXZ 0004d568 f i uafxcwd:wincore.obj
 0001:0003c59c       ?AsCppPtr@CePtrBase_t@ATL@@IBAPAXXZ 0004d59c f i uafxcwd:wincore.obj
 0001:0003c5c8       ?OnAmbientProperty@CWnd@@UAAHPAVCOleControlSite@@JPAUtagVARIANT@@@Z 0004d5c8 f   uafxcwd:winocc.obj
 0001:0003c668       ?GetControlUnknown@CWnd@@QAAPAUIUnknown@@XZ 0004d668 f   uafxcwd:winocc.obj
 0001:0003c6c0       ?PaintWindowlessControls@CWnd@@QAAHPAVCDC@@@Z 0004d6c0 f   uafxcwd:winocc.obj
 0001:0003c73c       ?GetOleControlSite@CWnd@@QBAPAVCOleControlSite@@I@Z 0004d73c f   uafxcwd:winocc.obj
 0001:0003c7bc       ?CheckDlgButton@CWnd@@QAAXHI@Z 0004d7bc f   uafxcwd:winocc.obj
 0001:0003c880       ?CheckRadioButton@CWnd@@QAAXHHH@Z 0004d880 f   uafxcwd:winocc.obj
 0001:0003c950       ?GetDlgItem@CWnd@@QBAPAV1@H@Z 0004d950 f   uafxcwd:winocc.obj
 0001:0003ca38       ?GetDlgItem@CWnd@@QBAXHPAPAUHWND__@@@Z 0004da38 f   uafxcwd:winocc.obj
 0001:0003cb38       ?GetDlgItemInt@CWnd@@QBAIHPAHH@Z 0004db38 f   uafxcwd:winocc.obj
 0001:0003cc28       ?GetDlgItemTextW@CWnd@@QBAHHPA_WH@Z 0004dc28 f   uafxcwd:winocc.obj
 0001:0003cd18       ?SendDlgItemMessageW@CWnd@@QAAJHIIJ@Z 0004dd18 f   uafxcwd:winocc.obj
 0001:0003ce18       ?SetDlgItemInt@CWnd@@QAAXHIH@Z 0004de18 f   uafxcwd:winocc.obj
 0001:0003cee8       ?SetDlgItemTextW@CWnd@@QAAXHPB_W@Z 0004dee8 f   uafxcwd:winocc.obj
 0001:0003cfac       ?IsDlgButtonChecked@CWnd@@QBAIH@Z 0004dfac f   uafxcwd:winocc.obj
 0001:0003d088       ?ScrollWindowEx@CWnd@@QAAHHHPBUtagRECT@@0PAVCRgn@@PAU2@I@Z 0004e088 f   uafxcwd:winocc.obj
 0001:0003d1a8       ?IsDialogMessageW@CWnd@@QAAHPAUtagMSG@@@Z 0004e1a8 f   uafxcwd:winocc.obj
 0001:0003d290       ?GetStyle@CWnd@@QBAKXZ     0004e290 f   uafxcwd:winocc.obj
 0001:0003d37c       ?GetExStyle@CWnd@@QBAKXZ   0004e37c f   uafxcwd:winocc.obj
 0001:0003d468       ?ModifyStyle@CWnd@@QAAHKKI@Z 0004e468 f   uafxcwd:winocc.obj
 0001:0003d56c       ?ModifyStyleEx@CWnd@@QAAHKKI@Z 0004e56c f   uafxcwd:winocc.obj
 0001:0003d670       ?SetWindowTextW@CWnd@@QAAXPB_W@Z 0004e670 f   uafxcwd:winocc.obj
 0001:0003d7e8       ?GetWindowTextW@CWnd@@QBAHPA_WH@Z 0004e7e8 f   uafxcwd:winocc.obj
 0001:0003d940       ?GetWindowTextLengthW@CWnd@@QBAHXZ 0004e940 f   uafxcwd:winocc.obj
 0001:0003da68       ?GetDlgCtrlID@CWnd@@QBAHXZ 0004ea68 f   uafxcwd:winocc.obj
 0001:0003db54       ?SetDlgCtrlID@CWnd@@QAAHH@Z 0004eb54 f   uafxcwd:winocc.obj
 0001:0003dc4c       ?MoveWindow@CWnd@@QAAXHHHHH@Z 0004ec4c f   uafxcwd:winocc.obj
 0001:0003dd4c       ?SetWindowPos@CWnd@@QAAHPBV1@HHHHI@Z 0004ed4c f   uafxcwd:winocc.obj
 0001:0003de90       ?ShowWindow@CWnd@@QAAHH@Z  0004ee90 f   uafxcwd:winocc.obj
 0001:0003df84       ?IsWindowEnabled@CWnd@@QBAHXZ 0004ef84 f   uafxcwd:winocc.obj
 0001:0003e070       ?EnableWindow@CWnd@@QAAHH@Z 0004f070 f   uafxcwd:winocc.obj
 0001:0003e164       ?SetFocus@CWnd@@QAAPAV1@XZ 0004f164 f   uafxcwd:winocc.obj
 0001:0003e25c       ?InvokeHelper@CWnd@@QAAXJGGPAXPBEZZ 0004f25c f   uafxcwd:winocc.obj
 0001:0003e334       ?GetProperty@CWnd@@QBAXJGPAX@Z 0004f334 f   uafxcwd:winocc.obj
 0001:0003e3c4       ?SetProperty@CWnd@@QAAXJGZZ 0004f3c4 f   uafxcwd:winocc.obj
 0001:0003e484       ?AttachControlSite@CWnd@@IAAXPAVCHandleMap@@@Z 0004f484 f   uafxcwd:winocc.obj
 0001:0003e540       ?AttachControlSite@CWnd@@QAAXPAV1@I@Z 0004f540 f   uafxcwd:winocc.obj
 0001:0003e620       ?GetStyle@COleControlSiteOrWnd@@QBAKXZ 0004f620 f   uafxcwd:winocc.obj
 0001:0003e6b0       ?GetNextDlgTabItem@CWnd@@QBAPAUCOleControlSiteOrWnd@@PAU2@H@Z 0004f6b0 f   uafxcwd:winocc.obj
 0001:0003ea34       ?FindSiteOrWnd@CWnd@@QBAPAU__POSITION@@PBUCOleControlSiteOrWnd@@@Z 0004fa34 f   uafxcwd:winocc.obj
 0001:0003eae8       ?FindSiteOrWndWithFocus@CWnd@@QBAPAU__POSITION@@XZ 0004fae8 f   uafxcwd:winocc.obj
 0001:0003ec38       ?GetPrevDlgGroupItem@CWnd@@QBAPAUCOleControlSiteOrWnd@@PAU2@@Z 0004fc38 f   uafxcwd:winocc.obj
 0001:0003ed2c       ?GetNextDlgGroupItem@CWnd@@QBAPAUCOleControlSiteOrWnd@@PAU2@@Z 0004fd2c f   uafxcwd:winocc.obj
 0001:0003ee20       ?RemoveRadioCheckFromGroup@CWnd@@QBAXPBUCOleControlSiteOrWnd@@@Z 0004fe20 f   uafxcwd:winocc.obj
 0001:0003f078       ?AttachControlSite@COleControlContainer@@UAAXPAVCWnd@@I@Z 00050078 f   uafxcwd:winocc.obj
 0001:0003f1cc       CheckDlgButton             000501cc f i uafxcwd:winocc.obj
 0001:0003f214       IsDlgButtonChecked         00050214 f i uafxcwd:winocc.obj
 0001:0003f25c       ??0CDlgControlIterator@@QAA@ABVCOleControlContainer@@@Z 0005025c f i uafxcwd:winocc.obj
 0001:0003f294       ??0CDlgGroupRadioButtonIterator@@QAA@AAVCOleControlContainer@@PAU__POSITION@@@Z 00050294 f i uafxcwd:winocc.obj
 0001:0003f2cc       ??0CDlgControlIterator@@QAA@ABVCOleControlContainer@@PAU__POSITION@@@Z 000502cc f i uafxcwd:winocc.obj
 0001:0003f308       ?IsEnd@CDlgGroupRadioButtonIterator@@QBA_NXZ 00050308 f i uafxcwd:winocc.obj
 0001:0003f33c       ?MovePrev@CDlgGroupRadioButtonIterator@@QAAXXZ 0005033c f i uafxcwd:winocc.obj
 0001:0003f450       ??0CDlgControlIterator@@QAA@ABV0@@Z 00050450 f i uafxcwd:winocc.obj
 0001:0003f484       ??BCDlgGroupRadioButtonIterator@@QBAPAUCOleControlSiteOrWnd@@XZ 00050484 f i uafxcwd:winocc.obj
 0001:0003f530       ?IsDisabled@CDlgGroupRadioButtonIterator@@SA_NPBUCOleControlSiteOrWnd@@@Z 00050530 f i uafxcwd:winocc.obj
 0001:0003f5e0       ?IsGroup@CDlgGroupRadioButtonIterator@@SA_NPBUCOleControlSiteOrWnd@@@Z 000505e0 f i uafxcwd:winocc.obj
 0001:0003f638       ?GetLastButton@CDlgGroupRadioButtonIterator@@QBA?AVCDlgControlIterator@@XZ 00050638 f i uafxcwd:winocc.obj
 0001:0003f6d8       ?Skip@CDlgControlIterator@@QBA?AV1@H@Z 000506d8 f i uafxcwd:winocc.obj
 0001:0003f720       ??0CDlgControlIterator@@IAA@ABV?$CTypedPtrListIterator@V?$CList@PAXPAX@@PAUCOleControlSiteOrWnd@@@@@Z 00050720 f i uafxcwd:winocc.obj
 0001:0003f754       ??4CDlgControlIterator@@QAAAAV0@ABV0@@Z 00050754 f i uafxcwd:winocc.obj
 0001:0003f788       ?MoveNext@CDlgGroupRadioButtonIterator@@QAAXXZ 00050788 f i uafxcwd:winocc.obj
 0001:0003f880       ?GetFirstButton@CDlgGroupRadioButtonIterator@@QBA?AVCDlgControlIterator@@XZ 00050880 f i uafxcwd:winocc.obj
 0001:0003f950       ?GetPrev@?$_CTypedPtrList@V?$CList@PAXPAX@@PAUCOleControlSiteOrWnd@@@@QAAAAPAUCOleControlSiteOrWnd@@AAPAU__POSITION@@@Z 00050950 f i uafxcwd:winocc.obj
 0001:0003f988       ??0?$CTypedPtrListIterator@V?$CList@PAXPAX@@PAUCOleControlSiteOrWnd@@@@QAA@ABV?$CTypedPtrList@V?$CList@PAXPAX@@PAUCOleControlSiteOrWnd@@@@@Z 00050988 f i uafxcwd:winocc.obj
 0001:0003f9dc       ??0?$CTypedPtrListIterator@V?$CList@PAXPAX@@PAUCOleControlSiteOrWnd@@@@QAA@ABV?$CTypedPtrList@V?$CList@PAXPAX@@PAUCOleControlSiteOrWnd@@@@PAU__POSITION@@@Z 000509dc f i uafxcwd:winocc.obj
 0001:0003fa20       ??0?$CTypedPtrListIterator@V?$CList@PAXPAX@@PAUCOleControlSiteOrWnd@@@@QAA@ABV0@@Z 00050a20 f i uafxcwd:winocc.obj
 0001:0003fae8       ??4?$CTypedPtrListIterator@V?$CList@PAXPAX@@PAUCOleControlSiteOrWnd@@@@QAAAAV0@ABV0@@Z 00050ae8 f i uafxcwd:winocc.obj
 0001:0003fb9c       ?GetPosition@?$CTypedPtrListIterator@V?$CList@PAXPAX@@PAUCOleControlSiteOrWnd@@@@QBAPAU__POSITION@@XZ 00050b9c f i uafxcwd:winocc.obj
 0001:0003fbcc       ?IsEnd@?$CTypedPtrListIterator@V?$CList@PAXPAX@@PAUCOleControlSiteOrWnd@@@@QBA_NXZ 00050bcc f i uafxcwd:winocc.obj
 0001:0003fc20       ??7?$CTypedPtrListIterator@V?$CList@PAXPAX@@PAUCOleControlSiteOrWnd@@@@QBA_NXZ 00050c20 f i uafxcwd:winocc.obj
 0001:0003fc54       ?MoveNext@?$CTypedPtrListIterator@V?$CList@PAXPAX@@PAUCOleControlSiteOrWnd@@@@QAAXXZ 00050c54 f i uafxcwd:winocc.obj
 0001:0003fc90       ?MovePrev@?$CTypedPtrListIterator@V?$CList@PAXPAX@@PAUCOleControlSiteOrWnd@@@@QAAXXZ 00050c90 f i uafxcwd:winocc.obj
 0001:0003fccc       ?Skip@?$CTypedPtrListIterator@V?$CList@PAXPAX@@PAUCOleControlSiteOrWnd@@@@QBA?AV1@H@Z 00050ccc f i uafxcwd:winocc.obj
 0001:0003fd9c       ??D?$CTypedPtrListIterator@V?$CList@PAXPAX@@PAUCOleControlSiteOrWnd@@@@QAAPAUCOleControlSiteOrWnd@@XZ 00050d9c f i uafxcwd:winocc.obj
 0001:0003fe50       ??D?$CTypedPtrListIterator@V?$CList@PAXPAX@@PAUCOleControlSiteOrWnd@@@@QBAQAUCOleControlSiteOrWnd@@XZ 00050e50 f i uafxcwd:winocc.obj
 0001:0003fe84       ?GetNext@?$_CTypedPtrList@V?$CList@PAXPAX@@PAUCOleControlSiteOrWnd@@@@QBAPAUCOleControlSiteOrWnd@@AAPAU__POSITION@@@Z 00050e84 f i uafxcwd:winocc.obj
 0001:0003fec0       ?GetPrev@?$_CTypedPtrList@V?$CList@PAXPAX@@PAUCOleControlSiteOrWnd@@@@QBAPAUCOleControlSiteOrWnd@@AAPAU__POSITION@@@Z 00050ec0 f i uafxcwd:winocc.obj
 0001:0003fefc       ?GetAt@?$_CTypedPtrList@V?$CList@PAXPAX@@PAUCOleControlSiteOrWnd@@@@QBAPAUCOleControlSiteOrWnd@@PAU__POSITION@@@Z 00050efc f i uafxcwd:winocc.obj
 0001:0003ff38       ?GetTailPosition@?$CList@PAXPAX@@QBAPAU__POSITION@@XZ 00050f38 f i uafxcwd:winocc.obj
 0001:0003ff68       ?GetNext@?$CList@PAXPAX@@QBAABQAXAAPAU__POSITION@@@Z 00050f68 f i uafxcwd:winocc.obj
 0001:0003fff8       ?GetPrev@?$CList@PAXPAX@@QBAABQAXAAPAU__POSITION@@@Z 00050ff8 f i uafxcwd:winocc.obj
 0001:0004008c       ?GetPrev@?$CList@PAXPAX@@QAAAAPAXAAPAU__POSITION@@@Z 0005108c f i uafxcwd:winocc.obj
 0001:00040120       ?GetAt@?$CList@PAXPAX@@QBAABQAXPAU__POSITION@@@Z 00051120 f i uafxcwd:winocc.obj
 0001:00040198       ?Find@?$CList@PAXPAX@@QBAPAU__POSITION@@PAXPAU2@@Z 00051198 f i uafxcwd:winocc.obj
 0001:000402a0       ?tcsncpy_s@Checked@ATL@@YAHPA_WIPB_WI@Z 000512a0 f i uafxcwd:winocc.obj
 0001:000402ec       ?Create@CStatic@@UAAHPB_WKABUtagRECT@@PAVCWnd@@I@Z 000512ec f   uafxcwd:winctrl1.obj
 0001:00040374       ??1CStatic@@UAA@XZ         00051374 f   uafxcwd:winctrl1.obj
 0001:000403c4       ?DrawItem@CStatic@@UAAXPAUtagDRAWITEMSTRUCT@@@Z 000513c4 f   uafxcwd:winctrl1.obj
 0001:00040404       ?OnChildNotify@CStatic@@MAAHIIJPAJ@Z 00051404 f   uafxcwd:winctrl1.obj
 0001:000404b4       ?Create@CButton@@UAAHPB_WKABUtagRECT@@PAVCWnd@@I@Z 000514b4 f   uafxcwd:winctrl1.obj
 0001:0004053c       ??1CButton@@UAA@XZ         0005153c f   uafxcwd:winctrl1.obj
 0001:0004058c       ?GetCheckedRadioButton@CWnd@@QAAHHH@Z 0005158c f   uafxcwd:winctrl1.obj
 0001:00040608       ?DrawItem@CButton@@UAAXPAUtagDRAWITEMSTRUCT@@@Z 00051608 f   uafxcwd:winctrl1.obj
 0001:00040648       ?OnChildNotify@CButton@@MAAHIIJPAJ@Z 00051648 f   uafxcwd:winctrl1.obj
 0001:000406f8       ?Create@CListBox@@UAAHKABUtagRECT@@PAVCWnd@@I@Z 000516f8 f   uafxcwd:winctrl1.obj
 0001:00040780       ??1CListBox@@UAA@XZ        00051780 f   uafxcwd:winctrl1.obj
 0001:000407d0       ?DrawItem@CListBox@@UAAXPAUtagDRAWITEMSTRUCT@@@Z 000517d0 f   uafxcwd:winctrl1.obj
 0001:00040810       ?MeasureItem@CListBox@@UAAXPAUtagMEASUREITEMSTRUCT@@@Z 00051810 f   uafxcwd:winctrl1.obj
 0001:00040850       ?CompareItem@CListBox@@UAAHPAUtagCOMPAREITEMSTRUCT@@@Z 00051850 f   uafxcwd:winctrl1.obj
 0001:0004089c       ?DeleteItem@CListBox@@UAAXPAUtagDELETITEMSTRUCT@@@Z 0005189c f   uafxcwd:winctrl1.obj
 0001:000408b0       ?VKeyToItem@CListBox@@UAAHII@Z 000518b0 f   uafxcwd:winctrl1.obj
 0001:000408e4       ?CharToItem@CListBox@@UAAHII@Z 000518e4 f   uafxcwd:winctrl1.obj
 0001:00040918       ?OnChildNotify@CListBox@@MAAHIIJPAJ@Z 00051918 f   uafxcwd:winctrl1.obj
 0001:00040bd4       ?GetText@CListBox@@QBAXHAAV?$CStringT@_WV?$StrTraitMFC@_WV?$ChTraitsOS@_W@ATL@@@@@ATL@@@Z 00051bd4 f   uafxcwd:winctrl1.obj
 0001:00040c70       ?ItemFromPoint@CListBox@@QBAIVCPoint@@AAH@Z 00051c70 f   uafxcwd:winctrl1.obj
 0001:00040d64       ?Create@CComboBox@@UAAHKABUtagRECT@@PAVCWnd@@I@Z 00051d64 f   uafxcwd:winctrl1.obj
 0001:00040dec       ??1CComboBox@@UAA@XZ       00051dec f   uafxcwd:winctrl1.obj
 0001:00040e3c       ?DrawItem@CComboBox@@UAAXPAUtagDRAWITEMSTRUCT@@@Z 00051e3c f   uafxcwd:winctrl1.obj
 0001:00040e7c       ?MeasureItem@CComboBox@@UAAXPAUtagMEASUREITEMSTRUCT@@@Z 00051e7c f   uafxcwd:winctrl1.obj
 0001:00040ebc       ?CompareItem@CComboBox@@UAAHPAUtagCOMPAREITEMSTRUCT@@@Z 00051ebc f   uafxcwd:winctrl1.obj
 0001:00040f08       ?DeleteItem@CComboBox@@UAAXPAUtagDELETITEMSTRUCT@@@Z 00051f08 f   uafxcwd:winctrl1.obj
 0001:00040f1c       ?OnChildNotify@CComboBox@@MAAHIIJPAJ@Z 00051f1c f   uafxcwd:winctrl1.obj
 0001:00041140       ?GetLBText@CComboBox@@QBAXHAAV?$CStringT@_WV?$StrTraitMFC@_WV?$ChTraitsOS@_W@ATL@@@@@ATL@@@Z 00052140 f   uafxcwd:winctrl1.obj
 0001:000411dc       ?GetMessageMap@CComboBox@@MBAPBUAFX_MSGMAP@@XZ 000521dc f   uafxcwd:winctrl1.obj
 0001:0004120c       ?GetThisMessageMap@CComboBox@@KAPBUAFX_MSGMAP@@XZ 0005220c f   uafxcwd:winctrl1.obj
 0001:00041228       ?OnLButtonDown@CComboBox@@IAAXIVCPoint@@@Z 00052228 f   uafxcwd:winctrl1.obj
 0001:00041320       ?Create@CEdit@@QAAHKABUtagRECT@@PAVCWnd@@I@Z 00052320 f   uafxcwd:winctrl1.obj
 0001:000413a8       ??1CEdit@@UAA@XZ           000523a8 f   uafxcwd:winctrl1.obj
 0001:000413f8       ?Create@CScrollBar@@UAAHKABUtagRECT@@PAVCWnd@@I@Z 000523f8 f   uafxcwd:winctrl1.obj
 0001:00041480       ??1CScrollBar@@UAA@XZ      00052480 f   uafxcwd:winctrl1.obj
 0001:000414d0       ?GetRuntimeClass@CStatic@@UBAPAUCRuntimeClass@@XZ 000524d0 f   uafxcwd:winctrl1.obj
 0001:000414fc       ?GetRuntimeClass@CButton@@UBAPAUCRuntimeClass@@XZ 000524fc f   uafxcwd:winctrl1.obj
 0001:00041528       ?GetRuntimeClass@CListBox@@UBAPAUCRuntimeClass@@XZ 00052528 f   uafxcwd:winctrl1.obj
 0001:00041554       ?GetRuntimeClass@CComboBox@@UBAPAUCRuntimeClass@@XZ 00052554 f   uafxcwd:winctrl1.obj
 0001:00041580       ?GetRuntimeClass@CEdit@@UBAPAUCRuntimeClass@@XZ 00052580 f   uafxcwd:winctrl1.obj
 0001:000415ac       ?GetRuntimeClass@CScrollBar@@UBAPAUCRuntimeClass@@XZ 000525ac f   uafxcwd:winctrl1.obj
 0001:000415d8       ?AfxDlgProc@@YAHPAUHWND__@@IIJ@Z 000525d8 f   uafxcwd:dlgcore.obj
 0001:0004167c       ?_AfxSendDlgCreateMsg@@YAXPAUHWND__@@@Z 0005267c f   uafxcwd:dlgcore.obj
 0001:00041848       ?AfxDlgProcEx@@YAHPAUHWND__@@IIJ@Z 00052848 f   uafxcwd:dlgcore.obj
 0001:00041a60       ?GetMessageMap@CDialog@@MBAPBUAFX_MSGMAP@@XZ 00052a60 f   uafxcwd:dlgcore.obj
 0001:00041a90       ?GetThisMessageMap@CDialog@@KAPBUAFX_MSGMAP@@XZ 00052a90 f   uafxcwd:dlgcore.obj
 0001:00041aac       ?PreTranslateMessage@CDialog@@UAAHPAUtagMSG@@@Z 00052aac f   uafxcwd:dlgcore.obj
 0001:00041c2c       ?OnCmdMsg@CDialog@@UAAHIHPAXPAUAFX_CMDHANDLERINFO@@@Z 00052c2c f   uafxcwd:dlgcore.obj
 0001:00041ed0       ??0CDialog@@QAA@XZ         00052ed0 f   uafxcwd:dlgcore.obj
 0001:00041ff0       ??1CDialog@@UAA@XZ         00052ff0 f   uafxcwd:dlgcore.obj
 0001:000420e0       ?OnPaint@CDialog@@IAAXXZ   000530e0 f   uafxcwd:dlgcore.obj
 0001:00042174       ?Create@CDialog@@UAAHPB_WPAVCWnd@@@Z 00053174 f   uafxcwd:dlgcore.obj
 0001:0004231c       ?CreateIndirect@CDialog@@UAAHPAXPAVCWnd@@@Z 0005331c f   uafxcwd:dlgcore.obj
 0001:0004235c       ?CreateIndirect@CDialog@@IAAHPAXPAVCWnd@@PAUHINSTANCE__@@@Z 0005335c f   uafxcwd:dlgcore.obj
 0001:000423fc       ?CreateIndirect@CDialog@@UAAHPBUDLGTEMPLATE@@PAVCWnd@@PAX@Z 000533fc f   uafxcwd:dlgcore.obj
 0001:00042444       ?CreateIndirect@CDialog@@IAAHPBUDLGTEMPLATE@@PAVCWnd@@PAXPAUHINSTANCE__@@@Z 00053444 f   uafxcwd:dlgcore.obj
 0001:000424e4       ?CreateDlg@CWnd@@IAAHPB_WPAV1@@Z 000534e4 f   uafxcwd:dlgcore.obj
 0001:000425e8       ?CreateDlgIndirect@CWnd@@IAAHPBUDLGTEMPLATE@@PAV1@PAUHINSTANCE__@@@Z 000535e8 f   uafxcwd:dlgcore.obj
 0001:00042cf8       ?SetOccDialogInfo@CDialog@@MAAHPAU_AFX_OCC_DIALOG_INFO@@@Z 00053cf8 f   uafxcwd:dlgcore.obj
 0001:00042d30       ?GetOccDialogInfo@CDialog@@MAAPAU_AFX_OCC_DIALOG_INFO@@XZ 00053d30 f   uafxcwd:dlgcore.obj
 0001:00042d68       ??0CDialog@@QAA@PB_WPAVCWnd@@@Z 00053d68 f   uafxcwd:dlgcore.obj
 0001:00042e8c       ??0CDialog@@QAA@IPAVCWnd@@@Z 00053e8c f   uafxcwd:dlgcore.obj
 0001:00042f48       ??0CDialog@@QAA@IIPAVCWnd@@@Z 00053f48 f   uafxcwd:dlgcore.obj
 0001:00043018       ?SHInitDialog@CDialog@@AAAXXZ 00054018 f   uafxcwd:dlgcore.obj
 0001:000430a4       ?InitModalIndirect@CDialog@@QAAHPAXPAVCWnd@@@Z 000540a4 f   uafxcwd:dlgcore.obj
 0001:000431a8       ?InitModalIndirect@CDialog@@QAAHPBUDLGTEMPLATE@@PAVCWnd@@PAX@Z 000541a8 f   uafxcwd:dlgcore.obj
 0001:000432bc       ?PreModal@CDialog@@IAAPAUHWND__@@XZ 000542bc f   uafxcwd:dlgcore.obj
 0001:0004337c       ?PostModal@CDialog@@IAAXXZ 0005437c f   uafxcwd:dlgcore.obj
 0001:00043418       ?DoModal@CDialog@@UAAHXZ   00054418 f   uafxcwd:dlgcore.obj
 0001:000438cc       ?EndDialog@CDialog@@QAAXH@Z 000548cc f   uafxcwd:dlgcore.obj
 0001:00043974       ?HandleSetFont@CDialog@@IAAJIJ@Z 00054974 f   uafxcwd:dlgcore.obj
 0001:000439d4       ?PreInitDialog@CDialog@@MAAXXZ 000549d4 f   uafxcwd:dlgcore.obj
 0001:000439e8       ?HandleInitDialog@CDialog@@IAAJIJ@Z 000549e8 f   uafxcwd:dlgcore.obj
 0001:00043bd8       ?AfxHelpEnabled@@YAHXZ     00054bd8 f   uafxcwd:dlgcore.obj
 0001:00043ccc       ?OnSetFont@CDialog@@UAAXPAVCFont@@@Z 00054ccc f   uafxcwd:dlgcore.obj
 0001:00043ce0       ?OnInitDialog@CDialog@@UAAHXZ 00054ce0 f   uafxcwd:dlgcore.obj
 0001:00043fa8       ?OnOK@CDialog@@MAAXXZ      00054fa8 f   uafxcwd:dlgcore.obj
 0001:00044030       ?OnCancel@CDialog@@MAAXXZ  00055030 f   uafxcwd:dlgcore.obj
 0001:00044050       ?OnSettingChange@CDialog@@IAAXIPB_W@Z 00055050 f   uafxcwd:dlgcore.obj
 0001:00044104       ?OnActivate@CDialog@@IAAXIPAVCWnd@@H@Z 00055104 f   uafxcwd:dlgcore.obj
 0001:000441c4       ?OnSize@CDialog@@IAAXIHH@Z 000551c4 f   uafxcwd:dlgcore.obj
 0001:00044264       ?CheckAutoCenter@CDialog@@UAAHXZ 00055264 f   uafxcwd:dlgcore.obj
 0001:000444c0       ?AssertValid@CDialog@@UBAXXZ 000554c0 f   uafxcwd:dlgcore.obj
 0001:000444dc       ?_AfxCheckDialogTemplate@@YAHPB_WH@Z 000554dc f   uafxcwd:dlgcore.obj
 0001:000448f0       ?GetRuntimeClass@CDialog@@UBAPAUCRuntimeClass@@XZ 000558f0 f   uafxcwd:dlgcore.obj
 0001:0004491c       ??_ECDialog@@UAAPAXI@Z     0005591c f i uafxcwd:dlgcore.obj
 0001:0004491c       ??_GCDialog@@UAAPAXI@Z     0005591c f i uafxcwd:dlgcore.obj
 0001:00044960       ?GetDisplayMode@DRA@@YA?AW4DisplayMode@1@XZ 00055960 f i uafxcwd:dlgcore.obj
 0001:000449e0       ?RelayoutDialog@DRA@@YAHPAUHINSTANCE__@@PAUHWND__@@PB_W@Z 000559e0 f i uafxcwd:dlgcore.obj
 0001:00044df8       ?WalkDialogData@DRA@@YAPAEPAE@Z 00055df8 f i uafxcwd:dlgcore.obj
 0001:00044e78       ?FixupDialogItem@DRA@@YAXPAUHINSTANCE__@@PAUHWND__@@PAUDLGITEMTEMPLATE@@PAG3@Z 00055e78 f i uafxcwd:dlgcore.obj
 0001:00045180       ??8ATL@@YA_NABV?$CStringT@_WV?$StrTraitMFC@_WV?$ChTraitsOS@_W@ATL@@@@@0@PB_W@Z 00056180 f i uafxcwd:dlgcore.obj
 0001:000451dc       ??_9CDialog@@$BOE@AA       000561dc f i uafxcwd:dlgcore.obj
 0001:000451e8       ??_9CDialog@@$BOA@AA       000561e8 f i uafxcwd:dlgcore.obj
 0001:000451f4       ?SHHandleWMActivate@AYGSHELL@@YAHPAUHWND__@@IJPAUSHACTIVATEINFO@@K@Z 000561f4 f i uafxcwd:dlgcore.obj
 0001:00045298       ?SHHandleWMSettingChange@AYGSHELL@@YAHPAUHWND__@@IJPAUSHACTIVATEINFO@@@Z 00056298 f i uafxcwd:dlgcore.obj
 0001:00045334       ?SHInitDialog@AYGSHELL@@YAHPAUtagSHINITDLGINFO@@@Z 00056334 f i uafxcwd:dlgcore.obj
 0001:000453c4       ?PrepareEditCtrl@CDataExchange@@QAAPAUHWND__@@H@Z 000563c4 f   uafxcwd:dlgdata.obj
 0001:00045414       ?PrepareCtrl@CDataExchange@@QAAPAUHWND__@@H@Z 00056414 f   uafxcwd:dlgdata.obj
 0001:00045584       ?Fail@CDataExchange@@QAAXXZ 00056584 f   uafxcwd:dlgdata.obj
 0001:000456a8       ?_Afx_DDX_TextWithFormat@@YAXPAVCDataExchange@@HPB_WIZZ 000566a8 f   uafxcwd:dlgdata.obj
 0001:000457e0       ?DDX_Text@@YAXPAVCDataExchange@@HAAE@Z 000567e0 f   uafxcwd:dlgdata.obj
 0001:0004589c       ?DDX_Text@@YAXPAVCDataExchange@@HAAF@Z 0005689c f   uafxcwd:dlgdata.obj
 0001:00045918       ?DDX_Text@@YAXPAVCDataExchange@@HAAH@Z 00056918 f   uafxcwd:dlgdata.obj
 0001:00045994       ?DDX_Text@@YAXPAVCDataExchange@@HAAI@Z 00056994 f   uafxcwd:dlgdata.obj
 0001:00045a10       ?DDX_Text@@YAXPAVCDataExchange@@HAAJ@Z 00056a10 f   uafxcwd:dlgdata.obj
 0001:00045a8c       ?DDX_Text@@YAXPAVCDataExchange@@HAAK@Z 00056a8c f   uafxcwd:dlgdata.obj
 0001:00045b08       ?DDX_Text@@YAXPAVCDataExchange@@HAA_J@Z 00056b08 f   uafxcwd:dlgdata.obj
 0001:00045b90       ?DDX_Text@@YAXPAVCDataExchange@@HAA_K@Z 00056b90 f   uafxcwd:dlgdata.obj
 0001:00045c18       ?DDX_Text@@YAXPAVCDataExchange@@HAAV?$CStringT@_WV?$StrTraitMFC@_WV?$ChTraitsOS@_W@ATL@@@@@ATL@@@Z 00056c18 f   uafxcwd:dlgdata.obj
 0001:00045cbc       ?DDX_Text@@YAXPAVCDataExchange@@HPA_WH@Z 00056cbc f   uafxcwd:dlgdata.obj
 0001:00045dc8       ?DDX_Check@@YAXPAVCDataExchange@@HAAH@Z 00056dc8 f   uafxcwd:dlgdata.obj
 0001:00045f18       ?DDX_Radio@@YAXPAVCDataExchange@@HAAH@Z 00056f18 f   uafxcwd:dlgdata.obj
 0001:00046174       ?DDX_LBString@@YAXPAVCDataExchange@@HAAV?$CStringT@_WV?$StrTraitMFC@_WV?$ChTraitsOS@_W@ATL@@@@@ATL@@@Z 00057174 f   uafxcwd:dlgdata.obj
 0001:000462c8       ?DDX_LBStringExact@@YAXPAVCDataExchange@@HAAV?$CStringT@_WV?$StrTraitMFC@_WV?$ChTraitsOS@_W@ATL@@@@@ATL@@@Z 000572c8 f   uafxcwd:dlgdata.obj
 0001:000463c8       ?DDX_CBString@@YAXPAVCDataExchange@@HAAV?$CStringT@_WV?$StrTraitMFC@_WV?$ChTraitsOS@_W@ATL@@@@@ATL@@@Z 000573c8 f   uafxcwd:dlgdata.obj
 0001:000464dc       ?DDX_CBStringExact@@YAXPAVCDataExchange@@HAAV?$CStringT@_WV?$StrTraitMFC@_WV?$ChTraitsOS@_W@ATL@@@@@ATL@@@Z 000574dc f   uafxcwd:dlgdata.obj
 0001:000465ac       ?DDX_LBIndex@@YAXPAVCDataExchange@@HAAH@Z 000575ac f   uafxcwd:dlgdata.obj
 0001:00046640       ?DDX_CBIndex@@YAXPAVCDataExchange@@HAAH@Z 00057640 f   uafxcwd:dlgdata.obj
 0001:000466d8       ?DDX_Scroll@@YAXPAVCDataExchange@@HAAH@Z 000576d8 f   uafxcwd:dlgdata.obj
 0001:00046760       ?DDX_Slider@@YAXPAVCDataExchange@@HAAH@Z 00057760 f   uafxcwd:dlgdata.obj
 0001:000467fc       ?_AfxFailMinMaxWithFormat@@YAXPAVCDataExchange@@_J1PB_WI@Z 000577fc f   uafxcwd:dlgdata.obj
 0001:00046980       ?DDV_MinMaxByte@@YAXPAVCDataExchange@@EEE@Z 00057980 f   uafxcwd:dlgdata.obj
 0001:00046a50       ?DDV_MinMaxShort@@YAXPAVCDataExchange@@FFF@Z 00057a50 f   uafxcwd:dlgdata.obj
 0001:00046b14       ?DDV_MinMaxInt@@YAXPAVCDataExchange@@HHH@Z 00057b14 f   uafxcwd:dlgdata.obj
 0001:00046bc8       ?DDV_MinMaxLong@@YAXPAVCDataExchange@@JJJ@Z 00057bc8 f   uafxcwd:dlgdata.obj
 0001:00046c7c       ?DDV_MinMaxUInt@@YAXPAVCDataExchange@@III@Z 00057c7c f   uafxcwd:dlgdata.obj
 0001:00046d24       ?DDV_MinMaxDWord@@YAXPAVCDataExchange@@KKK@Z 00057d24 f   uafxcwd:dlgdata.obj
 0001:00046dcc       ?DDV_MinMaxLongLong@@YAXPAVCDataExchange@@_J11@Z 00057dcc f   uafxcwd:dlgdata.obj
 0001:00046f40       ?DDV_MinMaxULongLong@@YAXPAVCDataExchange@@_K11@Z 00057f40 f   uafxcwd:dlgdata.obj
 0001:000470b4       ?DDV_MinMaxSlider@@YAXPAVCDataExchange@@KKK@Z 000580b4 f   uafxcwd:dlgdata.obj
 0001:000471e8       ?DDV_MaxChars@@YAXPAVCDataExchange@@ABV?$CStringT@_WV?$StrTraitMFC@_WV?$ChTraitsOS@_W@ATL@@@@@ATL@@H@Z 000581e8 f   uafxcwd:dlgdata.obj
 0001:00047360       ?DDX_Control@@YAXPAVCDataExchange@@HAAVCWnd@@@Z 00058360 f   uafxcwd:dlgdata.obj
 0001:000474f0       ?AfxGetScodeString@@YAPB_WJ@Z 000584f0 f   uafxcwd:olemisc.obj
 0001:0004758c       ?AfxGetScodeRangeString@@YAPB_WJ@Z 0005858c f   uafxcwd:olemisc.obj
 0001:00047650       ?AfxGetSeverityString@@YAPB_WJ@Z 00058650 f   uafxcwd:olemisc.obj
 0001:00047698       ?AfxGetFacilityString@@YAPB_WJ@Z 00058698 f   uafxcwd:olemisc.obj
 0001:00047714       ?AfxGetFullScodeString@@YAPB_WJ@Z 00058714 f   uafxcwd:olemisc.obj
 0001:00047894       ?AfxThrowOleException@@YAXJ@Z 00058894 f   uafxcwd:olemisc.obj
 0001:000479a0       ?GetErrorMessage@COleException@@UBAHPA_WIPAI@Z 000589a0 f   uafxcwd:olemisc.obj
 0001:00047aac       ?Process@COleException@@SAJPBVCException@@@Z 00058aac f   uafxcwd:olemisc.obj
 0001:00047b7c       ?AfxMergeMenus@@YAPAUHMENU__@@PAU1@0PAJHH@Z 00058b7c f   uafxcwd:olemisc.obj
 0001:000480c8       ?AfxUnmergeMenus@@YAXPAUHMENU__@@00@Z 000590c8 f   uafxcwd:olemisc.obj
 0001:00048328       ?_AfxFillFormatEtc@@YAPAUtagFORMATETC@@PAU1@G0@Z 00059328 f   uafxcwd:olemisc.obj
 0001:00048428       ?_AfxCopyGlobalMemory@@YAPAXPAX0@Z 00059428 f   uafxcwd:olemisc.obj
 0001:00048598       ?_AfxCopyStgMedium@@YAHGPAUtagSTGMEDIUM@@0@Z 00059598 f   uafxcwd:olemisc.obj
 0001:00048fbc       ?_AfxXformSizeInPixelsToHimetric@@YAXPAUHDC__@@PAUtagSIZE@@1@Z 00059fbc f   uafxcwd:olemisc.obj
 0001:000490a8       ?_AfxXformSizeInHimetricToPixels@@YAXPAUHDC__@@PAUtagSIZE@@1@Z 0005a0a8 f   uafxcwd:olemisc.obj
 0001:00049194       ?GetRuntimeClass@COleException@@UBAPAUCRuntimeClass@@XZ 0005a194 f   uafxcwd:olemisc.obj
 0001:000491c0       ?AtlCoTaskMemCAlloc@ATL@@YAPAXKK@Z 0005a1c0 f i uafxcwd:olemisc.obj
 0001:00049230       ??$AtlMultiply@K@ATL@@YAJPAKKK@Z 0005a230 f i uafxcwd:olemisc.obj
 0001:000492c8       ?MulDiv@ATL@@YAHHHH@Z      0005a2c8 f i uafxcwd:olemisc.obj
 0001:00049354       ??3CException@@SAXPAX@Z    0005a354 f   uafxcwd:except.obj
 0001:00049418       ??3CException@@SAXPAXPBDH@Z 0005a418 f   uafxcwd:except.obj
 0001:00049434       ??0CException@@QAA@XZ      0005a434 f   uafxcwd:except.obj
 0001:00049498       ??0CException@@QAA@H@Z     0005a498 f   uafxcwd:except.obj
 0001:000494fc       ?Delete@CException@@QAAXXZ 0005a4fc f   uafxcwd:except.obj
 0001:00049590       ?GetErrorMessage@CException@@UBAHPA_WIPAI@Z 0005a590 f   uafxcwd:except.obj
 0001:000495f4       ?GetErrorMessage@CException@@UAAHPA_WIPAI@Z 0005a5f4 f   uafxcwd:except.obj
 0001:00049648       ?ReportError@CException@@UAAHII@Z 0005a648 f   uafxcwd:except.obj
 0001:0004972c       ??0AFX_EXCEPTION_LINK@@QAA@XZ 0005a72c f   uafxcwd:except.obj
 0001:00049790       ?AfxTryCleanup@@YAXXZ      0005a790 f   uafxcwd:except.obj
 0001:00049834       ?AfxThrowLastCleanup@@YAXXZ 0005a834 f   uafxcwd:except.obj
 0001:00049880       ?GetRuntimeClass@CException@@UBAPAUCRuntimeClass@@XZ 0005a880 f   uafxcwd:except.obj
 0001:000498ac       ?GetRuntimeClass@CMemoryException@@UBAPAUCRuntimeClass@@XZ 0005a8ac f   uafxcwd:except.obj
 0001:000498d8       ?GetRuntimeClass@CNotSupportedException@@UBAPAUCRuntimeClass@@XZ 0005a8d8 f   uafxcwd:except.obj
 0001:00049904       ?GetRuntimeClass@CInvalidArgException@@UBAPAUCRuntimeClass@@XZ 0005a904 f   uafxcwd:except.obj
 0001:00049930       ?InitString@CSimpleException@@QAAXXZ 0005a930 f   uafxcwd:except.obj
 0001:000499ac       ?GetErrorMessage@CSimpleException@@UBAHPA_WIPAI@Z 0005a9ac f   uafxcwd:except.obj
 0001:00049abc       ?AfxThrowMemoryException@@YAXXZ 0005aabc f   uafxcwd:except.obj
 0001:00049aec       ?AfxThrowNotSupportedException@@YAXXZ 0005aaec f   uafxcwd:except.obj
 0001:00049b1c       ?AfxThrowInvalidArgException@@YAXXZ 0005ab1c f   uafxcwd:except.obj
 0001:00049b4c       ?AfxGetExceptionContext@@YAPAUAFX_EXCEPTION_CONTEXT@@XZ 0005ab4c f i uafxcwd:except.obj
 0001:00049ba0       ??$HashKey@VCComBSTR@ATL@@@@YAIVCComBSTR@ATL@@@Z 0005aba0 f   uafxcwd:strcore.obj
 0001:00049c58       ??$SerializeElements@VCComBSTR@ATL@@@@YAXAAVCArchive@@PAVCComBSTR@ATL@@H@Z 0005ac58 f   uafxcwd:strcore.obj
 0001:00049c7c       ??$HashKey@PB_W@@YAIPB_W@Z 0005ac7c f   uafxcwd:strcore.obj
 0001:00049d64       ??$SerializeElements@V?$CStringT@DV?$StrTraitMFC@DV?$ChTraitsOS@D@ATL@@@@@ATL@@@@YAXAAVCArchive@@PAV?$CStringT@DV?$StrTraitMFC@DV?$ChTraitsOS@D@ATL@@@@@ATL@@H@Z 0005ad64 f   uafxcwd:strcore.obj
 0001:00049d88       ??$SerializeElements@V?$CStringT@_WV?$StrTraitMFC@_WV?$ChTraitsOS@_W@ATL@@@@@ATL@@@@YAXAAVCArchive@@PAV?$CStringT@_WV?$StrTraitMFC@_WV?$ChTraitsOS@_W@ATL@@@@@ATL@@H@Z 0005ad88 f   uafxcwd:strcore.obj
 0001:00049dac       ?AfxGetStringManager@@YAPAUIAtlStringMgr@ATL@@XZ 0005adac f   uafxcwd:strcore.obj
 0001:00049dc8       ?Allocate@CAfxStringMgr@@UAAPAUCStringData@ATL@@HH@Z 0005adc8 f   uafxcwd:strcore.obj
 0001:00049ee4       ?Free@CAfxStringMgr@@UAAXPAUCStringData@ATL@@@Z 0005aee4 f   uafxcwd:strcore.obj
 0001:00049f00       ?Reallocate@CAfxStringMgr@@UAAPAUCStringData@ATL@@PAU23@HH@Z 0005af00 f   uafxcwd:strcore.obj
 0001:00049ff4       ?GetNilString@CAfxStringMgr@@UAAPAUCStringData@ATL@@XZ 0005aff4 f   uafxcwd:strcore.obj
 0001:0004a02c       ?Clone@CAfxStringMgr@@UAAPAUIAtlStringMgr@ATL@@XZ 0005b02c f   uafxcwd:strcore.obj
 0001:0004a054       ??$SerializeElementsInsertExtract@VCComBSTR@ATL@@@@YAXAAVCArchive@@PAVCComBSTR@ATL@@H@Z 0005b054 f i uafxcwd:strcore.obj
 0001:0004a204       ??$SerializeElementsInsertExtract@V?$CStringT@DV?$StrTraitMFC@DV?$ChTraitsOS@D@ATL@@@@@ATL@@@@YAXAAVCArchive@@PAV?$CStringT@DV?$StrTraitMFC@DV?$ChTraitsOS@D@ATL@@@@@ATL@@H@Z 0005b204 f i uafxcwd:strcore.obj
 0001:0004a394       ??$SerializeElementsInsertExtract@V?$CStringT@_WV?$StrTraitMFC@_WV?$ChTraitsOS@_W@ATL@@@@@ATL@@@@YAXAAVCArchive@@PAV?$CStringT@_WV?$StrTraitMFC@_WV?$ChTraitsOS@_W@ATL@@@@@ATL@@H@Z 0005b394 f i uafxcwd:strcore.obj
 0001:0004a524       ??$?6DV?$StrTraitMFC@DV?$ChTraitsOS@D@ATL@@@@@CArchive@@QAAAAV0@ABV?$CStringT@DV?$StrTraitMFC@DV?$ChTraitsOS@D@ATL@@@@@ATL@@@Z 0005b524 f i uafxcwd:strcore.obj
 0001:0004a598       ??$?5DV?$StrTraitMFC@DV?$ChTraitsOS@D@ATL@@@@@CArchive@@QAAAAV0@AAV?$CStringT@DV?$StrTraitMFC@DV?$ChTraitsOS@D@ATL@@@@@ATL@@@Z 0005b598 f i uafxcwd:strcore.obj
 0001:0004a7d0       ??$?6_WV?$StrTraitMFC@_WV?$ChTraitsOS@_W@ATL@@@@@CArchive@@QAAAAV0@ABV?$CStringT@_WV?$StrTraitMFC@_WV?$ChTraitsOS@_W@ATL@@@@@ATL@@@Z 0005b7d0 f i uafxcwd:strcore.obj
 0001:0004a84c       ??$?5_WV?$StrTraitMFC@_WV?$ChTraitsOS@_W@ATL@@@@@CArchive@@QAAAAV0@AAV?$CStringT@_WV?$StrTraitMFC@_WV?$ChTraitsOS@_W@ATL@@@@@ATL@@@Z 0005b84c f i uafxcwd:strcore.obj
 0001:0004aa84       ??B?$CSimpleStringT@D$0A@@ATL@@QBAPBDXZ 0005ba84 f i uafxcwd:strcore.obj
 0001:0004aab0       ?GetLength@?$CSimpleStringT@D$0A@@ATL@@QBAHXZ 0005bab0 f i uafxcwd:strcore.obj
 0001:0004aaec       ??0?$CStringT@_WV?$StrTraitMFC@_WV?$ChTraitsOS@_W@ATL@@@@@ATL@@QAA@PB_WH@Z 0005baec f i uafxcwd:strcore.obj
 0001:0004ab3c       ??0?$CStringT@_WV?$StrTraitMFC@_WV?$ChTraitsOS@_W@ATL@@@@@ATL@@QAA@PBDH@Z 0005bb3c f i uafxcwd:strcore.obj
 0001:0004acb0       ??0?$CTempBuffer@_W$0IA@VCCRTAllocator@ATL@@@ATL@@QAA@I@Z 0005bcb0 f i uafxcwd:strcore.obj
 0001:0004acf0       ??0?$CStringT@DV?$StrTraitMFC@DV?$ChTraitsOS@D@ATL@@@@@ATL@@QAA@PBDH@Z 0005bcf0 f i uafxcwd:strcore.obj
 0001:0004ad40       ??0?$CStringT@DV?$StrTraitMFC@DV?$ChTraitsOS@D@ATL@@@@@ATL@@QAA@PB_WH@Z 0005bd40 f i uafxcwd:strcore.obj
 0001:0004aebc       ??1?$CStringT@DV?$StrTraitMFC@DV?$ChTraitsOS@D@ATL@@@@@ATL@@QAA@XZ 0005bebc f i uafxcwd:strcore.obj
 0001:0004aed8       ??4?$CStringT@DV?$StrTraitMFC@DV?$ChTraitsOS@D@ATL@@@@@ATL@@QAAAAV01@ABV01@@Z 0005bed8 f i uafxcwd:strcore.obj
 0001:0004af0c       ??0?$CTempBuffer@D$0IA@VCCRTAllocator@ATL@@@ATL@@QAA@I@Z 0005bf0c f i uafxcwd:strcore.obj
 0001:0004af4c       ??1?$CTempBuffer@D$0IA@VCCRTAllocator@ATL@@@ATL@@QAA@XZ 0005bf4c f i uafxcwd:strcore.obj
 0001:0004af80       ??B?$CTempBuffer@D$0IA@VCCRTAllocator@ATL@@@ATL@@QBAPADXZ 0005bf80 f i uafxcwd:strcore.obj
 0001:0004afac       ??0?$CSimpleStringT@D$0A@@ATL@@QAA@PAUIAtlStringMgr@1@@Z 0005bfac f i uafxcwd:strcore.obj
 0001:0004b08c       ??0?$CSimpleStringT@D$0A@@ATL@@QAA@PBDHPAUIAtlStringMgr@1@@Z 0005c08c f i uafxcwd:strcore.obj
 0001:0004b1cc       ??1?$CSimpleStringT@D$0A@@ATL@@QAA@XZ 0005c1cc f i uafxcwd:strcore.obj
 0001:0004b204       ??4?$CSimpleStringT@D$0A@@ATL@@QAAAAV01@ABV01@@Z 0005c204 f i uafxcwd:strcore.obj
 0001:0004b2e8       ?GetBuffer@?$CSimpleStringT@D$0A@@ATL@@QAAPADH@Z 0005c2e8 f i uafxcwd:strcore.obj
 0001:0004b320       ?ReleaseBufferSetLength@?$CSimpleStringT@D$0A@@ATL@@QAAXH@Z 0005c320 f i uafxcwd:strcore.obj
 0001:0004b390       ?GetData@?$CSimpleStringT@D$0A@@ATL@@ABAPAUCStringData@2@XZ 0005c390 f i uafxcwd:strcore.obj
 0001:0004b3c0       ?GetBaseTypeLength@?$ChTraitsOS@D@ATL@@SAHPB_WH@Z 0005c3c0 f i uafxcwd:strcore.obj
 0001:0004b428       ?ConvertToBaseType@?$ChTraitsOS@D@ATL@@SAXPADHPB_WH@Z 0005c428 f i uafxcwd:strcore.obj
 0001:0004b480       ?GetDefaultManager@?$StrTraitMFC@DV?$ChTraitsOS@D@ATL@@@@SAPAUIAtlStringMgr@ATL@@XZ 0005c480 f i uafxcwd:strcore.obj
 0001:0004b4a8       ?Allocate@?$CTempBuffer@D$0IA@VCCRTAllocator@ATL@@@ATL@@QAAPADI@Z 0005c4a8 f i uafxcwd:strcore.obj
 0001:0004b4f0       ?FreeHeap@?$CTempBuffer@D$0IA@VCCRTAllocator@ATL@@@ATL@@AAAXXZ 0005c4f0 f i uafxcwd:strcore.obj
 0001:0004b510       ?Free@CCRTAllocator@ATL@@SAXPAX@Z 0005c510 f i uafxcwd:strcore.obj
 0001:0004b52c       ?GetString@?$CSimpleStringT@D$0A@@ATL@@QBAPBDXZ 0005c52c f i uafxcwd:strcore.obj
 0001:0004b558       ?SetString@?$CSimpleStringT@D$0A@@ATL@@QAAXPBDH@Z 0005c558 f i uafxcwd:strcore.obj
 0001:0004b63c       ?CopyChars@?$CSimpleStringT@D$0A@@ATL@@SAXPADIPBDH@Z 0005c63c f i uafxcwd:strcore.obj
 0001:0004b664       ?ThrowMemoryException@?$CSimpleStringT@D$0A@@ATL@@KAXXZ 0005c664 f i uafxcwd:strcore.obj
 0001:0004b67c       ?Attach@?$CSimpleStringT@D$0A@@ATL@@AAAXPAUCStringData@2@@Z 0005c67c f i uafxcwd:strcore.obj
 0001:0004b6b0       ?PrepareWrite@?$CSimpleStringT@D$0A@@ATL@@AAAPADH@Z 0005c6b0 f i uafxcwd:strcore.obj
 0001:0004b738       ?SetLength@?$CSimpleStringT@D$0A@@ATL@@AAAXH@Z 0005c738 f i uafxcwd:strcore.obj
 0001:0004b868       ?CloneData@?$CSimpleStringT@D$0A@@ATL@@CAPAUCStringData@2@PAU32@@Z 0005c868 f i uafxcwd:strcore.obj
 0001:0004b9a8       ?AllocateBytes@?$CTempBuffer@D$0IA@VCCRTAllocator@ATL@@@ATL@@QAAPADI@Z 0005c9a8 f i uafxcwd:strcore.obj
 0001:0004ba4c       ?Empty@?$CSimpleStringT@D$0A@@ATL@@QAAXXZ 0005ca4c f i uafxcwd:strcore.obj
 0001:0004bb04       ?CopyCharsOverlapped@?$CSimpleStringT@D$0A@@ATL@@SAXPADIPBDH@Z 0005cb04 f i uafxcwd:strcore.obj
 0001:0004bb2c       ?PrepareWrite2@?$CSimpleStringT@D$0A@@ATL@@AAAXH@Z 0005cb2c f i uafxcwd:strcore.obj
 0001:0004bc24       ?AllocateHeap@?$CTempBuffer@D$0IA@VCCRTAllocator@ATL@@@ATL@@AAAXI@Z 0005cc24 f i uafxcwd:strcore.obj
 0001:0004bc78       ?Allocate@CCRTAllocator@ATL@@SAPAXI@Z 0005cc78 f i uafxcwd:strcore.obj
 0001:0004bcac       ?Fork@?$CSimpleStringT@D$0A@@ATL@@AAAXH@Z 0005ccac f i uafxcwd:strcore.obj
 0001:0004bdd8       ?Reallocate@?$CSimpleStringT@D$0A@@ATL@@AAAXH@Z 0005cdd8 f i uafxcwd:strcore.obj
 0001:0004bee0       ?AtlIsValidAddress@ATL@@YAHPBXIH@Z 0005cee0 f i uafxcwd:strcore.obj
 0001:0004bf28       ??0CComBSTR@ATL@@QAA@ABV01@@Z 0005cf28 f i uafxcwd:strcore.obj
 0001:0004bfa4       ?Length@CComBSTR@ATL@@QBAIXZ 0005cfa4 f i uafxcwd:strcore.obj
 0001:0004bfdc       ?Copy@CComBSTR@ATL@@QBAPA_WXZ 0005cfdc f i uafxcwd:strcore.obj
 0001:0004c04c       ??7CComBSTR@ATL@@QBA_NXZ   0005d04c f i uafxcwd:strcore.obj
 0001:0004c09c       ??1CComBSTR@ATL@@QAA@XZ    0005d09c f i uafxcwd:strcore.obj
 0001:0004c0bc       ?GetBaseTypeLength@?$ChTraitsOS@_W@ATL@@SAHPBDH@Z 0005d0bc f i uafxcwd:strcore.obj
 0001:0004c114       ?ConvertToBaseType@?$ChTraitsOS@_W@ATL@@SAXPA_WHPBDH@Z 0005d114 f i uafxcwd:strcore.obj
 0001:0004c15c       ??1?$CTempBuffer@_W$0IA@VCCRTAllocator@ATL@@@ATL@@QAA@XZ 0005d15c f i uafxcwd:strcore.obj
 0001:0004c190       ??B?$CTempBuffer@_W$0IA@VCCRTAllocator@ATL@@@ATL@@QBAPA_WXZ 0005d190 f i uafxcwd:strcore.obj
 0001:0004c1bc       ?Allocate@?$CTempBuffer@_W$0IA@VCCRTAllocator@ATL@@@ATL@@QAAPA_WI@Z 0005d1bc f i uafxcwd:strcore.obj
 0001:0004c204       ?AllocateBytes@?$CTempBuffer@_W$0IA@VCCRTAllocator@ATL@@@ATL@@QAAPA_WI@Z 0005d204 f i uafxcwd:strcore.obj
 0001:0004c2a8       ?FreeHeap@?$CTempBuffer@_W$0IA@VCCRTAllocator@ATL@@@ATL@@AAAXXZ 0005d2a8 f i uafxcwd:strcore.obj
 0001:0004c2c8       ?AllocateHeap@?$CTempBuffer@_W$0IA@VCCRTAllocator@ATL@@@ATL@@AAAXI@Z 0005d2c8 f i uafxcwd:strcore.obj
 0001:0004c31c       ??$AtlMultiplyThrow@I@ATL@@YAIII@Z 0005d31c f i uafxcwd:strcore.obj
 0001:0004c374       ??$AtlMultiply@I@ATL@@YAJPAIII@Z 0005d374 f i uafxcwd:strcore.obj
 0001:0004c40c       ??0CAfxStringMgr@@QAA@XZ   0005d40c f i uafxcwd:strcore.obj
 0001:0004c460       ??0CNilStringData@ATL@@QAA@XZ 0005d460 f i uafxcwd:strcore.obj
 0001:0004c4e4       ?SetManager@CNilStringData@ATL@@QAAXPAUIAtlStringMgr@2@@Z 0005d4e4 f i uafxcwd:strcore.obj
 0001:0004c55c       ??0CFileDialog@@QAA@HPB_W0K0PAVCWnd@@K@Z 0005d55c f   uafxcwd:dlgfile.obj
 0001:0004cbc0       ??1CFileDialog@@UAA@XZ     0005dbc0 f   uafxcwd:dlgfile.obj
 0001:0004cc08       ?GetOFN@CFileDialog@@QBAABUtagOFNW@@XZ 0005dc08 f   uafxcwd:dlgfile.obj
 0001:0004cc38       ?GetOFN@CFileDialog@@QAAAAUtagOFNW@@XZ 0005dc38 f   uafxcwd:dlgfile.obj
 0001:0004cc68       ?DoModal@CFileDialog@@UAAHXZ 0005dc68 f   uafxcwd:dlgfile.obj
 0001:0004d45c       ?GetPathName@CFileDialog@@QBA?AV?$CStringT@_WV?$StrTraitMFC@_WV?$ChTraitsOS@_W@ATL@@@@@ATL@@XZ 0005e45c f   uafxcwd:dlgfile.obj
 0001:0004d4e0       ?GetFileName@CFileDialog@@QBA?AV?$CStringT@_WV?$StrTraitMFC@_WV?$ChTraitsOS@_W@ATL@@@@@ATL@@XZ 0005e4e0 f   uafxcwd:dlgfile.obj
 0001:0004d564       ?GetFileExt@CFileDialog@@QBA?AV?$CStringT@_WV?$StrTraitMFC@_WV?$ChTraitsOS@_W@ATL@@@@@ATL@@XZ 0005e564 f   uafxcwd:dlgfile.obj
 0001:0004d798       ?GetFileTitleW@CFileDialog@@QBA?AV?$CStringT@_WV?$StrTraitMFC@_WV?$ChTraitsOS@_W@ATL@@@@@ATL@@XZ 0005e798 f   uafxcwd:dlgfile.obj
 0001:0004d844       ?GetNextPathName@CFileDialog@@QBA?AV?$CStringT@_WV?$StrTraitMFC@_WV?$ChTraitsOS@_W@ATL@@@@@ATL@@AAPAU__POSITION@@@Z 0005e844 f   uafxcwd:dlgfile.obj
 0001:0004df00       ?SetTemplate@CFileDialog@@QAAXPB_W0@Z 0005ef00 f   uafxcwd:dlgfile.obj
 0001:0004e054       ?GetFolderPath@CFileDialog@@QBA?AV?$CStringT@_WV?$StrTraitMFC@_WV?$ChTraitsOS@_W@ATL@@@@@ATL@@XZ 0005f054 f   uafxcwd:dlgfile.obj
 0001:0004e1dc       ?SetControlText@CFileDialog@@QAAXHPB_W@Z 0005f1dc f   uafxcwd:dlgfile.obj
 0001:0004e2d4       ?SetControlText@CFileDialog@@QAAXHPBD@Z 0005f2d4 f   uafxcwd:dlgfile.obj
 0001:0004e400       ?HideControl@CFileDialog@@QAAXH@Z 0005f400 f   uafxcwd:dlgfile.obj
 0001:0004e4f4       ?SetDefExt@CFileDialog@@QAAXPBD@Z 0005f4f4 f   uafxcwd:dlgfile.obj
 0001:0004e5e8       ?OnShareViolation@CFileDialog@@MAAIPB_W@Z 0005f5e8 f   uafxcwd:dlgfile.obj
 0001:0004e624       ?OnFileNameOK@CFileDialog@@MAAHXZ 0005f624 f   uafxcwd:dlgfile.obj
 0001:0004e660       ?OnLBSelChangedNotify@CFileDialog@@MAAXIII@Z 0005f660 f   uafxcwd:dlgfile.obj
 0001:0004e688       ?OnInitDone@CFileDialog@@MAAXXZ 0005f688 f   uafxcwd:dlgfile.obj
 0001:0004e6d0       ?OnFileNameChange@CFileDialog@@MAAXXZ 0005f6d0 f   uafxcwd:dlgfile.obj
 0001:0004e6fc       ?OnFolderChange@CFileDialog@@MAAXXZ 0005f6fc f   uafxcwd:dlgfile.obj
 0001:0004e728       ?OnTypeChange@CFileDialog@@MAAXXZ 0005f728 f   uafxcwd:dlgfile.obj
 0001:0004e754       ?OnNotify@CFileDialog@@MAAHIJPAJ@Z 0005f754 f   uafxcwd:dlgfile.obj
 0001:0004e988       ?GetRuntimeClass@CFileDialog@@UBAPAUCRuntimeClass@@XZ 0005f988 f   uafxcwd:dlgfile.obj
 0001:0004e9b4       ??_ECFileDialog@@UAAPAXI@Z 0005f9b4 f i uafxcwd:dlgfile.obj
 0001:0004e9b4       ??_GCFileDialog@@UAAPAXI@Z 0005f9b4 f i uafxcwd:dlgfile.obj
 0001:0004e9f8       ?GetBuffer@?$CSimpleStringT@_W$0A@@ATL@@QAAPA_WXZ 0005f9f8 f i uafxcwd:dlgfile.obj
 0001:0004ea64       ?Left@?$CStringT@_WV?$StrTraitMFC@_WV?$ChTraitsOS@_W@ATL@@@@@ATL@@QBA?AV12@H@Z 0005fa64 f i uafxcwd:dlgfile.obj
 0001:0004eb30       ?PathRemoveExtension@ATL@@YAXPA_W@Z 0005fb30 f i uafxcwd:dlgfile.obj
 0001:0004eba8       ?wcschr@@YAPA_WPA_W_W@Z    0005fba8 f i uafxcwd:dlgfile.obj
 0001:0004ebe0       ?tsplitpath_s@Checked@ATL@@YAXPB_WPA_WI1I1I1I@Z 0005fbe0 f i uafxcwd:dlgfile.obj
 0001:0004ec44       ?tmakepath_s@Checked@ATL@@YAXPA_WIPB_W111@Z 0005fc44 f i uafxcwd:dlgfile.obj
 0001:0004ec98       ??0?$CStringT@_WV?$StrTraitMFC@_WV?$ChTraitsOS@_W@ATL@@@@@ATL@@QAA@PBD@Z 0005fc98 f i uafxcwd:dlgfile.obj
 0001:0004ed18       ??4?$CStringT@_WV?$StrTraitMFC@_WV?$ChTraitsOS@_W@ATL@@@@@ATL@@QAAAAV01@PBD@Z 0005fd18 f i uafxcwd:dlgfile.obj
 0001:0004edc4       ?GetBaseTypeLength@?$ChTraitsOS@_W@ATL@@SAHPBD@Z 0005fdc4 f i uafxcwd:dlgfile.obj
 0001:0004ee20       ?AfxLoadString@@YAHIPADI@Z 0005fe20 f   uafxcwd:winstr.obj
 0001:0004ef80       ?AfxLoadString@@YAHIPA_WI@Z 0005ff80 f   uafxcwd:winstr.obj
 0001:0004f104       ?AfxFindStringResourceHandle@@YAPAUHINSTANCE__@@I@Z 00060104 f   uafxcwd:winstr.obj
 0001:0004f134       ?AfxExtractSubString@@YAHAAV?$CStringT@_WV?$StrTraitMFC@_WV?$ChTraitsOS@_W@ATL@@@@@ATL@@PB_WH_W@Z 00060134 f   uafxcwd:winstr.obj
 0001:0004f29c       ??0AFX_MAINTAIN_STATE2@@QAA@PAVAFX_MODULE_STATE@@@Z 0006029c f   uafxcwd:afxstate.obj
 0001:0004f2c4       ??0_AFX_THREAD_STATE@@QAA@XZ 000602c4 f   uafxcwd:afxstate.obj
 0001:0004f374       ??1_AFX_THREAD_STATE@@UAA@XZ 00060374 f   uafxcwd:afxstate.obj
 0001:0004f41c       ?AfxGetThreadState@@YAPAV_AFX_THREAD_STATE@@XZ 0006041c f   uafxcwd:afxstate.obj
 0001:0004f4c4       ??0AFX_MODULE_STATE@@QAA@H@Z 000604c4 f   uafxcwd:afxstate.obj
 0001:0004f71c       ??1AFX_MODULE_STATE@@UAA@XZ 0006071c f   uafxcwd:afxstate.obj
 0001:0004f8b4       ?RemoveAll@CTypeLibCacheMap@@UAAXPAX@Z 000608b4 f   uafxcwd:afxstate.obj
 0001:0004f930       ??0AFX_MODULE_THREAD_STATE@@QAA@XZ 00060930 f   uafxcwd:afxstate.obj
 0001:0004f9c8       ??1AFX_MODULE_THREAD_STATE@@UAA@XZ 000609c8 f   uafxcwd:afxstate.obj
 0001:0004fd3c       ?AfxGetAppModuleState@@YAPAVAFX_MODULE_STATE@@XZ 00060d3c f   uafxcwd:afxstate.obj
 0001:0004fd6c       ?AfxGetModuleState@@YAPAVAFX_MODULE_STATE@@XZ 00060d6c f   uafxcwd:afxstate.obj
 0001:0004febc       ?AfxGetInstanceHandleHelper@@YAPAUHINSTANCE__@@XZ 00060ebc f   uafxcwd:afxstate.obj
 0001:0004feec       ?AfxIsModuleDll@@YAHXZ     00060eec f   uafxcwd:afxstate.obj
 0001:0004ff1c       ?AfxInitCurrentStateApp@@YAHXZ 00060f1c f   uafxcwd:afxstate.obj
 0001:0004ffb8       ?AfxGetModuleThreadState@@YAPAVAFX_MODULE_THREAD_STATE@@XZ 00060fb8 f   uafxcwd:afxstate.obj
 0001:00050064       ?Unlock@CTypeLibCache@@QAAXXZ 00061064 f   uafxcwd:afxstate.obj
 0001:00050180       ??0_AFX_AYGSHELL_STATE@@QAA@XZ 00061180 f   uafxcwd:afxstate.obj
 0001:000506e4       ??1_AFX_AYGSHELL_STATE@@UAA@XZ 000616e4 f   uafxcwd:afxstate.obj
 0001:00050744       ?_AfxGetAygshellState@@YAABU_AFX_AYGSHELL_STATE@@XZ 00061744 f   uafxcwd:afxstate.obj
 0001:000507f4       ?AfxIsAygshellSupported@@YAHXZ 000617f4 f   uafxcwd:afxstate.obj
 0001:0005084c       ?AfxGetAygshellUIModel@@YAHXZ 0006184c f   uafxcwd:afxstate.obj
 0001:00050884       ?AfxIsDRAEnabled@@YAHXZ    00061884 f   uafxcwd:afxstate.obj
 0001:000508bc       ?AfxEnableDRA@@YAXH@Z      000618bc f   uafxcwd:afxstate.obj
 0001:000508f8       ??_E_AFX_THREAD_STATE@@UAAPAXI@Z 000618f8 f i uafxcwd:afxstate.obj
 0001:000508f8       ??_G_AFX_THREAD_STATE@@UAAPAXI@Z 000618f8 f i uafxcwd:afxstate.obj
 0001:0005093c       ??_EAFX_MODULE_STATE@@UAAPAXI@Z 0006193c f i uafxcwd:afxstate.obj
 0001:0005093c       ??_GAFX_MODULE_STATE@@UAAPAXI@Z 0006193c f i uafxcwd:afxstate.obj
 0001:00050980       ??1?$CThreadLocal@VAFX_MODULE_THREAD_STATE@@@@QAA@XZ 00061980 f i uafxcwd:afxstate.obj
 0001:0005099c       ??_EAFX_MODULE_THREAD_STATE@@UAAPAXI@Z 0006199c f i uafxcwd:afxstate.obj
 0001:0005099c       ??_GAFX_MODULE_THREAD_STATE@@UAAPAXI@Z 0006199c f i uafxcwd:afxstate.obj
 0001:000509e0       ??_G_AFX_AYGSHELL_STATE@@UAAPAXI@Z 000619e0 f i uafxcwd:afxstate.obj
 0001:000509e0       ??_E_AFX_AYGSHELL_STATE@@UAAPAXI@Z 000619e0 f i uafxcwd:afxstate.obj
 0001:00050a24       ??0?$CTypedSimpleList@PAVCFrameWnd@@@@QAA@H@Z 00061a24 f i uafxcwd:afxstate.obj
 0001:00050a58       ??0?$CTypedSimpleList@PAUCRuntimeClass@@@@QAA@H@Z 00061a58 f i uafxcwd:afxstate.obj
 0001:00050a8c       ??0?$CTypedSimpleList@PAVCOleObjectFactory@@@@QAA@H@Z 00061a8c f i uafxcwd:afxstate.obj
 0001:00050ac0       ??0?$CTypedSimpleList@PAVCOleControlLock@@@@QAA@H@Z 00061ac0 f i uafxcwd:afxstate.obj
 0001:00050af4       ??B?$CThreadLocal@V_AFX_THREAD_STATE@@@@QAAPAV_AFX_THREAD_STATE@@XZ 00061af4 f i uafxcwd:afxstate.obj
 0001:00050b28       ?GetData@?$CProcessLocal@V_AFX_BASE_MODULE_STATE@@@@QAAPAV_AFX_BASE_MODULE_STATE@@XZ 00061b28 f i uafxcwd:afxstate.obj
 0001:00050bdc       ?CreateObject@?$CProcessLocal@V_AFX_BASE_MODULE_STATE@@@@SAPAVCNoTrackObject@@XZ 00061bdc f i uafxcwd:afxstate.obj
 0001:00050c58       ??0_AFX_BASE_MODULE_STATE@@QAA@XZ 00061c58 f i uafxcwd:afxstate.obj
 0001:00050ca0       ??_G_AFX_BASE_MODULE_STATE@@UAAPAXI@Z 00061ca0 f i uafxcwd:afxstate.obj
 0001:00050ca0       ??_E_AFX_BASE_MODULE_STATE@@UAAPAXI@Z 00061ca0 f i uafxcwd:afxstate.obj
 0001:00050ce4       ??1_AFX_BASE_MODULE_STATE@@UAA@XZ 00061ce4 f i uafxcwd:afxstate.obj
 0001:00050d00       ?GetStartPosition@?$CMap@PAXPAXPAXPAX@@QBAPAU__POSITION@@XZ 00061d00 f i uafxcwd:afxstate.obj
 0001:00050d50       ?GetNextAssoc@?$CMap@PAXPAXPAXPAX@@QBAXAAPAU__POSITION@@AAPAX1@Z 00061d50 f i uafxcwd:afxstate.obj
 0001:00051078       ?IsEmpty@?$CList@PAXPAX@@QBAHXZ 00062078 f i uafxcwd:afxstate.obj
 0001:000510c8       ?RemoveHead@?$CList@PAXPAX@@QAAPAXXZ 000620c8 f i uafxcwd:afxstate.obj
 0001:00051214       ?FreeNode@?$CList@PAXPAX@@IAAXPAUCNode@1@@Z 00062214 f i uafxcwd:afxstate.obj
 0001:000512c4       ?RemoveAll@?$CList@PAXPAX@@QAAXXZ 000622c4 f i uafxcwd:afxstate.obj
 0001:00051388       ??0CSimpleList@@QAA@H@Z    00062388 f i uafxcwd:afxstate.obj
 0001:000513cc       ?Construct@CSimpleList@@QAAXH@Z 000623cc f i uafxcwd:afxstate.obj
 0001:0005142c       ??1CNoTrackObject@@UAA@XZ  0006242c f i uafxcwd:afxstate.obj
 0001:00051450       ??_GCNoTrackObject@@UAAPAXI@Z 00062450 f i uafxcwd:afxstate.obj
 0001:00051450       ??_ECNoTrackObject@@UAAPAXI@Z 00062450 f i uafxcwd:afxstate.obj
 0001:00051494       ??0CTypeLibCache@@QAA@XZ   00062494 f i uafxcwd:afxstate.obj
 0001:00051504       ??0CComCtlWrapper@@QAA@XZ  00062504 f i uafxcwd:afxstate.obj
 0001:000517bc       ??0InitCommonControls_Type@CComCtlWrapper@@QAA@XZ 000627bc f i uafxcwd:afxstate.obj
 0001:000517f0       ??0InitCommonControlsEx_Type@CComCtlWrapper@@QAA@XZ 000627f0 f i uafxcwd:afxstate.obj
 0001:00051824       ??0ImageList_Create_Type@CComCtlWrapper@@QAA@XZ 00062824 f i uafxcwd:afxstate.obj
 0001:00051858       ??0ImageList_Destroy_Type@CComCtlWrapper@@QAA@XZ 00062858 f i uafxcwd:afxstate.obj
 0001:0005188c       ??0ImageList_GetImageCount_Type@CComCtlWrapper@@QAA@XZ 0006288c f i uafxcwd:afxstate.obj
 0001:000518c0       ??0ImageList_SetImageCount_Type@CComCtlWrapper@@QAA@XZ 000628c0 f i uafxcwd:afxstate.obj
 0001:000518f4       ??0ImageList_Add_Type@CComCtlWrapper@@QAA@XZ 000628f4 f i uafxcwd:afxstate.obj
 0001:00051928       ??0ImageList_ReplaceIcon_Type@CComCtlWrapper@@QAA@XZ 00062928 f i uafxcwd:afxstate.obj
 0001:0005195c       ??0ImageList_SetBkColor_Type@CComCtlWrapper@@QAA@XZ 0006295c f i uafxcwd:afxstate.obj
 0001:00051990       ??0ImageList_GetBkColor_Type@CComCtlWrapper@@QAA@XZ 00062990 f i uafxcwd:afxstate.obj
 0001:000519c4       ??0ImageList_SetOverlayImage_Type@CComCtlWrapper@@QAA@XZ 000629c4 f i uafxcwd:afxstate.obj
 0001:000519f8       ??0ImageList_Draw_Type@CComCtlWrapper@@QAA@XZ 000629f8 f i uafxcwd:afxstate.obj
 0001:00051a2c       ??0ImageList_Replace_Type@CComCtlWrapper@@QAA@XZ 00062a2c f i uafxcwd:afxstate.obj
 0001:00051a60       ??0ImageList_AddMasked_Type@CComCtlWrapper@@QAA@XZ 00062a60 f i uafxcwd:afxstate.obj
 0001:00051a94       ??0ImageList_DrawEx_Type@CComCtlWrapper@@QAA@XZ 00062a94 f i uafxcwd:afxstate.obj
 0001:00051ac8       ??0ImageList_DrawIndirect_Type@CComCtlWrapper@@QAA@XZ 00062ac8 f i uafxcwd:afxstate.obj
 0001:00051afc       ??0ImageList_Remove_Type@CComCtlWrapper@@QAA@XZ 00062afc f i uafxcwd:afxstate.obj
 0001:00051b30       ??0ImageList_GetIcon_Type@CComCtlWrapper@@QAA@XZ 00062b30 f i uafxcwd:afxstate.obj
 0001:00051b64       ??0ImageList_LoadImage_Type@CComCtlWrapper@@QAA@XZ 00062b64 f i uafxcwd:afxstate.obj
 0001:00051b98       ??0ImageList_Copy_Type@CComCtlWrapper@@QAA@XZ 00062b98 f i uafxcwd:afxstate.obj
 0001:00051bcc       ??0ImageList_BeginDrag_Type@CComCtlWrapper@@QAA@XZ 00062bcc f i uafxcwd:afxstate.obj
 0001:00051c00       ??0ImageList_EndDrag_Type@CComCtlWrapper@@QAA@XZ 00062c00 f i uafxcwd:afxstate.obj
 0001:00051c34       ??0ImageList_DragEnter_Type@CComCtlWrapper@@QAA@XZ 00062c34 f i uafxcwd:afxstate.obj
 0001:00051c68       ??0ImageList_DragLeave_Type@CComCtlWrapper@@QAA@XZ 00062c68 f i uafxcwd:afxstate.obj
 0001:00051c9c       ??0ImageList_DragMove_Type@CComCtlWrapper@@QAA@XZ 00062c9c f i uafxcwd:afxstate.obj
 0001:00051cd0       ??0ImageList_SetDragCursorImage_Type@CComCtlWrapper@@QAA@XZ 00062cd0 f i uafxcwd:afxstate.obj
 0001:00051d04       ??0ImageList_DragShowNolock_Type@CComCtlWrapper@@QAA@XZ 00062d04 f i uafxcwd:afxstate.obj
 0001:00051d38       ??0ImageList_GetDragImage_Type@CComCtlWrapper@@QAA@XZ 00062d38 f i uafxcwd:afxstate.obj
 0001:00051d6c       ??0ImageList_GetIconSize_Type@CComCtlWrapper@@QAA@XZ 00062d6c f i uafxcwd:afxstate.obj
 0001:00051da0       ??0ImageList_SetIconSize_Type@CComCtlWrapper@@QAA@XZ 00062da0 f i uafxcwd:afxstate.obj
 0001:00051dd4       ??0ImageList_GetImageInfo_Type@CComCtlWrapper@@QAA@XZ 00062dd4 f i uafxcwd:afxstate.obj
 0001:00051e08       ??0ImageList_Merge_Type@CComCtlWrapper@@QAA@XZ 00062e08 f i uafxcwd:afxstate.obj
 0001:00051e3c       ??0ImageList_Duplicate_Type@CComCtlWrapper@@QAA@XZ 00062e3c f i uafxcwd:afxstate.obj
 0001:00051e70       ??0CreateToolbarEx_Type@CComCtlWrapper@@QAA@XZ 00062e70 f i uafxcwd:afxstate.obj
 0001:00051ea4       ??0DrawStatusTextA_Type@CComCtlWrapper@@QAA@XZ 00062ea4 f i uafxcwd:afxstate.obj
 0001:00051ed8       ??0DrawStatusTextW_Type@CComCtlWrapper@@QAA@XZ 00062ed8 f i uafxcwd:afxstate.obj
 0001:00051f0c       ??0CreateStatusWindowA_Type@CComCtlWrapper@@QAA@XZ 00062f0c f i uafxcwd:afxstate.obj
 0001:00051f40       ??0CreateStatusWindowW_Type@CComCtlWrapper@@QAA@XZ 00062f40 f i uafxcwd:afxstate.obj
 0001:00051f74       ??0CreateUpDownControl_Type@CComCtlWrapper@@QAA@XZ 00062f74 f i uafxcwd:afxstate.obj
 0001:00051fa8       ??0Str_SetPtrW_Type@CComCtlWrapper@@QAA@XZ 00062fa8 f i uafxcwd:afxstate.obj
 0001:00051fdc       ??0CreatePropertySheetPageA_Type@CComCtlWrapper@@QAA@XZ 00062fdc f i uafxcwd:afxstate.obj
 0001:00052010       ??0CreatePropertySheetPageW_Type@CComCtlWrapper@@QAA@XZ 00063010 f i uafxcwd:afxstate.obj
 0001:00052044       ??0DestroyPropertySheetPage_Type@CComCtlWrapper@@QAA@XZ 00063044 f i uafxcwd:afxstate.obj
 0001:00052078       ??0PropertySheetA_Type@CComCtlWrapper@@QAA@XZ 00063078 f i uafxcwd:afxstate.obj
 0001:000520ac       ??0PropertySheetW_Type@CComCtlWrapper@@QAA@XZ 000630ac f i uafxcwd:afxstate.obj
 0001:000520e0       ??_GCComCtlWrapper@@UAAPAXI@Z 000630e0 f i uafxcwd:afxstate.obj
 0001:000520e0       ??_ECComCtlWrapper@@UAAPAXI@Z 000630e0 f i uafxcwd:afxstate.obj
 0001:00052124       ??1CComCtlWrapper@@UAA@XZ  00063124 f i uafxcwd:afxstate.obj
 0001:000521a8       ??0CNoTrackObject@@QAA@XZ  000631a8 f i uafxcwd:afxstate.obj
 0001:000521e0       ?Preallocate@?$CSimpleStringT@_W$0A@@ATL@@QAAXH@Z 000631e0 f i uafxcwd:afxstate.obj
 0001:00052200       ??1?$CThreadLocal@V_AFX_THREAD_STATE@@@@QAA@XZ 00063200 f i uafxcwd:afxstate.obj
 0001:0005221c       ??1?$CProcessLocal@V_AFX_BASE_MODULE_STATE@@@@QAA@XZ 0006321c f i uafxcwd:afxstate.obj
 0001:00052238       ?GetRuntimeClass@CObject@@UBAPAUCRuntimeClass@@XZ 00063238 f   uafxcwd:objcore.obj
 0001:00052264       ?IsKindOf@CObject@@QBAHPBUCRuntimeClass@@@Z 00063264 f   uafxcwd:objcore.obj
 0001:000523d4       ?AfxDynamicDownCast@@YAPAVCObject@@PAUCRuntimeClass@@PAV1@@Z 000633d4 f   uafxcwd:objcore.obj
 0001:00052434       ?AfxStaticDownCast@@YAPAVCObject@@PAUCRuntimeClass@@PAV1@@Z 00063434 f   uafxcwd:objcore.obj
 0001:000524a8       ?AfxAssertValidObject@@YAXPBVCObject@@PBDH@Z 000634a8 f   uafxcwd:objcore.obj
 0001:000526f8       ?AssertValid@CObject@@UBAXXZ 000636f8 f   uafxcwd:objcore.obj
 0001:0005274c       ?CreateObject@CRuntimeClass@@QAAPAVCObject@@XZ 0006374c f   uafxcwd:objcore.obj
 0001:000528e8       ?IsSerializable@CObject@@QBAHXZ 000638e8 f   uafxcwd:objcore.obj
 0001:0005295c       ?AfxClassInit@@YAXPAUCRuntimeClass@@@Z 0006395c f   uafxcwd:objcore.obj
 0001:000529a8       ?IsDerivedFrom@CRuntimeClass@@QBAHPBU1@@Z 000639a8 f   uafxcwd:objcore.obj
 0001:00052b6c       ?AfxDoForAllClasses@@YAXP6AXPBUCRuntimeClass@@PAX@Z1@Z 00063b6c f   uafxcwd:objcore.obj
 0001:00052bf8       ?AddHead@?$CTypedSimpleList@PAUCRuntimeClass@@@@QAAXPAUCRuntimeClass@@@Z 00063bf8 f i uafxcwd:objcore.obj
 0001:00052c18       ??B?$CTypedSimpleList@PAUCRuntimeClass@@@@QAAPAUCRuntimeClass@@XZ 00063c18 f i uafxcwd:objcore.obj
 0001:00052c4c       ??_Estringdispid@CComTypeInfoHolder@ATL@@QAAPAXI@Z 00063c4c f i uafxcwd:objcore.obj
 0001:00052ce4       ??1stringdispid@CComTypeInfoHolder@ATL@@QAA@XZ 00063ce4 f i uafxcwd:objcore.obj
 0001:00052d00       ?AfxOleOnReleaseAllObjects@@YAXXZ 00063d00 f   uafxcwd:olelock.obj
 0001:00052dd8       ?AfxOleCanExitApp@@YAHXZ   00063dd8 f   uafxcwd:olelock.obj
 0001:00052e30       ?AfxOleLockApp@@YAXXZ      00063e30 f   uafxcwd:olelock.obj
 0001:00052e60       ?AfxOleUnlockApp@@YAXXZ    00063e60 f   uafxcwd:olelock.obj
 0001:00052edc       ?AfxOleSetUserCtrl@@YAXH@Z 00063edc f   uafxcwd:olelock.obj
 0001:00052fc8       ?AfxOleGetUserCtrl@@YAHXZ  00063fc8 f   uafxcwd:olelock.obj
 0001:00053000       ?AfxWinInit@@YAHPAUHINSTANCE__@@0PA_WH@Z 00064000 f   uafxcwd:appinit.obj
 0001:000530fc       ?SetCurrentHandles@CWinApp@@QAAXXZ 000640fc f   uafxcwd:appinit.obj
 0001:000534b0       ?AfxGetFileName@@YAIPB_WPA_WI@Z 000644b0 f   uafxcwd:appinit.obj
 0001:00053620       ?PathFindFileName@ATL@@YAPA_WPB_W@Z 00064620 f i uafxcwd:appinit.obj
 0001:000536b8       ??0CTraceCategory@ATL@@QAA@PB_WI@Z 000646b8 f i uafxcwd:appinit.obj
 0001:00053724       ?ChangeCategory@CTrace@ATL@@QAA_NKIW4ATLTRACESTATUS@2@@Z 00064724 f i uafxcwd:appinit.obj
 0001:00053788       ?RegisterCategory@CTrace@ATL@@QAAKPB_W@Z 00064788 f i uafxcwd:appinit.obj
 0001:000537c8       ??0CDC@@QAA@XZ             000647c8 f   uafxcwd:wingdi.obj
 0001:00053868       ?AssertValid@CDC@@UBAXXZ   00064868 f   uafxcwd:wingdi.obj
 0001:0005388c       ?afxMapHDC@@YAPAVCHandleMap@@H@Z 0006488c f   uafxcwd:wingdi.obj
 0001:000539b4       ?FromHandle@CDC@@SAPAV1@PAUHDC__@@@Z 000649b4 f   uafxcwd:wingdi.obj
 0001:00053a80       ?Attach@CDC@@QAAHPAUHDC__@@@Z 00064a80 f   uafxcwd:wingdi.obj
 0001:00053bc4       ?Detach@CDC@@QAAPAUHDC__@@XZ 00064bc4 f   uafxcwd:wingdi.obj
 0001:00053c68       ?DeleteDC@CDC@@QAAHXZ      00064c68 f   uafxcwd:wingdi.obj
 0001:00053cd0       ??1CDC@@UAA@XZ             00064cd0 f   uafxcwd:wingdi.obj
 0001:00053d44       ?SetAttribDC@CDC@@UAAXPAUHDC__@@@Z 00064d44 f   uafxcwd:wingdi.obj
 0001:00053d68       ?SetOutputDC@CDC@@UAAXPAUHDC__@@@Z 00064d68 f   uafxcwd:wingdi.obj
 0001:00053e40       ?ReleaseAttribDC@CDC@@UAAXXZ 00064e40 f   uafxcwd:wingdi.obj
 0001:00053e64       ?ReleaseOutputDC@CDC@@UAAXXZ 00064e64 f   uafxcwd:wingdi.obj
 0001:00053f3c       ?SaveDC@CDC@@UAAHXZ        00064f3c f   uafxcwd:wingdi.obj
 0001:0005401c       ?RestoreDC@CDC@@UAAHH@Z    0006501c f   uafxcwd:wingdi.obj
 0001:00054174       ?SelectGdiObject@CDC@@KAPAVCGdiObject@@PAUHDC__@@PAX@Z 00065174 f   uafxcwd:wingdi.obj
 0001:000541b8       ?SelectStockObject@CDC@@UAAPAVCGdiObject@@H@Z 000651b8 f   uafxcwd:wingdi.obj
 0001:000542e4       ?SelectObject@CDC@@QAAPAVCPen@@PAV2@@Z 000652e4 f   uafxcwd:wingdi.obj
 0001:000543e4       ?SelectObject@CDC@@QAAPAVCBrush@@PAV2@@Z 000653e4 f   uafxcwd:wingdi.obj
 0001:000544e4       ?SelectObject@CDC@@UAAPAVCFont@@PAV2@@Z 000654e4 f   uafxcwd:wingdi.obj
 0001:000545e4       ?SelectObject@CDC@@QAAHPAVCRgn@@@Z 000655e4 f   uafxcwd:wingdi.obj
 0001:000546d8       ?SelectPalette@CDC@@QAAPAVCPalette@@PAV2@H@Z 000656d8 f   uafxcwd:wingdi.obj
 0001:0005476c       ?SetBkColor@CDC@@UAAKK@Z   0006576c f   uafxcwd:wingdi.obj
 0001:00054848       ?SetBkMode@CDC@@QAAHH@Z    00065848 f   uafxcwd:wingdi.obj
 0001:00054924       ?SetROP2@CDC@@QAAHH@Z      00065924 f   uafxcwd:wingdi.obj
 0001:00054a04       ?SetTextColor@CDC@@UAAKK@Z 00065a04 f   uafxcwd:wingdi.obj
 0001:00054ae0       ?SetGraphicsMode@CDC@@QAAHH@Z 00065ae0 f   uafxcwd:wingdi.obj
 0001:00054b48       ?SetWorldTransform@CDC@@QAAHPBUtagXFORM@@@Z 00065b48 f   uafxcwd:wingdi.obj
 0001:00054bb4       ?ModifyWorldTransform@CDC@@QAAHPBUtagXFORM@@K@Z 00065bb4 f   uafxcwd:wingdi.obj
 0001:00054c1c       ?GetClipBox@CDC@@UBAHPAUtagRECT@@@Z 00065c1c f   uafxcwd:wingdi.obj
 0001:00054c98       ?SelectClipRgn@CDC@@QAAHPAVCRgn@@@Z 00065c98 f   uafxcwd:wingdi.obj
 0001:00054d90       ?ExcludeClipRect@CDC@@QAAHHHHH@Z 00065d90 f   uafxcwd:wingdi.obj
 0001:00054e90       ?ExcludeClipRect@CDC@@QAAHPBUtagRECT@@@Z 00065e90 f   uafxcwd:wingdi.obj
 0001:00054fc8       ?IntersectClipRect@CDC@@QAAHHHHH@Z 00065fc8 f   uafxcwd:wingdi.obj
 0001:000550c8       ?IntersectClipRect@CDC@@QAAHPBUtagRECT@@@Z 000660c8 f   uafxcwd:wingdi.obj
 0001:00055200       ?MoveTo@CDC@@QAA?AVCPoint@@HH@Z 00066200 f   uafxcwd:wingdi.obj
 0001:00055358       ?LineTo@CDC@@QAAHHH@Z      00066358 f   uafxcwd:wingdi.obj
 0001:00055428       ?SetTextAlign@CDC@@QAAII@Z 00066428 f   uafxcwd:wingdi.obj
 0001:000554fc       ?GetLayout@CDC@@QBAKXZ     000664fc f   uafxcwd:wingdi.obj
 0001:00055578       ?SetLayout@CDC@@QAAKK@Z    00066578 f   uafxcwd:wingdi.obj
 0001:000555fc       ?ScreenToClient@CWnd@@QBAXPAUtagRECT@@@Z 000665fc f   uafxcwd:wingdi.obj
 0001:000556ac       ?ClientToScreen@CWnd@@QBAXPAUtagRECT@@@Z 000666ac f   uafxcwd:wingdi.obj
 0001:00055758       ?PolylineTo@CDC@@QAAHPBUtagPOINT@@H@Z 00066758 f   uafxcwd:wingdi.obj
 0001:00055978       ?SelectClipRgn@CDC@@QAAHPAVCRgn@@H@Z 00066978 f   uafxcwd:wingdi.obj
 0001:00055a78       ?LPtoDP@CDC@@QBAXPAUtagSIZE@@@Z 00066a78 f   uafxcwd:wingdi.obj
 0001:00055b74       ?DPtoLP@CDC@@QBAXPAUtagSIZE@@@Z 00066b74 f   uafxcwd:wingdi.obj
 0001:00055c70       ?AssertValid@CClientDC@@UBAXXZ 00066c70 f   uafxcwd:wingdi.obj
 0001:00055cf8       ??0CClientDC@@QAA@PAVCWnd@@@Z 00066cf8 f   uafxcwd:wingdi.obj
 0001:00055e00       ??1CClientDC@@UAA@XZ       00066e00 f   uafxcwd:wingdi.obj
 0001:00055ea8       ?AssertValid@CWindowDC@@UBAXXZ 00066ea8 f   uafxcwd:wingdi.obj
 0001:00055f30       ??0CWindowDC@@QAA@PAVCWnd@@@Z 00066f30 f   uafxcwd:wingdi.obj
 0001:00056038       ??1CWindowDC@@UAA@XZ       00067038 f   uafxcwd:wingdi.obj
 0001:000560e0       ?AssertValid@CPaintDC@@UBAXXZ 000670e0 f   uafxcwd:wingdi.obj
 0001:00056154       ??0CPaintDC@@QAA@PAVCWnd@@@Z 00067154 f   uafxcwd:wingdi.obj
 0001:0005626c       ??1CPaintDC@@UAA@XZ        0006726c f   uafxcwd:wingdi.obj
 0001:0005635c       ?AssertValid@CGdiObject@@UBAXXZ 0006735c f   uafxcwd:wingdi.obj
 0001:000563f8       ?afxMapHGDIOBJ@@YAPAVCHandleMap@@H@Z 000673f8 f   uafxcwd:wingdi.obj
 0001:00056520       ?FromHandle@CGdiObject@@SAPAV1@PAX@Z 00067520 f   uafxcwd:wingdi.obj
 0001:000565f4       ?Attach@CGdiObject@@QAAHPAX@Z 000675f4 f   uafxcwd:wingdi.obj
 0001:000566dc       ?Detach@CGdiObject@@QAAPAXXZ 000676dc f   uafxcwd:wingdi.obj
 0001:00056764       ?DeleteObject@CGdiObject@@QAAHXZ 00067764 f   uafxcwd:wingdi.obj
 0001:000567cc       ??0CPen@@QAA@HHK@Z         000677cc f   uafxcwd:wingdi.obj
 0001:00056864       ??0CBrush@@QAA@K@Z         00067864 f   uafxcwd:wingdi.obj
 0001:000568f4       ??0CBrush@@QAA@PAVCBitmap@@@Z 000678f4 f   uafxcwd:wingdi.obj
 0001:0005699c       ?CreateDIBPatternBrush@CBrush@@QAAHPAXI@Z 0006799c f   uafxcwd:wingdi.obj
 0001:00056a58       ?GetRuntimeClass@CResourceException@@UBAPAUCRuntimeClass@@XZ 00067a58 f   uafxcwd:wingdi.obj
 0001:00056a84       ?GetRuntimeClass@CUserException@@UBAPAUCRuntimeClass@@XZ 00067a84 f   uafxcwd:wingdi.obj
 0001:00056ab8       ?CreateObject@CDC@@SAPAVCObject@@XZ 00067ab8 f   uafxcwd:wingdi.obj
 0001:00056b34       ?GetRuntimeClass@CDC@@UBAPAUCRuntimeClass@@XZ 00067b34 f   uafxcwd:wingdi.obj
 0001:00056b60       ?GetRuntimeClass@CClientDC@@UBAPAUCRuntimeClass@@XZ 00067b60 f   uafxcwd:wingdi.obj
 0001:00056b8c       ?GetRuntimeClass@CWindowDC@@UBAPAUCRuntimeClass@@XZ 00067b8c f   uafxcwd:wingdi.obj
 0001:00056bb8       ?GetRuntimeClass@CPaintDC@@UBAPAUCRuntimeClass@@XZ 00067bb8 f   uafxcwd:wingdi.obj
 0001:00056bec       ?CreateObject@CGdiObject@@SAPAVCObject@@XZ 00067bec f   uafxcwd:wingdi.obj
 0001:00056c68       ?GetRuntimeClass@CGdiObject@@UBAPAUCRuntimeClass@@XZ 00067c68 f   uafxcwd:wingdi.obj
 0001:00056c94       ?GetRuntimeClass@CPen@@UBAPAUCRuntimeClass@@XZ 00067c94 f   uafxcwd:wingdi.obj
 0001:00056cc0       ?GetRuntimeClass@CBrush@@UBAPAUCRuntimeClass@@XZ 00067cc0 f   uafxcwd:wingdi.obj
 0001:00056cec       ?GetRuntimeClass@CFont@@UBAPAUCRuntimeClass@@XZ 00067cec f   uafxcwd:wingdi.obj
 0001:00056d18       ?GetRuntimeClass@CBitmap@@UBAPAUCRuntimeClass@@XZ 00067d18 f   uafxcwd:wingdi.obj
 0001:00056d44       ?GetRuntimeClass@CPalette@@UBAPAUCRuntimeClass@@XZ 00067d44 f   uafxcwd:wingdi.obj
 0001:00056d70       ?GetRuntimeClass@CRgn@@UBAPAUCRuntimeClass@@XZ 00067d70 f   uafxcwd:wingdi.obj
 0001:00056d9c       ?AfxThrowResourceException@@YAXXZ 00067d9c f   uafxcwd:wingdi.obj
 0001:00056dcc       ?AfxThrowUserException@@YAXXZ 00067dcc f   uafxcwd:wingdi.obj
 0001:00056e04       ?AfxGetGrayBitmap@@YAXABVCBitmap@@PAV1@K@Z 00067e04 f   uafxcwd:wingdi.obj
 0001:0005730c       ?AfxDrawGrayBitmap@@YAXPAVCDC@@HHABVCBitmap@@K@Z 0006830c f   uafxcwd:wingdi.obj
 0001:000577e8       ??_ECDC@@UAAPAXI@Z         000687e8 f i uafxcwd:wingdi.obj
 0001:000577e8       ??_GCDC@@UAAPAXI@Z         000687e8 f i uafxcwd:wingdi.obj
 0001:0005782c       ??_GCClientDC@@UAAPAXI@Z   0006882c f i uafxcwd:wingdi.obj
 0001:0005782c       ??_ECClientDC@@UAAPAXI@Z   0006882c f i uafxcwd:wingdi.obj
 0001:00057870       ??_GCWindowDC@@UAAPAXI@Z   00068870 f i uafxcwd:wingdi.obj
 0001:00057870       ??_ECWindowDC@@UAAPAXI@Z   00068870 f i uafxcwd:wingdi.obj
 0001:000578b4       ??_GCPaintDC@@UAAPAXI@Z    000688b4 f i uafxcwd:wingdi.obj
 0001:000578b4       ??_ECPaintDC@@UAAPAXI@Z    000688b4 f i uafxcwd:wingdi.obj
 0001:000578f8       ?ExtSelectClipRgn@ATL@@YAHPAUHDC__@@PAUHRGN__@@H@Z 000688f8 f i uafxcwd:wingdi.obj
 0001:00057a30       ?CreatePen@ATL@@YAPAUHPEN__@@HHK@Z 00068a30 f i uafxcwd:wingdi.obj
 0001:00057acc       ?Construct@?$ConstructDestruct@VCDC@@@@SAXPAVCObject@@@Z 00068acc f i uafxcwd:wingdi.obj
 0001:00057b50       ?Destruct@?$ConstructDestruct@VCDC@@@@SAXPAVCObject@@@Z 00068b50 f i uafxcwd:wingdi.obj
 0001:00057b9c       ?Construct@?$ConstructDestruct@VCGdiObject@@@@SAXPAVCObject@@@Z 00068b9c f i uafxcwd:wingdi.obj
 0001:00057c20       ?Destruct@?$ConstructDestruct@VCGdiObject@@@@SAXPAVCObject@@@Z 00068c20 f i uafxcwd:wingdi.obj
 0001:00057c6c       ??0CDocTemplate@@IAA@IPAUCRuntimeClass@@00@Z 00068c6c f   uafxcwd:doctempl.obj
 0001:00057fb4       ?LoadTemplate@CDocTemplate@@UAAXXZ 00068fb4 f   uafxcwd:doctempl.obj
 0001:00058064       ??1CDocTemplate@@UAA@XZ    00069064 f   uafxcwd:doctempl.obj
 0001:0005809c       ?GetDocString@CDocTemplate@@UBAHAAV?$CStringT@_WV?$StrTraitMFC@_WV?$ChTraitsOS@_W@ATL@@@@@ATL@@W4DocStringIndex@1@@Z 0006909c f   uafxcwd:doctempl.obj
 0001:000580ec       ?AddDocument@CDocTemplate@@UAAXPAVCDocument@@@Z 000690ec f   uafxcwd:doctempl.obj
 0001:00058164       ?RemoveDocument@CDocTemplate@@UAAXPAVCDocument@@@Z 00069164 f   uafxcwd:doctempl.obj
 0001:000581e8       ?MatchDocType@CDocTemplate@@UAA?AW4Confidence@1@PB_WAAPAVCDocument@@@Z 000691e8 f   uafxcwd:doctempl.obj
 0001:00058428       ?CreateNewDocument@CDocTemplate@@UAAPAVCDocument@@XZ 00069428 f   uafxcwd:doctempl.obj
 0001:000585bc       ?CreateNewFrame@CDocTemplate@@UAAPAVCFrameWnd@@PAVCDocument@@PAV2@@Z 000695bc f   uafxcwd:doctempl.obj
 0001:000588e8       ?InitialUpdateFrame@CDocTemplate@@UAAXPAVCFrameWnd@@PAVCDocument@@H@Z 000698e8 f   uafxcwd:doctempl.obj
 0001:0005890c       ?SaveAllModified@CDocTemplate@@UAAHXZ 0006990c f   uafxcwd:doctempl.obj
 0001:000589d0       ?CloseAllDocuments@CDocTemplate@@UAAXH@Z 000699d0 f   uafxcwd:doctempl.obj
 0001:00058a6c       ?OnIdle@CDocTemplate@@UAAXXZ 00069a6c f   uafxcwd:doctempl.obj
 0001:00058b68       ?OnCmdMsg@CDocTemplate@@UAAHIHPAXPAUAFX_CMDHANDLERINFO@@@Z 00069b68 f   uafxcwd:doctempl.obj
 0001:00058bb8       ?AssertValid@CDocTemplate@@UBAXXZ 00069bb8 f   uafxcwd:doctempl.obj
 0001:00058c58       ?GetRuntimeClass@CDocTemplate@@UBAPAUCRuntimeClass@@XZ 00069c58 f   uafxcwd:doctempl.obj
 0001:00058c8c       ??0?$CList@PAXPAX@@QAA@H@Z 00069c8c f i uafxcwd:doctempl.obj
 0001:00058d7c       ?Serialize@?$CList@PAXPAX@@UAAXAAVCArchive@@@Z 00069d7c f i uafxcwd:doctempl.obj
 0001:00058ecc       ?AssertValid@?$CList@PAXPAX@@UBAXXZ 00069ecc f i uafxcwd:doctempl.obj
 0001:00059020       ??_E?$CList@PAXPAX@@UAAPAXI@Z 0006a020 f i uafxcwd:doctempl.obj
 0001:00059020       ??_G?$CList@PAXPAX@@UAAPAXI@Z 0006a020 f i uafxcwd:doctempl.obj
 0001:0005906c       ??1?$CList@PAXPAX@@UAA@XZ  0006a06c f i uafxcwd:doctempl.obj
 0001:000590fc       ?AddHead@CSimpleList@@QAAXPAX@Z 0006a0fc f   uafxcwd:afxtls.obj
 0001:000591b8       ?Remove@CSimpleList@@QAAHPAX@Z 0006a1b8 f   uafxcwd:afxtls.obj
 0001:0005934c       ??2CNoTrackObject@@SAPAXI@Z 0006a34c f   uafxcwd:afxtls.obj
 0001:0005939c       ??3CNoTrackObject@@SAXPAX@Z 0006a39c f   uafxcwd:afxtls.obj
 0001:000593c4       ??0CThreadSlotData@@QAA@XZ 0006a3c4 f   uafxcwd:afxtls.obj
 0001:00059480       ??1CThreadSlotData@@QAA@XZ 0006a480 f   uafxcwd:afxtls.obj
 0001:0005955c       ?AllocSlot@CThreadSlotData@@QAAHXZ 0006a55c f   uafxcwd:afxtls.obj
 0001:0005986c       ?FreeSlot@CThreadSlotData@@QAAXH@Z 0006a86c f   uafxcwd:afxtls.obj
 0001:00059ac4       ?SetValue@CThreadSlotData@@QAAXHPAX@Z 0006aac4 f   uafxcwd:afxtls.obj
 0001:00059f2c       ?AssignInstance@CThreadSlotData@@QAAXPAUHINSTANCE__@@@Z 0006af2c f   uafxcwd:afxtls.obj
 0001:0005a07c       ?DeleteValues@CThreadSlotData@@QAAXPAUCThreadData@@PAUHINSTANCE__@@@Z 0006b07c f   uafxcwd:afxtls.obj
 0001:0005a2a8       ?DeleteValues@CThreadSlotData@@QAAXPAUHINSTANCE__@@H@Z 0006b2a8 f   uafxcwd:afxtls.obj
 0001:0005a378       ?GetData@CThreadLocalObject@@QAAPAVCNoTrackObject@@P6APAV2@XZ@Z 0006b378 f   uafxcwd:afxtls.obj
 0001:0005a650       ?GetDataNA@CThreadLocalObject@@QAAPAVCNoTrackObject@@XZ 0006b650 f   uafxcwd:afxtls.obj
 0001:0005a6c8       ??1CThreadLocalObject@@QAA@XZ 0006b6c8 f   uafxcwd:afxtls.obj
 0001:0005a728       ?GetData@CProcessLocalObject@@QAAPAVCNoTrackObject@@P6APAV2@XZ@Z 0006b728 f   uafxcwd:afxtls.obj
 0001:0005a820       ??1CProcessLocalObject@@QAA@XZ 0006b820 f   uafxcwd:afxtls.obj
 0001:0005a8a8       ?AfxInitLocalData@@YAXPAUHINSTANCE__@@@Z 0006b8a8 f   uafxcwd:afxtls.obj
 0001:0005a8e0       ?AfxTermLocalData@@YAXPAUHINSTANCE__@@H@Z 0006b8e0 f   uafxcwd:afxtls.obj
 0001:0005a91c       ?AfxTlsAddRef@@YAXXZ       0006b91c f   uafxcwd:afxtls.obj
 0001:0005a938       ?AfxTlsRelease@@YAXXZ      0006b938 f   uafxcwd:afxtls.obj
 0001:0005a9ac       TlsAlloc                   0006b9ac f i uafxcwd:afxtls.obj
 0001:0005a9dc       TlsFree                    0006b9dc f i uafxcwd:afxtls.obj
 0001:0005aa14       ??0CThreadData@@QAA@XZ     0006ba14 f i uafxcwd:afxtls.obj
 0001:0005aa58       ??_ECThreadData@@UAAPAXI@Z 0006ba58 f i uafxcwd:afxtls.obj
 0001:0005aa58       ??_GCThreadData@@UAAPAXI@Z 0006ba58 f i uafxcwd:afxtls.obj
 0001:0005aa9c       ??1CThreadData@@UAA@XZ     0006ba9c f i uafxcwd:afxtls.obj
 0001:0005aab8       ??3@YAXPAX0@Z              0006bab8 f i uafxcwd:afxtls.obj
 0001:0005aacc       ?GetThreadValue@CThreadSlotData@@QAAPAXH@Z 0006bacc f i uafxcwd:afxtls.obj
 0001:0005acb4       ??_GCThreadSlotData@@QAAPAXI@Z 0006bcb4 f i uafxcwd:afxtls.obj
 0001:0005acf8       ??0?$CTypedSimpleList@PAUCThreadData@@@@QAA@H@Z 0006bcf8 f i uafxcwd:afxtls.obj
 0001:0005ad2c       ?AddHead@?$CTypedSimpleList@PAUCThreadData@@@@QAAXPAUCThreadData@@@Z 0006bd2c f i uafxcwd:afxtls.obj
 0001:0005ad4c       ?Remove@?$CTypedSimpleList@PAUCThreadData@@@@QAAHPAUCThreadData@@@Z 0006bd4c f i uafxcwd:afxtls.obj
 0001:0005ad84       ??B?$CTypedSimpleList@PAUCThreadData@@@@QAAPAUCThreadData@@XZ 0006bd84 f i uafxcwd:afxtls.obj
 0001:0005adb8       ?GetNextPtr@CSimpleList@@QBAPAPAXPAX@Z 0006bdb8 f i uafxcwd:afxtls.obj
 0001:0005ae58       ??2CThreadSlotData@@SAPAXIPAX@Z 0006be58 f i uafxcwd:afxtls.obj
 0001:0005ae88       ?GetErrorMessage@CArchiveException@@UBAHPA_WIPAI@Z 0006be88 f   uafxcwd:arcex.obj
 0001:0005b0a8       ?AfxThrowArchiveException@@YAXHPB_W@Z 0006c0a8 f   uafxcwd:arcex.obj
 0001:0005b1dc       ?GetRuntimeClass@CArchiveException@@UBAPAUCRuntimeClass@@XZ 0006c1dc f   uafxcwd:arcex.obj
 0001:0005b208       ?ThrowOsError@CFileException@@SAXJPB_W@Z 0006c208 f   uafxcwd:filex.obj
 0001:0005b254       ?GetErrorMessage@CFileException@@UBAHPA_WIPAI@Z 0006c254 f   uafxcwd:filex.obj
 0001:0005b3f8       ?AfxThrowFileException@@YAXHJPB_W@Z 0006c3f8 f   uafxcwd:filex.obj
 0001:0005b564       ?OsErrorToException@CFileException@@SAHJ@Z 0006c564 f   uafxcwd:filex.obj
 0001:0005bd1c       ?GetRuntimeClass@CFileException@@UBAPAUCRuntimeClass@@XZ 0006cd1c f   uafxcwd:filex.obj
 0001:0005bd48       ?AfxIsValidString@@YAHPB_WH@Z 0006cd48 f   uafxcwd:validadd.obj
 0001:0005bd80       ?AfxIsValidAddress@@YAHPBXIH@Z 0006cd80 f   uafxcwd:validadd.obj
 0001:0005bdbc       ?AfxReadStringLength@@YAIAAVCArchive@@AAH@Z 0006cdbc f   uafxcwd:arccore.obj
 0001:0005bf04       ?AfxWriteStringLength@@YAXAAVCArchive@@IH@Z 0006cf04 f   uafxcwd:arccore.obj
 0001:0005c008       ?CreateObject@CRuntimeClass@@SAPAVCObject@@PBD@Z 0006d008 f   uafxcwd:arccore.obj
 0001:0005c128       ?CreateObject@CRuntimeClass@@SAPAVCObject@@PB_W@Z 0006d128 f   uafxcwd:arccore.obj
 0001:0005c1c0       ?FromName@CRuntimeClass@@SAPAU1@PBD@Z 0006d1c0 f   uafxcwd:arccore.obj
 0001:0005c2f0       ?FromName@CRuntimeClass@@SAPAU1@PB_W@Z 0006d2f0 f   uafxcwd:arccore.obj
 0001:0005c390       ?Load@CRuntimeClass@@SAPAU1@AAVCArchive@@PAI@Z 0006d390 f   uafxcwd:arccore.obj
 0001:0005c4d8       ?Store@CRuntimeClass@@QBAXAAVCArchive@@@Z 0006d4d8 f   uafxcwd:arccore.obj
 0001:0005c55c       ??0CArchive@@QAA@PAVCFile@@IHPAX@Z 0006d55c f   uafxcwd:arccore.obj
 0001:0005c9f8       ??1CArchive@@QAA@XZ        0006d9f8 f   uafxcwd:arccore.obj
 0001:0005ca70       ?Abort@CArchive@@QAAXXZ    0006da70 f   uafxcwd:arccore.obj
 0001:0005cd78       ?Close@CArchive@@QAAXXZ    0006dd78 f   uafxcwd:arccore.obj
 0001:0005cdc4       ?Read@CArchive@@QAAIPAXI@Z 0006ddc4 f   uafxcwd:arccore.obj
 0001:0005d620       ?Write@CArchive@@QAAXPBXI@Z 0006e620 f   uafxcwd:arccore.obj
 0001:0005dcb4       ?Flush@CArchive@@QAAXXZ    0006ecb4 f   uafxcwd:arccore.obj
 0001:0005e164       ?FillBuffer@CArchive@@QAAXI@Z 0006f164 f   uafxcwd:arccore.obj
 0001:0005e838       ?WriteCount@CArchive@@QAAXK@Z 0006f838 f   uafxcwd:arccore.obj
 0001:0005e894       ?ReadCount@CArchive@@QAAKXZ 0006f894 f   uafxcwd:arccore.obj
 0001:0005e8f8       ?WriteString@CArchive@@QAAXPB_W@Z 0006f8f8 f   uafxcwd:arccore.obj
 0001:0005e984       ?ReadString@CArchive@@QAAPA_WPA_WI@Z 0006f984 f   uafxcwd:arccore.obj
 0001:0005ebe8       ?ReadString@CArchive@@QAAHAAV?$CStringT@_WV?$StrTraitMFC@_WV?$ChTraitsOS@_W@ATL@@@@@ATL@@@Z 0006fbe8 f   uafxcwd:arccore.obj
 0001:0005ed94       ??0?$CStringT@DV?$StrTraitMFC@DV?$ChTraitsOS@D@ATL@@@@@ATL@@QAA@PB_W@Z 0006fd94 f i uafxcwd:arccore.obj
 0001:0005ee14       ??4?$CStringT@DV?$StrTraitMFC@DV?$ChTraitsOS@D@ATL@@@@@ATL@@QAAAAV01@PB_W@Z 0006fe14 f i uafxcwd:arccore.obj
 0001:0005eec0       ?CheckImplicitLoad@?$CStringT@DV?$StrTraitMFC@DV?$ChTraitsOS@D@ATL@@@@@ATL@@AAA_NPBX@Z 0006fec0 f i uafxcwd:arccore.obj
 0001:0005ef88       ?GetBaseTypeLength@?$ChTraitsOS@D@ATL@@SAHPB_W@Z 0006ff88 f i uafxcwd:arccore.obj
 0001:0005eff4       ?LoadStringW@?$CStringT@DV?$StrTraitMFC@DV?$ChTraitsOS@D@ATL@@@@@ATL@@QAAHI@Z 0006fff4 f i uafxcwd:arccore.obj
 0001:0005f05c       ?LoadStringW@?$CStringT@DV?$StrTraitMFC@DV?$ChTraitsOS@D@ATL@@@@@ATL@@QAAHPAUHINSTANCE__@@I@Z 0007005c f i uafxcwd:arccore.obj
 0001:0005f118       ?FindStringResourceInstance@?$StrTraitMFC@DV?$ChTraitsOS@D@ATL@@@@SAPAUHINSTANCE__@@I@Z 00070118 f i uafxcwd:arccore.obj
 0001:0005f14c       ?CheckCount@CArchive@@QAAXXZ 0007014c f   uafxcwd:arcobj.obj
 0001:0005f198       ?WriteObject@CArchive@@QAAXPBVCObject@@@Z 00070198 f   uafxcwd:arcobj.obj
 0001:0005f370       ?ReadObject@CArchive@@QAAPAVCObject@@PBUCRuntimeClass@@@Z 00070370 f   uafxcwd:arcobj.obj
 0001:0005f6f8       ?GetObjectSchema@CArchive@@QAAIXZ 000706f8 f   uafxcwd:arcobj.obj
 0001:0005f748       ?MapObject@CArchive@@QAAXPBVCObject@@@Z 00070748 f   uafxcwd:arcobj.obj
 0001:0005f9dc       ?WriteClass@CArchive@@QAAXPBUCRuntimeClass@@@Z 000709dc f   uafxcwd:arcobj.obj
 0001:0005fc30       ?ReadClass@CArchive@@QAAPAUCRuntimeClass@@PBU2@PAIPAK@Z 00070c30 f   uafxcwd:arcobj.obj
 0001:000601cc       ?SerializeClass@CArchive@@QAAXPBUCRuntimeClass@@@Z 000711cc f   uafxcwd:arcobj.obj
 0001:00060224       ?GetUpperBound@?$CArray@PAXPAX@@QBAHXZ 00071224 f i uafxcwd:arcobj.obj
 0001:00060258       ?GetAt@?$CArray@PAXPAX@@QAAAAPAXH@Z 00071258 f i uafxcwd:arcobj.obj
 0001:00060310       ?SetAt@?$CArray@PAXPAX@@QAAXHPAX@Z 00071310 f i uafxcwd:arcobj.obj
 0001:000603c8       ?InsertAt@?$CArray@PAXPAX@@QAAXHPAXH@Z 000713c8 f i uafxcwd:arcobj.obj
 0001:000606b0       ?Lookup@?$CMap@PAXPAXPAXPAX@@QBAHPAXAAPAX@Z 000716b0 f i uafxcwd:arcobj.obj
 0001:00060738       ??A?$CMap@PAXPAXPAXPAX@@QAAAAPAXPAX@Z 00071738 f i uafxcwd:arcobj.obj
 0001:000608c0       ?SetAt@?$CMap@PAXPAXPAXPAX@@QAAXPAX0@Z 000718c0 f i uafxcwd:arcobj.obj
 0001:000608f8       ?InitHashTable@?$CMap@PAXPAXPAXPAX@@QAAXIH@Z 000718f8 f i uafxcwd:arcobj.obj
 0001:00060ae4       ?NewAssoc@?$CMap@PAXPAXPAXPAX@@IAAPAVCAssoc@1@PAX@Z 00071ae4 f i uafxcwd:arcobj.obj
 0001:00060d80       ??0CAssoc@?$CMap@PAXPAXPAXPAX@@QAA@PAX@Z 00071d80 f i uafxcwd:arcobj.obj
 0001:00060db4       ??0CPair@?$CMap@PAXPAXPAXPAX@@IAA@PAX@Z 00071db4 f i uafxcwd:arcobj.obj
 0001:00060df0       ??0?$CMap@PAXPAXPAXPAX@@QAA@H@Z 00071df0 f i uafxcwd:arcobj.obj
 0001:00060ee0       ?Serialize@?$CMap@PAXPAXPAXPAX@@UAAXAAVCArchive@@@Z 00071ee0 f i uafxcwd:arcobj.obj
 0001:000610b4       ?AssertValid@?$CMap@PAXPAXPAXPAX@@UBAXXZ 000720b4 f i uafxcwd:arcobj.obj
 0001:00061164       ??_E?$CMap@PAXPAXPAXPAX@@UAAPAXI@Z 00072164 f i uafxcwd:arcobj.obj
 0001:00061164       ??_G?$CMap@PAXPAXPAXPAX@@UAAPAXI@Z 00072164 f i uafxcwd:arcobj.obj
 0001:000611b0       ??1?$CMap@PAXPAXPAXPAX@@UAA@XZ 000721b0 f i uafxcwd:arcobj.obj
 0001:00061240       ?RemoveAll@?$CMap@PAXPAXPAXPAX@@QAAXXZ 00072240 f i uafxcwd:arcobj.obj
 0001:0006136c       ?GetMessageMap@CCommonDialog@@MBAPBUAFX_MSGMAP@@XZ 0007236c f   uafxcwd:dlgcomm.obj
 0001:0006139c       ?GetThisMessageMap@CCommonDialog@@KAPBUAFX_MSGMAP@@XZ 0007239c f   uafxcwd:dlgcomm.obj
 0001:000613b8       ?_AfxCommDlgProc@@YAIPAUHWND__@@IIJ@Z 000723b8 f   uafxcwd:dlgcomm.obj
 0001:000619b0       ?OnOK@CCommonDialog@@MAAXXZ 000729b0 f   uafxcwd:dlgcomm.obj
 0001:00061b08       ?OnCancel@CCommonDialog@@MAAXXZ 00072b08 f   uafxcwd:dlgcomm.obj
 0001:00061b38       ?OnPaint@CCommonDialog@@IAAXXZ 00072b38 f   uafxcwd:dlgcomm.obj
 0001:00061b54       ?GetRuntimeClass@CCommonDialog@@UBAPAUCRuntimeClass@@XZ 00072b54 f   uafxcwd:dlgcomm.obj
 0001:00061b80       ?GetMessageMap@CControlBar@@MBAPBUAFX_MSGMAP@@XZ 00072b80 f   uafxcwd:barcore.obj
 0001:00061bb0       ?GetThisMessageMap@CControlBar@@KAPBUAFX_MSGMAP@@XZ 00072bb0 f   uafxcwd:barcore.obj
 0001:00061bcc       ??0CControlBar@@IAA@XZ     00072bcc f   uafxcwd:barcore.obj
 0001:00061cf4       ?SetInPlaceOwner@CControlBar@@QAAXPAVCWnd@@@Z 00072cf4 f   uafxcwd:barcore.obj
 0001:00061d18       ?SetBorders@CControlBar@@QAAXHHHH@Z 00072d18 f   uafxcwd:barcore.obj
 0001:00061e34       ?PreCreateWindow@CControlBar@@UAAHAAUtagCREATESTRUCTW@@@Z 00072e34 f   uafxcwd:barcore.obj
 0001:00061f90       ?SetBarStyle@CControlBar@@QAAXK@Z 00072f90 f   uafxcwd:barcore.obj
 0001:00062048       ?OnBarStyleChange@CControlBar@@UAAXKK@Z 00073048 f   uafxcwd:barcore.obj
 0001:0006205c       ?AllocElements@CControlBar@@QAAHHH@Z 0007305c f   uafxcwd:barcore.obj
 0001:00062274       ??1CControlBar@@UAA@XZ     00073274 f   uafxcwd:barcore.obj
 0001:00062370       ?PostNcDestroy@CControlBar@@UAAXXZ 00073370 f   uafxcwd:barcore.obj
 0001:000623f4       ?CalcFixedLayout@CControlBar@@UAA?AVCSize@@HH@Z 000733f4 f   uafxcwd:barcore.obj
 0001:000624a4       ?CalcDynamicLayout@CControlBar@@UAA?AVCSize@@HK@Z 000734a4 f   uafxcwd:barcore.obj
 0001:000624fc       ?IsDockBar@CControlBar@@UBAHXZ 000734fc f   uafxcwd:barcore.obj
 0001:00062524       ?WindowProc@CControlBar@@UAAJIIJ@Z 00073524 f   uafxcwd:barcore.obj
 0001:000626d8       ?OnCreate@CControlBar@@QAAHPAUtagCREATESTRUCTW@@@Z 000736d8 f   uafxcwd:barcore.obj
 0001:0006278c       ?OnDestroy@CControlBar@@QAAXXZ 0007378c f   uafxcwd:barcore.obj
 0001:000627e0       ?DestroyWindow@CControlBar@@UAAHXZ 000737e0 f   uafxcwd:barcore.obj
 0001:0006288c       ?OnPaint@CControlBar@@QAAXXZ 0007388c f   uafxcwd:barcore.obj
 0001:00062944       ?EraseNonClient@CControlBar@@QAAXXZ 00073944 f   uafxcwd:barcore.obj
 0001:00062a80       ?OnCtlColor@CControlBar@@QAAPAUHBRUSH__@@PAVCDC@@PAVCWnd@@I@Z 00073a80 f   uafxcwd:barcore.obj
 0001:00062b38       ?OnIdleUpdateCmdUI@CControlBar@@QAAJIJ@Z 00073b38 f   uafxcwd:barcore.obj
 0001:00062ce4       ?OnInitialUpdate@CControlBar@@QAAXXZ 00073ce4 f   uafxcwd:barcore.obj
 0001:00062d08       ?RecalcDelayShow@CControlBar@@UAAKPAUAFX_SIZEPARENTPARAMS@@@Z 00073d08 f   uafxcwd:barcore.obj
 0001:00062f54       ?OnSizeParent@CControlBar@@QAAJIJ@Z 00073f54 f   uafxcwd:barcore.obj
 0001:00063328       ?DelayShow@CControlBar@@UAAXH@Z 00074328 f   uafxcwd:barcore.obj
 0001:000633e8       ?IsVisible@CControlBar@@UBAHXZ 000743e8 f   uafxcwd:barcore.obj
 0001:00063468       ?DoPaint@CControlBar@@UAAXPAVCDC@@@Z 00074468 f   uafxcwd:barcore.obj
 0001:000634f4       ?DrawBorders@CControlBar@@UAAXPAVCDC@@AAVCRect@@@Z 000744f4 f   uafxcwd:barcore.obj
 0001:000639a0       ?CalcInsideRect@CControlBar@@UBAXAAVCRect@@H@Z 000749a0 f   uafxcwd:barcore.obj
 0001:00063be0       ?AssertValid@CControlBar@@UBAXXZ 00074be0 f   uafxcwd:barcore.obj
 0001:00063ca8       ??0CToolBar@@QAA@XZ        00074ca8 f   uafxcwd:bartool.obj
 0001:00063dcc       ??1CToolBar@@UAA@XZ        00074dcc f   uafxcwd:bartool.obj
 0001:00063e90       ?Create@CToolBar@@UAAHPAVCWnd@@KI@Z 00074e90 f   uafxcwd:bartool.obj
 0001:00063f44       ?CreateEx@CToolBar@@UAAHPAVCWnd@@KKVCRect@@I@Z 00074f44 f   uafxcwd:bartool.obj
 0001:000641c8       ?SetOwner@CToolBar@@QAAXPAVCWnd@@@Z 000751c8 f   uafxcwd:bartool.obj
 0001:00064298       ?SetSizes@CToolBar@@QAAXUtagSIZE@@0@Z 00075298 f   uafxcwd:bartool.obj
 0001:000645a4       ?SetHeight@CToolBar@@QAAXH@Z 000755a4 f   uafxcwd:bartool.obj
 0001:0006476c       ?LoadToolBar@CToolBar@@QAAHPB_W@Z 0007576c f   uafxcwd:bartool.obj
 0001:00064a58       ?LoadBitmapW@CToolBar@@QAAHPB_W@Z 00075a58 f   uafxcwd:bartool.obj
 0001:00064c74       ?SetBitmap@CToolBar@@QAAHPAUHBITMAP__@@@Z 00075c74 f   uafxcwd:bartool.obj
 0001:00064d18       ?AddReplaceBitmap@CToolBar@@QAAHPAUHBITMAP__@@@Z 00075d18 f   uafxcwd:bartool.obj
 0001:00064ee0       ?SetButtons@CToolBar@@QAAHPBIH@Z 00075ee0 f   uafxcwd:bartool.obj
 0001:0006539c       ?_GetButton@CToolBar@@IBAXHPAU_TBBUTTON@@@Z 0007639c f   uafxcwd:bartool.obj
 0001:00065444       ?_SetButton@CToolBar@@IAAXHPAU_TBBUTTON@@@Z 00076444 f   uafxcwd:bartool.obj
 0001:000657a0       ?CommandToIndex@CToolBar@@QBAHI@Z 000767a0 f   uafxcwd:bartool.obj
 0001:0006585c       ?GetItemID@CToolBar@@QBAIH@Z 0007685c f   uafxcwd:bartool.obj
 0001:0006590c       ?GetItemRect@CToolBar@@UBAXHPAUtagRECT@@@Z 0007690c f   uafxcwd:bartool.obj
 0001:000659ec       ?Layout@CToolBar@@IAAXXZ   000769ec f   uafxcwd:bartool.obj
 0001:00065b38       ?GetButtonStyle@CToolBar@@QBAIH@Z 00076b38 f   uafxcwd:bartool.obj
 0001:00065bf4       ?SetButtonStyle@CToolBar@@QAAXHI@Z 00076bf4 f   uafxcwd:bartool.obj
 0001:00065d04       ?CalcSize@CToolBar@@IAA?AVCSize@@PAU_TBBUTTON@@H@Z 00076d04 f   uafxcwd:bartool.obj
 0001:00066088       ?WrapToolBar@CToolBar@@IAAHPAU_TBBUTTON@@HH@Z 00077088 f   uafxcwd:bartool.obj
 0001:000664a8       ?SizeToolBar@CToolBar@@IAAXPAU_TBBUTTON@@HHH@Z 000774a8 f   uafxcwd:bartool.obj
 0001:00066824       ?CalcLayout@CToolBar@@IAA?AVCSize@@KH@Z 00077824 f   uafxcwd:bartool.obj
 0001:00067238       ?CalcFixedLayout@CToolBar@@UAA?AVCSize@@HH@Z 00078238 f   uafxcwd:bartool.obj
 0001:000672cc       ?CalcDynamicLayout@CToolBar@@UAA?AVCSize@@HK@Z 000782cc f   uafxcwd:bartool.obj
 0001:00067380       ?GetButtonInfo@CToolBar@@QBAXHAAI0AAH@Z 00078380 f   uafxcwd:bartool.obj
 0001:00067454       ?SetButtonInfo@CToolBar@@QAAXHIIH@Z 00078454 f   uafxcwd:bartool.obj
 0001:00067538       ?SetButtonText@CToolBar@@QAAHHPB_W@Z 00078538 f   uafxcwd:bartool.obj
 0001:000677b4       ?GetButtonText@CToolBar@@QBA?AV?$CStringT@_WV?$StrTraitMFC@_WV?$ChTraitsOS@_W@ATL@@@@@ATL@@H@Z 000787b4 f   uafxcwd:bartool.obj
 0001:00067844       ?GetButtonText@CToolBar@@QBAXHAAV?$CStringT@_WV?$StrTraitMFC@_WV?$ChTraitsOS@_W@ATL@@@@@ATL@@@Z 00078844 f   uafxcwd:bartool.obj
 0001:00067940       ?GetMessageMap@CToolBar@@MBAPBUAFX_MSGMAP@@XZ 00078940 f   uafxcwd:bartool.obj
 0001:00067970       ?GetThisMessageMap@CToolBar@@KAPBUAFX_MSGMAP@@XZ 00078970 f   uafxcwd:bartool.obj
 0001:0006798c       ?OnEraseBkgnd@CToolBar@@IAAHPAVCDC@@@Z 0007898c f   uafxcwd:bartool.obj
 0001:000679c0       ?OnBarStyleChange@CToolBar@@UAAXKK@Z 000789c0 f   uafxcwd:bartool.obj
 0001:00067ac4       ?OnPaint@CToolBar@@IAAXXZ  00078ac4 f   uafxcwd:bartool.obj
 0001:00067afc       ?Enable@CToolCmdUI@@UAAXH@Z 00078afc f   uafxcwd:bartool.obj
 0001:00067cb8       ?SetCheck@CToolCmdUI@@UAAXH@Z 00078cb8 f   uafxcwd:bartool.obj
 0001:00067eb4       ?SetText@CToolCmdUI@@UAAXPB_W@Z 00078eb4 f   uafxcwd:bartool.obj
 0001:00067ec8       ?OnUpdateCmdUI@CToolBar@@UAAXPAVCFrameWnd@@H@Z 00078ec8 f   uafxcwd:bartool.obj
 0001:000680a8       ?AssertValid@CToolBar@@UBAXXZ 000790a8 f   uafxcwd:bartool.obj
 0001:00068198       ?GetRuntimeClass@CToolBar@@UBAPAUCRuntimeClass@@XZ 00079198 f   uafxcwd:bartool.obj
 0001:000681c4       ??_ECToolBar@@UAAPAXI@Z    000791c4 f i uafxcwd:bartool.obj
 0001:000681c4       ??_GCToolBar@@UAAPAXI@Z    000791c4 f i uafxcwd:bartool.obj
 0001:00068208       ?items@CToolBarData@@QAAPAGXZ 00079208 f i uafxcwd:bartool.obj
 0001:00068234       ??0_AFX_CONTROLPOS@@QAA@XZ 00079234 f i uafxcwd:bartool.obj
 0001:00068268       ??_H@YAXPAXIHP6APAX0@Z@Z   00079268 f i uafxcwd:bartool.obj
 0001:000682b8       ??0CToolCmdUI@@QAA@XZ      000792b8 f i uafxcwd:bartool.obj
 0001:00068300       ??0?$CMap@V?$CStringT@_WV?$StrTraitMFC@_WV?$ChTraitsOS@_W@ATL@@@@@ATL@@PB_WPAXPAX@@QAA@H@Z 00079300 f i uafxcwd:bartool.obj
 0001:000683f0       ?Lookup@?$CMap@V?$CStringT@_WV?$StrTraitMFC@_WV?$ChTraitsOS@_W@ATL@@@@@ATL@@PB_WPAXPAX@@QBAHPB_WAAPAX@Z 000793f0 f i uafxcwd:bartool.obj
 0001:00068478       ?SetAt@?$CMap@V?$CStringT@_WV?$StrTraitMFC@_WV?$ChTraitsOS@_W@ATL@@@@@ATL@@PB_WPAXPAX@@QAAXPB_WPAX@Z 00079478 f i uafxcwd:bartool.obj
 0001:000684b0       ?GetStartPosition@?$CMap@V?$CStringT@_WV?$StrTraitMFC@_WV?$ChTraitsOS@_W@ATL@@@@@ATL@@PB_WPAXPAX@@QBAPAU__POSITION@@XZ 000794b0 f i uafxcwd:bartool.obj
 0001:00068500       ?GetNextAssoc@?$CMap@V?$CStringT@_WV?$StrTraitMFC@_WV?$ChTraitsOS@_W@ATL@@@@@ATL@@PB_WPAXPAX@@QBAXAAPAU__POSITION@@AAV?$CStringT@_WV?$StrTraitMFC@_WV?$ChTraitsOS@_W@ATL@@@@@ATL@@AAPAX@Z 00079500 f i uafxcwd:bartool.obj
 0001:00068824       ??A?$CMap@V?$CStringT@_WV?$StrTraitMFC@_WV?$ChTraitsOS@_W@ATL@@@@@ATL@@PB_WPAXPAX@@QAAAAPAXPB_W@Z 00079824 f i uafxcwd:bartool.obj
 0001:000689ac       ?GetAssocAt@?$CMap@V?$CStringT@_WV?$StrTraitMFC@_WV?$ChTraitsOS@_W@ATL@@@@@ATL@@PB_WPAXPAX@@IBAPAVCAssoc@1@PB_WAAI1@Z 000799ac f i uafxcwd:bartool.obj
 0001:00068acc       ?InitHashTable@?$CMap@V?$CStringT@_WV?$StrTraitMFC@_WV?$ChTraitsOS@_W@ATL@@@@@ATL@@PB_WPAXPAX@@QAAXIH@Z 00079acc f i uafxcwd:bartool.obj
 0001:00068cb8       ?NewAssoc@?$CMap@V?$CStringT@_WV?$StrTraitMFC@_WV?$ChTraitsOS@_W@ATL@@@@@ATL@@PB_WPAXPAX@@IAAPAVCAssoc@1@PB_W@Z 00079cb8 f i uafxcwd:bartool.obj
 0001:00068f54       ??$CompareElements@V?$CStringT@_WV?$StrTraitMFC@_WV?$ChTraitsOS@_W@ATL@@@@@ATL@@PB_W@@YAHPBV?$CStringT@_WV?$StrTraitMFC@_WV?$ChTraitsOS@_W@ATL@@@@@ATL@@PBQB_W@Z 00079f54 f i uafxcwd:bartool.obj
 0001:0006908c       ??0CAssoc@?$CMap@V?$CStringT@_WV?$StrTraitMFC@_WV?$ChTraitsOS@_W@ATL@@@@@ATL@@PB_WPAXPAX@@QAA@PB_W@Z 0007a08c f i uafxcwd:bartool.obj
 0001:000690c4       ??0CPair@?$CMap@V?$CStringT@_WV?$StrTraitMFC@_WV?$ChTraitsOS@_W@ATL@@@@@ATL@@PB_WPAXPAX@@IAA@PB_W@Z 0007a0c4 f i uafxcwd:bartool.obj
 0001:00069104       ?Serialize@?$CMap@V?$CStringT@_WV?$StrTraitMFC@_WV?$ChTraitsOS@_W@ATL@@@@@ATL@@PB_WPAXPAX@@UAAXAAVCArchive@@@Z 0007a104 f i uafxcwd:bartool.obj
 0001:00069348       ?AssertValid@?$CMap@V?$CStringT@_WV?$StrTraitMFC@_WV?$ChTraitsOS@_W@ATL@@@@@ATL@@PB_WPAXPAX@@UBAXXZ 0007a348 f i uafxcwd:bartool.obj
 0001:000693f8       ??_G?$CMap@V?$CStringT@_WV?$StrTraitMFC@_WV?$ChTraitsOS@_W@ATL@@@@@ATL@@PB_WPAXPAX@@UAAPAXI@Z 0007a3f8 f i uafxcwd:bartool.obj
 0001:000693f8       ??_E?$CMap@V?$CStringT@_WV?$StrTraitMFC@_WV?$ChTraitsOS@_W@ATL@@@@@ATL@@PB_WPAXPAX@@UAAPAXI@Z 0007a3f8 f i uafxcwd:bartool.obj
 0001:00069444       ??1?$CMap@V?$CStringT@_WV?$StrTraitMFC@_WV?$ChTraitsOS@_W@ATL@@@@@ATL@@PB_WPAXPAX@@UAA@XZ 0007a444 f i uafxcwd:bartool.obj
 0001:000694d4       ?RemoveAll@?$CMap@V?$CStringT@_WV?$StrTraitMFC@_WV?$ChTraitsOS@_W@ATL@@@@@ATL@@PB_WPAXPAX@@QAAXXZ 0007a4d4 f i uafxcwd:bartool.obj
 0001:00069608       ??1CAssoc@?$CMap@V?$CStringT@_WV?$StrTraitMFC@_WV?$ChTraitsOS@_W@ATL@@@@@ATL@@PB_WPAXPAX@@QAA@XZ 0007a608 f i uafxcwd:bartool.obj
 0001:00069624       ??1CPair@?$CMap@V?$CStringT@_WV?$StrTraitMFC@_WV?$ChTraitsOS@_W@ATL@@@@@ATL@@PB_WPAXPAX@@QAA@XZ 0007a624 f i uafxcwd:bartool.obj
 0001:00069640       ?AfxTrackerTerm@@YAXXZ     0007a640 f   uafxcwd:trckrect.obj
 0001:00069664       ??0CRectTracker@@QAA@PBUtagRECT@@I@Z 0007a664 f   uafxcwd:trckrect.obj
 0001:00069738       ?Construct@CRectTracker@@IAAXXZ 0007a738 f   uafxcwd:trckrect.obj
 0001:00069b1c       ??1CRectTracker@@UAA@XZ    0007ab1c f   uafxcwd:trckrect.obj
 0001:00069b40       ?Draw@CRectTracker@@QBAXPAVCDC@@@Z 0007ab40 f   uafxcwd:trckrect.obj
 0001:0006a04c       ?SetCursor@CRectTracker@@QBAHPAVCWnd@@I@Z 0007b04c f   uafxcwd:trckrect.obj
 0001:0006a1dc       ?HitTest@CRectTracker@@QBAHVCPoint@@@Z 0007b1dc f   uafxcwd:trckrect.obj
 0001:0006a2fc       ?NormalizeHit@CRectTracker@@QBAHH@Z 0007b2fc f   uafxcwd:trckrect.obj
 0001:0006a534       ?Track@CRectTracker@@QAAHPAVCWnd@@VCPoint@@H0@Z 0007b534 f   uafxcwd:trckrect.obj
 0001:0006a5d0       ?TrackRubberBand@CRectTracker@@QAAHPAVCWnd@@VCPoint@@H@Z 0007b5d0 f   uafxcwd:trckrect.obj
 0001:0006a658       ?DrawTrackerRect@CRectTracker@@UAAXPBUtagRECT@@PAVCWnd@@PAVCDC@@1@Z 0007b658 f   uafxcwd:trckrect.obj
 0001:0006a87c       ?AdjustRect@CRectTracker@@UAAXHPAUtagRECT@@@Z 0007b87c f   uafxcwd:trckrect.obj
 0001:0006ac20       ?GetTrueRect@CRectTracker@@QBAXPAUtagRECT@@@Z 0007bc20 f   uafxcwd:trckrect.obj
 0001:0006ad34       ?OnChangedRect@CRectTracker@@UAAXABVCRect@@@Z 0007bd34 f   uafxcwd:trckrect.obj
 0001:0006ad48       ?GetHandleRect@CRectTracker@@IBAXHPAVCRect@@@Z 0007bd48 f   uafxcwd:trckrect.obj
 0001:0006afb0       ?GetHandleSize@CRectTracker@@MBAHPBUtagRECT@@@Z 0007bfb0 f   uafxcwd:trckrect.obj
 0001:0006b100       ?HitTestHandles@CRectTracker@@IBAHVCPoint@@@Z 0007c100 f   uafxcwd:trckrect.obj
 0001:0006b2c0       ?TrackHandle@CRectTracker@@IAAHHPAVCWnd@@VCPoint@@0@Z 0007c2c0 f   uafxcwd:trckrect.obj
 0001:0006b95c       ?GetModifyPointers@CRectTracker@@IAAXHPAPAH0PAH1@Z 0007c95c f   uafxcwd:trckrect.obj
 0001:0006bc00       ?GetHandleMask@CRectTracker@@UBAIXZ 0007cc00 f   uafxcwd:trckrect.obj
 0001:0006bcc0       ?LoadBitmaps@CBitmapButton@@QAAHPB_W000@Z 0007ccc0 f   uafxcwd:winbtn.obj
 0001:0006be48       ?SizeToContent@CBitmapButton@@QAAXXZ 0007ce48 f   uafxcwd:winbtn.obj
 0001:0006bf54       ?AutoLoad@CBitmapButton@@QAAHIPAVCWnd@@@Z 0007cf54 f   uafxcwd:winbtn.obj
 0001:0006c1d8       ?DrawItem@CBitmapButton@@MAAXPAUtagDRAWITEMSTRUCT@@@Z 0007d1d8 f   uafxcwd:winbtn.obj
 0001:0006c40c       ?AssertValid@CBitmapButton@@UBAXXZ 0007d40c f   uafxcwd:winbtn.obj
 0001:0006c4b8       ?GetRuntimeClass@CBitmapButton@@UBAPAUCRuntimeClass@@XZ 0007d4b8 f   uafxcwd:winbtn.obj
 0001:0006c4e4       ?AfxCriticalInit@@YAHXZ    0007d4e4 f   uafxcwd:afxcrit.obj
 0001:0006c570       ?AfxCriticalTerm@@YAXXZ    0007d570 f   uafxcwd:afxcrit.obj
 0001:0006c714       ?AfxLockGlobals@@YAXH@Z    0007d714 f   uafxcwd:afxcrit.obj
 0001:0006c964       ?AfxUnlockGlobals@@YAXH@Z  0007d964 f   uafxcwd:afxcrit.obj
 0001:0006cb00       ?AfxCustomLogFont@@YAHIPAUtagLOGFONTW@@@Z 0007db00 f   uafxcwd:winutil.obj
 0001:0006cc9c       ?_AfxIsComboBoxControl@@YAHPAUHWND__@@I@Z 0007dc9c f   uafxcwd:winutil.obj
 0001:0006cd78       ?_AfxCompareClassName@@YAHPAUHWND__@@PB_W@Z 0007dd78 f   uafxcwd:winutil.obj
 0001:0006ce34       ?_AfxChildWindowFromPoint@@YAPAUHWND__@@PAU1@UtagPOINT@@@Z 0007de34 f   uafxcwd:winutil.obj
 0001:0006cf64       ?AfxSetWindowText@@YAXPAUHWND__@@PB_W@Z 0007df64 f   uafxcwd:winutil.obj
 0001:0006d104       ?AfxDeleteObject@@YAXPAPAX@Z 0007e104 f   uafxcwd:winutil.obj
 0001:0006d1b0       ?AfxCancelModes@@YAXPAUHWND__@@@Z 0007e1b0 f   uafxcwd:winutil.obj
 0001:0006d2c0       ?AfxGlobalFree@@YAXPAX@Z   0007e2c0 f   uafxcwd:winutil.obj
 0001:0006d318       ?AfxCriticalNewHandler@@YAHI@Z 0007e318 f   uafxcwd:winutil.obj
 0001:0006d514       ?AfxInvariantStrICmp@@YAHPB_W0@Z 0007e514 f i uafxcwd:winutil.obj
 0001:0006d56c       ?_AfxTraceMsg@@YAXPB_WPBUtagMSG@@@Z 0007e56c f   uafxcwd:afxtrace.obj
 0001:0006d9e8       ??0?$CW2AEX@$0IA@@ATL@@QAA@PB_W@Z 0007e9e8 f i uafxcwd:afxtrace.obj
 0001:0006da38       ??1?$CW2AEX@$0IA@@ATL@@QAA@XZ 0007ea38 f i uafxcwd:afxtrace.obj
 0001:0006da64       ??B?$CW2AEX@$0IA@@ATL@@QBAPADXZ 0007ea64 f i uafxcwd:afxtrace.obj
 0001:0006da90       ?Init@?$CW2AEX@$0IA@@ATL@@AAAXPB_WI@Z 0007ea90 f i uafxcwd:afxtrace.obj
 0001:0006dc58       ??$AtlConvFreeMemory@D@ATL@@YAXPAD0H@Z 0007ec58 f i uafxcwd:afxtrace.obj
 0001:0006dc98       ??$AtlConvAllocMemory@D@ATL@@YAXPAPADHPADH@Z 0007ec98 f i uafxcwd:afxtrace.obj
 0001:0006df04       ?AtlThrowLastWin32@ATL@@YAXXZ 0007ef04 f i uafxcwd:afxtrace.obj
 0001:0006df64       ?AfxLockTempMaps@@YAXXZ    0007ef64 f   uafxcwd:winhand.obj
 0001:0006dfac       ?AfxUnlockTempMaps@@YAHH@Z 0007efac f   uafxcwd:winhand.obj
 0001:0006e308       ??0CHandleMap@@QAA@PAUCRuntimeClass@@P6AXPAVCObject@@@Z2IH@Z 0007f308 f   uafxcwd:winhand.obj
 0001:0006e5bc       ?FromHandle@CHandleMap@@QAAPAVCObject@@PAX@Z 0007f5bc f   uafxcwd:winhand.obj
 0001:0006e998       ?SetPermanent@CHandleMap@@QAAXPAXPAVCObject@@@Z 0007f998 f   uafxcwd:winhand.obj
 0001:0006e9dc       ?RemoveHandle@CHandleMap@@QAAXPAX@Z 0007f9dc f   uafxcwd:winhand.obj
 0001:0006eb50       ?DeleteTemp@CHandleMap@@QAAXXZ 0007fb50 f   uafxcwd:winhand.obj
 0001:0006ed50       ?DeleteTempMap@CWnd@@SAXXZ 0007fd50 f   uafxcwd:winhand.obj
 0001:0006ed84       ?DeleteTempMap@CImageList@@SAXXZ 0007fd84 f   uafxcwd:winhand.obj
 0001:0006edb8       ?DeleteTempMap@CDC@@SAXXZ  0007fdb8 f   uafxcwd:winhand.obj
 0001:0006edec       ?DeleteTempMap@CGdiObject@@SAXXZ 0007fdec f   uafxcwd:winhand.obj
 0001:0006ee20       ?DeleteTempMap@CMenu@@SAXXZ 0007fe20 f   uafxcwd:winhand.obj
 0001:0006ee54       ?GetDataNA@?$CThreadLocal@V_AFX_THREAD_STATE@@@@QAAPAV_AFX_THREAD_STATE@@XZ 0007fe54 f i uafxcwd:winhand.obj
 0001:0006ee90       ?RemoveKey@?$CMap@PAXPAXPAXPAX@@QAAHPAX@Z 0007fe90 f i uafxcwd:winhand.obj
 0001:0006efe0       ?FreeAssoc@?$CMap@PAXPAXPAXPAX@@IAAXPAVCAssoc@1@@Z 0007ffe0 f i uafxcwd:winhand.obj
 0001:0006f098       ?GetAllocSize@CFixedAllocNoSync@@QAAIXZ 00080098 f i uafxcwd:winhand.obj
 0001:0006f0c4       ??_GCHandleMap@@UAAPAXI@Z  000800c4 f i uafxcwd:winhand.obj
 0001:0006f0c4       ??_ECHandleMap@@UAAPAXI@Z  000800c4 f i uafxcwd:winhand.obj
 0001:0006f110       ??1CHandleMap@@UAA@XZ      00080110 f i uafxcwd:winhand.obj
 0001:0006f1b8       ?OnFileNew@CWinApp@@IAAXXZ 000801b8 f   uafxcwd:appdlg.obj
 0001:0006f20c       ?OnFileOpen@CWinApp@@IAAXXZ 0008020c f   uafxcwd:appdlg.obj
 0001:0006f2c4       ?DoPromptFileName@CWinApp@@QAAHAAV?$CStringT@_WV?$StrTraitMFC@_WV?$ChTraitsOS@_W@ATL@@@@@ATL@@IKHPAVCDocTemplate@@@Z 000802c4 f   uafxcwd:appdlg.obj
 0001:0006f3ac       ?_AfxDeleteRegKey@@YAHPB_W@Z 000803ac f   uafxcwd:docmgr.obj
 0001:0006f568       ?_AfxSetRegKey@@YAHPB_W00@Z 00080568 f   uafxcwd:docmgr.obj
 0001:0006f758       ??0CDocManager@@QAA@XZ     00080758 f   uafxcwd:docmgr.obj
 0001:0006f7d0       ?UnregisterShellFileTypes@CDocManager@@QAAXXZ 000807d0 f   uafxcwd:docmgr.obj
 0001:0006fc58       ?RegisterShellFileTypes@CDocManager@@UAAXH@Z 00080c58 f   uafxcwd:docmgr.obj
 0001:0007039c       ?_AfxAppendFilterSuffix@@YAXAAV?$CStringT@_WV?$StrTraitMFC@_WV?$ChTraitsOS@_W@ATL@@@@@ATL@@AAUtagOFNW@@PAVCDocTemplate@@PAV12@@Z 0008139c f   uafxcwd:docmgr.obj
 0001:000707dc       ?AddDocTemplate@CDocManager@@UAAXPAVCDocTemplate@@@Z 000817dc f   uafxcwd:docmgr.obj
 0001:00070988       ?GetFirstDocTemplatePosition@CDocManager@@UBAPAU__POSITION@@XZ 00081988 f   uafxcwd:docmgr.obj
 0001:000709c0       ?GetNextDocTemplate@CDocManager@@UBAPAVCDocTemplate@@AAPAU__POSITION@@@Z 000819c0 f   uafxcwd:docmgr.obj
 0001:00070a00       ?SaveAllModified@CDocManager@@UAAHXZ 00081a00 f   uafxcwd:docmgr.obj
 0001:00070af0       ?CloseAllDocuments@CDocManager@@UAAXH@Z 00081af0 f   uafxcwd:docmgr.obj
 0001:00070bc4       ?DoPromptFileName@CDocManager@@UAAHAAV?$CStringT@_WV?$StrTraitMFC@_WV?$ChTraitsOS@_W@ATL@@@@@ATL@@IKHPAVCDocTemplate@@@Z 00081bc4 f   uafxcwd:docmgr.obj
 0001:000710d4       ?GetDocumentCount@CDocManager@@IAAHXZ 000820d4 f   uafxcwd:docmgr.obj
 0001:000711b0       ?OnFileNew@CDocManager@@UAAXXZ 000821b0 f   uafxcwd:docmgr.obj
 0001:00071304       ?OnFileOpen@CDocManager@@UAAXXZ 00082304 f   uafxcwd:docmgr.obj
 0001:000713e8       ?AssertValid@CDocManager@@UBAXXZ 000823e8 f   uafxcwd:docmgr.obj
 0001:0007146c       ?OpenDocumentFile@CDocManager@@UAAPAVCDocument@@PB_W@Z 0008246c f   uafxcwd:docmgr.obj
 0001:000719ac       ?GetOpenDocumentCount@CDocManager@@UAAHXZ 000829ac f   uafxcwd:docmgr.obj
 0001:00071aa0       ??1CDocManager@@UAA@XZ     00082aa0 f   uafxcwd:docmgr.obj
 0001:00071bdc       ?GetRuntimeClass@CDocManager@@UBAPAUCRuntimeClass@@XZ 00082bdc f   uafxcwd:docmgr.obj
 0001:00071c08       ??_ECDocManager@@UAAPAXI@Z 00082c08 f i uafxcwd:docmgr.obj
 0001:00071c08       ??_GCDocManager@@UAAPAXI@Z 00082c08 f i uafxcwd:docmgr.obj
 0001:00071c4c       ?SetAt@?$CSimpleStringT@_W$0A@@ATL@@QAAXH_W@Z 00082c4c f i uafxcwd:docmgr.obj
 0001:00071d50       ??Y?$CStringT@_WV?$StrTraitMFC@_WV?$ChTraitsOS@_W@ATL@@@@@ATL@@QAAAAV01@ABV?$CSimpleStringT@_W$0A@@1@@Z 00082d50 f i uafxcwd:docmgr.obj
 0001:00071d84       ?Tokenize@?$CStringT@_WV?$StrTraitMFC@_WV?$ChTraitsOS@_W@ATL@@@@@ATL@@QBA?AV12@PB_WAAH@Z 00082d84 f i uafxcwd:docmgr.obj
 0001:0007201c       ?Mid@?$CStringT@_WV?$StrTraitMFC@_WV?$ChTraitsOS@_W@ATL@@@@@ATL@@QBA?AV12@H@Z 0008301c f i uafxcwd:docmgr.obj
 0001:00072084       ??8ATL@@YA_NABV?$CStringT@_WV?$StrTraitMFC@_WV?$ChTraitsOS@_W@ATL@@@@@0@0@Z 00083084 f i uafxcwd:docmgr.obj
 0001:000720ec       ??Y?$CSimpleStringT@_W$0A@@ATL@@QAAAAV01@ABV01@@Z 000830ec f i uafxcwd:docmgr.obj
 0001:00072128       ??0?$CStringT@_WV?$StrTraitMFC@_WV?$ChTraitsOS@_W@ATL@@@@@ATL@@QAA@PB_WPAUIAtlStringMgr@1@@Z 00083128 f i uafxcwd:docmgr.obj
 0001:000721a0       ?Mid@?$CStringT@_WV?$StrTraitMFC@_WV?$ChTraitsOS@_W@ATL@@@@@ATL@@QBA?AV12@HH@Z 000831a0 f i uafxcwd:docmgr.obj
 0001:00072374       ?Append@?$CSimpleStringT@_W$0A@@ATL@@QAAXABV12@@Z 00083374 f i uafxcwd:docmgr.obj
 0001:000723b8       ?GetHead@?$CList@PAXPAX@@QAAAAPAXXZ 000833b8 f i uafxcwd:docmgr.obj
 0001:00072424       ?RemoveAt@?$CList@PAXPAX@@QAAXPAU__POSITION@@@Z 00083424 f i uafxcwd:docmgr.obj
 0001:000725e4       ??$AtlAddThrow@H@ATL@@YAHHH@Z 000835e4 f i uafxcwd:docmgr.obj
 0001:0007263c       ??$AtlAdd@H@ATL@@YAJPAHHH@Z 0008363c f i uafxcwd:docmgr.obj
 0001:000726a0       ?wcsrchr@@YAPA_WPA_W_W@Z   000836a0 f i uafxcwd:docmgr.obj
 0001:000726d8       ?StringSpanIncluding@?$ChTraitsOS@_W@ATL@@SAHPB_W0@Z 000836d8 f i uafxcwd:docmgr.obj
 0001:00072710       ?strspn@?$ChTraitsOS@_W@ATL@@SAHPB_W0@Z 00083710 f i uafxcwd:docmgr.obj
 0001:00072798       ?StringSpanExcluding@?$ChTraitsOS@_W@ATL@@SAHPB_W0@Z 00083798 f i uafxcwd:docmgr.obj
 0001:000727d0       ?strcspn@?$ChTraitsOS@_W@ATL@@SAHPB_W0@Z 000837d0 f i uafxcwd:docmgr.obj
 0001:00072858       ??Y?$CStringT@_WV?$StrTraitMFC@_WV?$ChTraitsOS@_W@ATL@@@@@ATL@@QAAAAV01@_W@Z 00083858 f i uafxcwd:docmgr.obj
 0001:0007288c       ??Y?$CSimpleStringT@_W$0A@@ATL@@QAAAAV01@_W@Z 0008388c f i uafxcwd:docmgr.obj
 0001:000728c0       ??0AUX_DATA@@QAA@XZ        000838c0 f   uafxcwd:auxdata.obj
 0001:00072a4c       ??1AUX_DATA@@QAA@XZ        00083a4c f   uafxcwd:auxdata.obj
 0001:00072a6c       ?UpdateSysColors@AUX_DATA@@QAAXXZ 00083a6c f   uafxcwd:auxdata.obj
 0001:00072bbc       ?UpdateSysMetrics@AUX_DATA@@QAAXXZ 00083bbc f   uafxcwd:auxdata.obj
 0001:00072cdc       ?_AfxConvertDialogUnitsToPixels@@YAXPB_WGHHPAUtagSIZE@@@Z 00083cdc f   uafxcwd:dlgtempl.obj
 0001:00072ed4       ??0CDialogTemplate@@QAA@PBUDLGTEMPLATE@@@Z 00083ed4 f   uafxcwd:dlgtempl.obj
 0001:00072f70       ??0CDialogTemplate@@QAA@PAX@Z 00083f70 f   uafxcwd:dlgtempl.obj
 0001:00073014       ?SetTemplate@CDialogTemplate@@IAAHPBUDLGTEMPLATE@@I@Z 00084014 f   uafxcwd:dlgtempl.obj
 0001:00073128       ??1CDialogTemplate@@QAA@XZ 00084128 f   uafxcwd:dlgtempl.obj
 0001:00073158       ?Load@CDialogTemplate@@QAAHPB_W@Z 00084158 f   uafxcwd:dlgtempl.obj
 0001:00073244       ?Detach@CDialogTemplate@@QAAPAXXZ 00084244 f   uafxcwd:dlgtempl.obj
 0001:00073284       ?HasFont@CDialogTemplate@@QBAHXZ 00084284 f   uafxcwd:dlgtempl.obj
 0001:000732cc       ?GetFontSizeField@CDialogTemplate@@KAPAEPBUDLGTEMPLATE@@@Z 000842cc f   uafxcwd:dlgtempl.obj
 0001:000733e8       ?GetTemplateSize@CDialogTemplate@@KAIPBUDLGTEMPLATE@@@Z 000843e8 f   uafxcwd:dlgtempl.obj
 0001:0007361c       ?GetFont@CDialogTemplate@@SAHPBUDLGTEMPLATE@@AAV?$CStringT@_WV?$StrTraitMFC@_WV?$ChTraitsOS@_W@ATL@@@@@ATL@@AAG@Z 0008461c f   uafxcwd:dlgtempl.obj
 0001:000736f4       ?GetFont@CDialogTemplate@@QBAHAAV?$CStringT@_WV?$StrTraitMFC@_WV?$ChTraitsOS@_W@ATL@@@@@ATL@@AAG@Z 000846f4 f   uafxcwd:dlgtempl.obj
 0001:0007377c       ?SetFont@CDialogTemplate@@QAAHPB_WG@Z 0008477c f   uafxcwd:dlgtempl.obj
 0001:00073b18       ?SetSystemFont@CDialogTemplate@@QAAHG@Z 00084b18 f   uafxcwd:dlgtempl.obj
 0001:00073c68       ?GetSizeInDialogUnits@CDialogTemplate@@QBAXPAUtagSIZE@@@Z 00084c68 f   uafxcwd:dlgtempl.obj
 0001:00073dbc       ?GetSizeInPixels@CDialogTemplate@@QBAXPAUtagSIZE@@@Z 00084dbc f   uafxcwd:dlgtempl.obj
 0001:00073f94       ?IsDialogEx@@YAHPBUDLGTEMPLATE@@@Z 00084f94 f i uafxcwd:dlgtempl.obj
 0001:00074004       ?HasFont@@YAHPBUDLGTEMPLATE@@@Z 00085004 f i uafxcwd:dlgtempl.obj
 0001:00074098       ?FontAttrSize@@YAHH@Z      00085098 f i uafxcwd:dlgtempl.obj
 0001:000740e8       ?_SkipString@@YAPA_WPA_W@Z 000850e8 f i uafxcwd:dlgtempl.obj
 0001:00074130       ?AfxGetPropSheetFont@@YAHAAV?$CStringT@_WV?$StrTraitMFC@_WV?$ChTraitsOS@_W@ATL@@@@@ATL@@AAGH@Z 00085130 f   uafxcwd:ccdata.obj
 0001:00074608       ?GetData@?$CProcessLocal@U_AFX_PROPPAGEFONTINFO@@@@QAAPAU_AFX_PROPPAGEFONTINFO@@XZ 00085608 f i uafxcwd:ccdata.obj
 0001:000746bc       ?CreateObject@?$CProcessLocal@U_AFX_PROPPAGEFONTINFO@@@@SAPAVCNoTrackObject@@XZ 000856bc f i uafxcwd:ccdata.obj
 0001:00074738       ??0_AFX_PROPPAGEFONTINFO@@QAA@XZ 00085738 f i uafxcwd:ccdata.obj
 0001:0007479c       ??_E_AFX_PROPPAGEFONTINFO@@UAAPAXI@Z 0008579c f i uafxcwd:ccdata.obj
 0001:0007479c       ??_G_AFX_PROPPAGEFONTINFO@@UAAPAXI@Z 0008579c f i uafxcwd:ccdata.obj
 0001:000747e0       ??1_AFX_PROPPAGEFONTINFO@@UAA@XZ 000857e0 f i uafxcwd:ccdata.obj
 0001:0007481c       ??1?$CProcessLocal@U_AFX_PROPPAGEFONTINFO@@@@QAA@XZ 0008581c f i uafxcwd:ccdata.obj
 0001:00074838       ?GetMessageMap@CToolBarCtrl@@MBAPBUAFX_MSGMAP@@XZ 00085838 f   uafxcwd:winctrl2.obj
 0001:00074868       ?GetThisMessageMap@CToolBarCtrl@@KAPBUAFX_MSGMAP@@XZ 00085868 f   uafxcwd:winctrl2.obj
 0001:00074884       ?Create@CToolBarCtrl@@QAAHKABUtagRECT@@PAVCWnd@@I@Z 00085884 f   uafxcwd:winctrl2.obj
 0001:00074940       ?CreateEx@CToolBarCtrl@@QAAHKKABUtagRECT@@PAVCWnd@@I@Z 00085940 f   uafxcwd:winctrl2.obj
 0001:000749c4       ??1CToolBarCtrl@@UAA@XZ    000859c4 f   uafxcwd:winctrl2.obj
 0001:00074a14       ?AddBitmap@CToolBarCtrl@@QAAHHPAVCBitmap@@@Z 00085a14 f   uafxcwd:winctrl2.obj
 0001:00074ac0       ?AddBitmap@CToolBarCtrl@@QAAHHI@Z 00085ac0 f   uafxcwd:winctrl2.obj
 0001:00074b98       ?AddString@CToolBarCtrl@@QAAHI@Z 00085b98 f   uafxcwd:winctrl2.obj
 0001:00074c68       ?OnCreate@CToolBarCtrl@@IAAHPAUtagCREATESTRUCTW@@@Z 00085c68 f   uafxcwd:winctrl2.obj
 0001:00074cc4       ?Create@CStatusBarCtrl@@QAAHKABUtagRECT@@PAVCWnd@@I@Z 00085cc4 f   uafxcwd:winctrl2.obj
 0001:00074d84       ?CreateEx@CStatusBarCtrl@@QAAHKKABUtagRECT@@PAVCWnd@@I@Z 00085d84 f   uafxcwd:winctrl2.obj
 0001:00074e08       ??1CStatusBarCtrl@@UAA@XZ  00085e08 f   uafxcwd:winctrl2.obj
 0001:00074e58       ?GetText@CStatusBarCtrl@@QBAHPA_WHPAH@Z 00085e58 f   uafxcwd:winctrl2.obj
 0001:00074f5c       ?GetText@CStatusBarCtrl@@QBA?AV?$CStringT@_WV?$StrTraitMFC@_WV?$ChTraitsOS@_W@ATL@@@@@ATL@@HPAH@Z 00085f5c f   uafxcwd:winctrl2.obj
 0001:000750f4       ?GetTextLength@CStatusBarCtrl@@QBAHHPAH@Z 000860f4 f   uafxcwd:winctrl2.obj
 0001:000751f4       ?GetBorders@CStatusBarCtrl@@QBAHAAH00@Z 000861f4 f   uafxcwd:winctrl2.obj
 0001:000752c0       ?DrawItem@CStatusBarCtrl@@UAAXPAUtagDRAWITEMSTRUCT@@@Z 000862c0 f   uafxcwd:winctrl2.obj
 0001:00075304       ?OnChildNotify@CStatusBarCtrl@@MAAHIIJPAJ@Z 00086304 f   uafxcwd:winctrl2.obj
 0001:000753b8       ?GetMessageMap@CListCtrl@@MBAPBUAFX_MSGMAP@@XZ 000863b8 f   uafxcwd:winctrl2.obj
 0001:000753e8       ?GetThisMessageMap@CListCtrl@@KAPBUAFX_MSGMAP@@XZ 000863e8 f   uafxcwd:winctrl2.obj
 0001:00075404       ?Create@CListCtrl@@QAAHKABUtagRECT@@PAVCWnd@@I@Z 00086404 f   uafxcwd:winctrl2.obj
 0001:000754c4       ?CreateEx@CListCtrl@@QAAHKKABUtagRECT@@PAVCWnd@@I@Z 000864c4 f   uafxcwd:winctrl2.obj
 0001:00075548       ??1CListCtrl@@UAA@XZ       00086548 f   uafxcwd:winctrl2.obj
 0001:00075598       ?GetItemRect@CListCtrl@@QBAHHPAUtagRECT@@I@Z 00086598 f   uafxcwd:winctrl2.obj
 0001:00075638       ?SetItemCountEx@CListCtrl@@QAAHHK@Z 00086638 f   uafxcwd:winctrl2.obj
 0001:00075718       ?SetIconSpacing@CListCtrl@@QAA?AVCSize@@HH@Z 00086718 f   uafxcwd:winctrl2.obj
 0001:000757dc       ?SetIconSpacing@CListCtrl@@QAA?AVCSize@@V2@@Z 000867dc f   uafxcwd:winctrl2.obj
 0001:000758a0       ?GetSubItemRect@CListCtrl@@QAAHHHHAAVCRect@@@Z 000868a0 f   uafxcwd:winctrl2.obj
 0001:000759ac       ?InsertColumn@CListCtrl@@QAAHHPB_WHHH@Z 000869ac f   uafxcwd:winctrl2.obj
 0001:00075a40       ?InsertItem@CListCtrl@@QAAHIHPB_WIIHJ@Z 00086a40 f   uafxcwd:winctrl2.obj
 0001:00075afc       ?HitTest@CListCtrl@@QBAHVCPoint@@PAI@Z 00086afc f   uafxcwd:winctrl2.obj
 0001:00075bc0       ?SetItem@CListCtrl@@QAAHHHIPB_WHIIJ@Z 00086bc0 f   uafxcwd:winctrl2.obj
 0001:00075c64       ?SetItem@CListCtrl@@QAAHHHIPB_WHIIJH@Z 00086c64 f   uafxcwd:winctrl2.obj
 0001:00075d80       ?SetItemState@CListCtrl@@QAAHHII@Z 00086d80 f   uafxcwd:winctrl2.obj
 0001:00075e24       ?SetItemText@CListCtrl@@QAAHHHPB_W@Z 00086e24 f   uafxcwd:winctrl2.obj
 0001:00075f10       ?GetItemText@CListCtrl@@QBA?AV?$CStringT@_WV?$StrTraitMFC@_WV?$ChTraitsOS@_W@ATL@@@@@ATL@@HH@Z 00086f10 f   uafxcwd:winctrl2.obj
 0001:00076068       ?GetItemText@CListCtrl@@QBAHHHPA_WH@Z 00087068 f   uafxcwd:winctrl2.obj
 0001:00076124       ?GetItemData@CListCtrl@@QBAKH@Z 00087124 f   uafxcwd:winctrl2.obj
 0001:0007620c       ?DrawItem@CListCtrl@@UAAXPAUtagDRAWITEMSTRUCT@@@Z 0008720c f   uafxcwd:winctrl2.obj
 0001:0007624c       ?OnChildNotify@CListCtrl@@MAAHIIJPAJ@Z 0008724c f   uafxcwd:winctrl2.obj
 0001:00076300       ?RemoveImageList@CListCtrl@@IAAXH@Z 00087300 f   uafxcwd:winctrl2.obj
 0001:00076370       ?OnNcDestroy@CListCtrl@@IAAXXZ 00087370 f   uafxcwd:winctrl2.obj
 0001:000763b8       ?CreateDragImage@CListCtrl@@QAAPAVCImageList@@HPAUtagPOINT@@@Z 000873b8 f   uafxcwd:winctrl2.obj
 0001:00076518       ?GetMessageMap@CTreeCtrl@@MBAPBUAFX_MSGMAP@@XZ 00087518 f   uafxcwd:winctrl2.obj
 0001:00076548       ?GetThisMessageMap@CTreeCtrl@@KAPBUAFX_MSGMAP@@XZ 00087548 f   uafxcwd:winctrl2.obj
 0001:00076564       ?Create@CTreeCtrl@@QAAHKABUtagRECT@@PAVCWnd@@I@Z 00087564 f   uafxcwd:winctrl2.obj
 0001:00076620       ?CreateEx@CTreeCtrl@@QAAHKKABUtagRECT@@PAVCWnd@@I@Z 00087620 f   uafxcwd:winctrl2.obj
 0001:000766a4       ??1CTreeCtrl@@UAA@XZ       000876a4 f   uafxcwd:winctrl2.obj
 0001:000766f4       ?GetItemRect@CTreeCtrl@@QBAHPAU_TREEITEM@@PAUtagRECT@@H@Z 000876f4 f   uafxcwd:winctrl2.obj
 0001:00076798       ?GetItemText@CTreeCtrl@@QBA?AV?$CStringT@_WV?$StrTraitMFC@_WV?$ChTraitsOS@_W@ATL@@@@@ATL@@PAU_TREEITEM@@@Z 00087798 f   uafxcwd:winctrl2.obj
 0001:000768f0       ?GetItemImage@CTreeCtrl@@QBAHPAU_TREEITEM@@AAH1@Z 000878f0 f   uafxcwd:winctrl2.obj
 0001:000769c0       ?GetItemState@CTreeCtrl@@QBAIPAU_TREEITEM@@I@Z 000879c0 f   uafxcwd:winctrl2.obj
 0001:00076aa4       ?GetItemData@CTreeCtrl@@QBAKPAU_TREEITEM@@@Z 00087aa4 f   uafxcwd:winctrl2.obj
 0001:00076c1c       ?ItemHasChildren@CTreeCtrl@@QBAHPAU_TREEITEM@@@Z 00087c1c f   uafxcwd:winctrl2.obj
 0001:00076cbc       ?SetItem@CTreeCtrl@@QAAHPAU_TREEITEM@@IPB_WHHIIJ@Z 00087cbc f   uafxcwd:winctrl2.obj
 0001:00076d90       ?InsertItem@CTreeCtrl@@QAAPAU_TREEITEM@@IPB_WHHIIJPAU2@1@Z 00087d90 f   uafxcwd:winctrl2.obj
 0001:00076e6c       ?HitTest@CTreeCtrl@@QBAPAU_TREEITEM@@VCPoint@@PAI@Z 00087e6c f   uafxcwd:winctrl2.obj
 0001:00076f30       ?RemoveImageList@CTreeCtrl@@IAAXH@Z 00087f30 f   uafxcwd:winctrl2.obj
 0001:00076fa0       ?OnDestroy@CTreeCtrl@@QAAXXZ 00087fa0 f   uafxcwd:winctrl2.obj
 0001:00076fdc       ?CreateDragImage@CTreeCtrl@@QAAPAVCImageList@@PAU_TREEITEM@@@Z 00087fdc f   uafxcwd:winctrl2.obj
 0001:0007713c       ?GetCheck@CTreeCtrl@@QBAHPAU_TREEITEM@@@Z 0008813c f   uafxcwd:winctrl2.obj
 0001:00077224       ?SetCheck@CTreeCtrl@@QAAHPAU_TREEITEM@@H@Z 00088224 f   uafxcwd:winctrl2.obj
 0001:000772fc       ?Create@CSpinButtonCtrl@@UAAHKABUtagRECT@@PAVCWnd@@I@Z 000882fc f   uafxcwd:winctrl2.obj
 0001:000773bc       ?CreateEx@CSpinButtonCtrl@@UAAHKKABUtagRECT@@PAVCWnd@@I@Z 000883bc f   uafxcwd:winctrl2.obj
 0001:00077454       ??1CSpinButtonCtrl@@UAA@XZ 00088454 f   uafxcwd:winctrl2.obj
 0001:000774a4       ?GetRange@CSpinButtonCtrl@@QBAXAAH0@Z 000884a4 f   uafxcwd:winctrl2.obj
 0001:00077560       ?Create@CSliderCtrl@@UAAHKABUtagRECT@@PAVCWnd@@I@Z 00088560 f   uafxcwd:winctrl2.obj
 0001:00077620       ?CreateEx@CSliderCtrl@@UAAHKKABUtagRECT@@PAVCWnd@@I@Z 00088620 f   uafxcwd:winctrl2.obj
 0001:000776b8       ??1CSliderCtrl@@UAA@XZ     000886b8 f   uafxcwd:winctrl2.obj
 0001:00077708       ?GetRange@CSliderCtrl@@QBAXAAH0@Z 00088708 f   uafxcwd:winctrl2.obj
 0001:0007779c       ?SetRange@CSliderCtrl@@QAAXHHH@Z 0008879c f   uafxcwd:winctrl2.obj
 0001:000777d0       ?GetSelection@CSliderCtrl@@QBAXAAH0@Z 000887d0 f   uafxcwd:winctrl2.obj
 0001:00077890       ?SetSelection@CSliderCtrl@@QAAXHH@Z 00088890 f   uafxcwd:winctrl2.obj
 0001:00077934       ?Create@CProgressCtrl@@UAAHKABUtagRECT@@PAVCWnd@@I@Z 00088934 f   uafxcwd:winctrl2.obj
 0001:000779f4       ?CreateEx@CProgressCtrl@@UAAHKKABUtagRECT@@PAVCWnd@@I@Z 000889f4 f   uafxcwd:winctrl2.obj
 0001:00077a8c       ??1CProgressCtrl@@UAA@XZ   00088a8c f   uafxcwd:winctrl2.obj
 0001:00077adc       ?Create@CHeaderCtrl@@UAAHKABUtagRECT@@PAVCWnd@@I@Z 00088adc f   uafxcwd:winctrl2.obj
 0001:00077b98       ?CreateEx@CHeaderCtrl@@UAAHKKABUtagRECT@@PAVCWnd@@I@Z 00088b98 f   uafxcwd:winctrl2.obj
 0001:00077c30       ??1CHeaderCtrl@@UAA@XZ     00088c30 f   uafxcwd:winctrl2.obj
 0001:00077c80       ?DrawItem@CHeaderCtrl@@UAAXPAUtagDRAWITEMSTRUCT@@@Z 00088c80 f   uafxcwd:winctrl2.obj
 0001:00077cc0       ?OnChildNotify@CHeaderCtrl@@MAAHIIJPAJ@Z 00088cc0 f   uafxcwd:winctrl2.obj
 0001:00077d74       ?GetMessageMap@CTabCtrl@@MBAPBUAFX_MSGMAP@@XZ 00088d74 f   uafxcwd:winctrl2.obj
 0001:00077da4       ?GetThisMessageMap@CTabCtrl@@KAPBUAFX_MSGMAP@@XZ 00088da4 f   uafxcwd:winctrl2.obj
 0001:00077dc0       ?Create@CTabCtrl@@UAAHKABUtagRECT@@PAVCWnd@@I@Z 00088dc0 f   uafxcwd:winctrl2.obj
 0001:00077e80       ?CreateEx@CTabCtrl@@UAAHKKABUtagRECT@@PAVCWnd@@I@Z 00088e80 f   uafxcwd:winctrl2.obj
 0001:00077f18       ??1CTabCtrl@@UAA@XZ        00088f18 f   uafxcwd:winctrl2.obj
 0001:00077f68       ?DrawItem@CTabCtrl@@UAAXPAUtagDRAWITEMSTRUCT@@@Z 00088f68 f   uafxcwd:winctrl2.obj
 0001:00077fac       ?OnChildNotify@CTabCtrl@@MAAHIIJPAJ@Z 00088fac f   uafxcwd:winctrl2.obj
 0001:00078060       ?OnDestroy@CTabCtrl@@IAAXXZ 00089060 f   uafxcwd:winctrl2.obj
 0001:000780d8       ?GetItemState@CTabCtrl@@QBAKHK@Z 000890d8 f   uafxcwd:winctrl2.obj
 0001:000781b0       ?SetItemState@CTabCtrl@@QAAHHKK@Z 000891b0 f   uafxcwd:winctrl2.obj
 0001:0007825c       ?InsertItem@CTabCtrl@@QAAJIHPB_WHJ@Z 0008925c f   uafxcwd:winctrl2.obj
 0001:0007830c       ?InsertItem@CTabCtrl@@QAAJIHPB_WHJKK@Z 0008930c f   uafxcwd:winctrl2.obj
 0001:000783d8       ?afxMapHIMAGELIST@@YAPAVCHandleMap@@H@Z 000893d8 f   uafxcwd:winctrl2.obj
 0001:00078500       ??0CImageList@@QAA@XZ      00089500 f   uafxcwd:winctrl2.obj
 0001:0007855c       ??1CImageList@@UAA@XZ      0008955c f   uafxcwd:winctrl2.obj
 0001:000785ac       ?Detach@CImageList@@QAAPAU_IMAGELIST@@XZ 000895ac f   uafxcwd:winctrl2.obj
 0001:00078634       ?DeleteImageList@CImageList@@QAAHXZ 00089634 f   uafxcwd:winctrl2.obj
 0001:00078694       ?FromHandle@CImageList@@SAPAV1@PAU_IMAGELIST@@@Z 00089694 f   uafxcwd:winctrl2.obj
 0001:00078768       ?FromHandlePermanent@CImageList@@SAPAV1@PAU_IMAGELIST@@@Z 00089768 f   uafxcwd:winctrl2.obj
 0001:00078818       ?Create@CImageList@@QAAHHHIHH@Z 00089818 f   uafxcwd:winctrl2.obj
 0001:00078870       ?Create@CImageList@@QAAHIHHK@Z 00089870 f   uafxcwd:winctrl2.obj
 0001:0007895c       ?Create@CImageList@@QAAHPB_WHHK@Z 0008995c f   uafxcwd:winctrl2.obj
 0001:00078a08       ?Create@CImageList@@QAAHAAV1@H0HHH@Z 00089a08 f   uafxcwd:winctrl2.obj
 0001:00078a78       ?Attach@CImageList@@QAAHPAU_IMAGELIST@@@Z 00089a78 f   uafxcwd:winctrl2.obj
 0001:00078b9c       ?AssertValid@CImageList@@UBAXXZ 00089b9c f   uafxcwd:winctrl2.obj
 0001:00078cec       ??0CToolBarCtrl@@QAA@XZ    00089cec f   uafxcwd:winctrl2.obj
 0001:00078d30       ?EnableButton@CToolBarCtrl@@QAAHHH@Z 00089d30 f   uafxcwd:winctrl2.obj
 0001:00078dc8       ?CheckButton@CToolBarCtrl@@QAAHHH@Z 00089dc8 f   uafxcwd:winctrl2.obj
 0001:00078e60       ?PressButton@CToolBarCtrl@@QAAHHH@Z 00089e60 f   uafxcwd:winctrl2.obj
 0001:00078ef8       ?HideButton@CToolBarCtrl@@QAAHHH@Z 00089ef8 f   uafxcwd:winctrl2.obj
 0001:00078f90       ?Indeterminate@CToolBarCtrl@@QAAHHH@Z 00089f90 f   uafxcwd:winctrl2.obj
 0001:00079028       ?IsButtonEnabled@CToolBarCtrl@@QBAHH@Z 0008a028 f   uafxcwd:winctrl2.obj
 0001:000790b8       ?IsButtonChecked@CToolBarCtrl@@QBAHH@Z 0008a0b8 f   uafxcwd:winctrl2.obj
 0001:00079148       ?IsButtonPressed@CToolBarCtrl@@QBAHH@Z 0008a148 f   uafxcwd:winctrl2.obj
 0001:000791d8       ?IsButtonHidden@CToolBarCtrl@@QBAHH@Z 0008a1d8 f   uafxcwd:winctrl2.obj
 0001:00079268       ?IsButtonIndeterminate@CToolBarCtrl@@QBAHH@Z 0008a268 f   uafxcwd:winctrl2.obj
 0001:000792f8       ?SetState@CToolBarCtrl@@QAAHHI@Z 0008a2f8 f   uafxcwd:winctrl2.obj
 0001:00079390       ?GetState@CToolBarCtrl@@QBAHH@Z 0008a390 f   uafxcwd:winctrl2.obj
 0001:00079420       ?AddButtons@CToolBarCtrl@@QAAHHPAU_TBBUTTON@@@Z 0008a420 f   uafxcwd:winctrl2.obj
 0001:000794b0       ?InsertButton@CToolBarCtrl@@QAAHHPAU_TBBUTTON@@@Z 0008a4b0 f   uafxcwd:winctrl2.obj
 0001:00079540       ?DeleteButton@CToolBarCtrl@@QAAHH@Z 0008a540 f   uafxcwd:winctrl2.obj
 0001:000795d0       ?GetButton@CToolBarCtrl@@QBAHHPAU_TBBUTTON@@@Z 0008a5d0 f   uafxcwd:winctrl2.obj
 0001:00079660       ?GetButtonCount@CToolBarCtrl@@QBAHXZ 0008a660 f   uafxcwd:winctrl2.obj
 0001:000796f0       ?CommandToIndex@CToolBarCtrl@@QBAII@Z 0008a6f0 f   uafxcwd:winctrl2.obj
 0001:00079780       ?AddStrings@CToolBarCtrl@@QAAHPB_W@Z 0008a780 f   uafxcwd:winctrl2.obj
 0001:00079810       ?GetItemRect@CToolBarCtrl@@QBAHHPAUtagRECT@@@Z 0008a810 f   uafxcwd:winctrl2.obj
 0001:000798a0       ?SetButtonStructSize@CToolBarCtrl@@QAAXH@Z 0008a8a0 f   uafxcwd:winctrl2.obj
 0001:00079920       ?SetButtonSize@CToolBarCtrl@@QAAHVCSize@@@Z 0008a920 f   uafxcwd:winctrl2.obj
 0001:000799cc       ?SetBitmapSize@CToolBarCtrl@@QAAHVCSize@@@Z 0008a9cc f   uafxcwd:winctrl2.obj
 0001:00079a74       ?AutoSize@CToolBarCtrl@@QAAXXZ 0008aa74 f   uafxcwd:winctrl2.obj
 0001:00079af4       ?SetOwner@CToolBarCtrl@@QAAXPAVCWnd@@@Z 0008aaf4 f   uafxcwd:winctrl2.obj
 0001:00079b80       ?SetRows@CToolBarCtrl@@QAAXHHPAUtagRECT@@@Z 0008ab80 f   uafxcwd:winctrl2.obj
 0001:00079c1c       ?GetRows@CToolBarCtrl@@QBAHXZ 0008ac1c f   uafxcwd:winctrl2.obj
 0001:00079cac       ?SetCmdID@CToolBarCtrl@@QAAHHI@Z 0008acac f   uafxcwd:winctrl2.obj
 0001:00079d3c       ?GetBitmapFlags@CToolBarCtrl@@QBAIXZ 0008ad3c f   uafxcwd:winctrl2.obj
 0001:00079dcc       ?GetBitmap@CToolBarCtrl@@QBAHH@Z 0008adcc f   uafxcwd:winctrl2.obj
 0001:00079e5c       ?HitTest@CToolBarCtrl@@QBAHPAUtagPOINT@@@Z 0008ae5c f   uafxcwd:winctrl2.obj
 0001:00079eec       ??0CStatusBarCtrl@@QAA@XZ  0008aeec f   uafxcwd:winctrl2.obj
 0001:00079f30       ?SetText@CStatusBarCtrl@@QAAHPB_WHH@Z 0008af30 f   uafxcwd:winctrl2.obj
 0001:00079ff8       ?SetParts@CStatusBarCtrl@@QAAHHPAH@Z 0008aff8 f   uafxcwd:winctrl2.obj
 0001:0007a088       ?GetParts@CStatusBarCtrl@@QBAHHPAH@Z 0008b088 f   uafxcwd:winctrl2.obj
 0001:0007a118       ?GetBorders@CStatusBarCtrl@@QBAHPAH@Z 0008b118 f   uafxcwd:winctrl2.obj
 0001:0007a1a8       ?SetMinHeight@CStatusBarCtrl@@QAAXH@Z 0008b1a8 f   uafxcwd:winctrl2.obj
 0001:0007a228       ?SetSimple@CStatusBarCtrl@@QAAHH@Z 0008b228 f   uafxcwd:winctrl2.obj
 0001:0007a2b8       ?GetRect@CStatusBarCtrl@@QBAHHPAUtagRECT@@@Z 0008b2b8 f   uafxcwd:winctrl2.obj
 0001:0007a348       ??0CListCtrl@@QAA@XZ       0008b348 f   uafxcwd:winctrl2.obj
 0001:0007a38c       ?GetBkColor@CListCtrl@@QBAKXZ 0008b38c f   uafxcwd:winctrl2.obj
 0001:0007a418       ?SetBkColor@CListCtrl@@QAAHK@Z 0008b418 f   uafxcwd:winctrl2.obj
 0001:0007a4a8       ?GetImageList@CListCtrl@@QBAPAVCImageList@@H@Z 0008b4a8 f   uafxcwd:winctrl2.obj
 0001:0007a544       ?SetImageList@CListCtrl@@QAAPAVCImageList@@PAV2@H@Z 0008b544 f   uafxcwd:winctrl2.obj
 0001:0007a5ec       ?GetItemCount@CListCtrl@@QBAHXZ 0008b5ec f   uafxcwd:winctrl2.obj
 0001:0007a67c       ?GetItem@CListCtrl@@QBAHPAUtagLVITEMW@@@Z 0008b67c f   uafxcwd:winctrl2.obj
 0001:0007a70c       ?SetItem@CListCtrl@@QAAHPBUtagLVITEMW@@@Z 0008b70c f   uafxcwd:winctrl2.obj
 0001:0007a79c       ?SetItemData@CListCtrl@@QAAHHK@Z 0008b79c f   uafxcwd:winctrl2.obj
 0001:0007a848       ?InsertItem@CListCtrl@@QAAHPBUtagLVITEMW@@@Z 0008b848 f   uafxcwd:winctrl2.obj
 0001:0007a8d8       ?InsertItem@CListCtrl@@QAAHHPB_W@Z 0008b8d8 f   uafxcwd:winctrl2.obj
 0001:0007a97c       ?InsertItem@CListCtrl@@QAAHHPB_WH@Z 0008b97c f   uafxcwd:winctrl2.obj
 0001:0007aa20       ?DeleteItem@CListCtrl@@QAAHH@Z 0008ba20 f   uafxcwd:winctrl2.obj
 0001:0007aab0       ?DeleteAllItems@CListCtrl@@QAAHXZ 0008bab0 f   uafxcwd:winctrl2.obj
 0001:0007ab40       ?GetCallbackMask@CListCtrl@@QBAIXZ 0008bb40 f   uafxcwd:winctrl2.obj
 0001:0007abd0       ?SetCallbackMask@CListCtrl@@QAAHI@Z 0008bbd0 f   uafxcwd:winctrl2.obj
 0001:0007ac60       ?GetNextItem@CListCtrl@@QBAHHH@Z 0008bc60 f   uafxcwd:winctrl2.obj
 0001:0007acf8       ?GetFirstSelectedItemPosition@CListCtrl@@QBAPAU__POSITION@@XZ 0008bcf8 f   uafxcwd:winctrl2.obj
 0001:0007ad7c       ?GetNextSelectedItem@CListCtrl@@QBAHAAPAU__POSITION@@@Z 0008bd7c f   uafxcwd:winctrl2.obj
 0001:0007ae1c       ?FindItem@CListCtrl@@QBAHPAUtagLVFINDINFOW@@H@Z 0008be1c f   uafxcwd:winctrl2.obj
 0001:0007aeac       ?HitTest@CListCtrl@@QBAHPAUtagLVHITTESTINFO@@@Z 0008beac f   uafxcwd:winctrl2.obj
 0001:0007af3c       ?SetItemPosition@CListCtrl@@QAAHHUtagPOINT@@@Z 0008bf3c f   uafxcwd:winctrl2.obj
 0001:0007b008       ?GetItemPosition@CListCtrl@@QBAHHPAUtagPOINT@@@Z 0008c008 f   uafxcwd:winctrl2.obj
 0001:0007b098       ?GetStringWidth@CListCtrl@@QBAHPB_W@Z 0008c098 f   uafxcwd:winctrl2.obj
 0001:0007b128       ?EnsureVisible@CListCtrl@@QAAHHH@Z 0008c128 f   uafxcwd:winctrl2.obj
 0001:0007b1c0       ?Scroll@CListCtrl@@QAAHVCSize@@@Z 0008c1c0 f   uafxcwd:winctrl2.obj
 0001:0007b250       ?RedrawItems@CListCtrl@@QAAHHH@Z 0008c250 f   uafxcwd:winctrl2.obj
 0001:0007b2e0       ?Arrange@CListCtrl@@QAAHI@Z 0008c2e0 f   uafxcwd:winctrl2.obj
 0001:0007b370       ?EditLabel@CListCtrl@@QAAPAVCEdit@@H@Z 0008c370 f   uafxcwd:winctrl2.obj
 0001:0007b40c       ?GetEditControl@CListCtrl@@QBAPAVCEdit@@XZ 0008c40c f   uafxcwd:winctrl2.obj
 0001:0007b4a8       ?GetColumn@CListCtrl@@QBAHHPAUtagLVCOLUMNW@@@Z 0008c4a8 f   uafxcwd:winctrl2.obj
 0001:0007b538       ?SetColumn@CListCtrl@@QAAHHPBUtagLVCOLUMNW@@@Z 0008c538 f   uafxcwd:winctrl2.obj
 0001:0007b5c8       ?InsertColumn@CListCtrl@@QAAHHPBUtagLVCOLUMNW@@@Z 0008c5c8 f   uafxcwd:winctrl2.obj
 0001:0007b658       ?DeleteColumn@CListCtrl@@QAAHH@Z 0008c658 f   uafxcwd:winctrl2.obj
 0001:0007b6e8       ?GetColumnWidth@CListCtrl@@QBAHH@Z 0008c6e8 f   uafxcwd:winctrl2.obj
 0001:0007b778       ?SetColumnWidth@CListCtrl@@QAAHHH@Z 0008c778 f   uafxcwd:winctrl2.obj
 0001:0007b810       ?GetViewRect@CListCtrl@@QBAHPAUtagRECT@@@Z 0008c810 f   uafxcwd:winctrl2.obj
 0001:0007b8a0       ?GetTextColor@CListCtrl@@QBAKXZ 0008c8a0 f   uafxcwd:winctrl2.obj
 0001:0007b930       ?SetTextColor@CListCtrl@@QAAHK@Z 0008c930 f   uafxcwd:winctrl2.obj
 0001:0007b9c0       ?GetTextBkColor@CListCtrl@@QBAKXZ 0008c9c0 f   uafxcwd:winctrl2.obj
 0001:0007ba50       ?SetTextBkColor@CListCtrl@@QAAHK@Z 0008ca50 f   uafxcwd:winctrl2.obj
 0001:0007bae0       ?GetTopIndex@CListCtrl@@QBAHXZ 0008cae0 f   uafxcwd:winctrl2.obj
 0001:0007bb70       ?GetCountPerPage@CListCtrl@@QBAHXZ 0008cb70 f   uafxcwd:winctrl2.obj
 0001:0007bc00       ?GetOrigin@CListCtrl@@QBAHPAUtagPOINT@@@Z 0008cc00 f   uafxcwd:winctrl2.obj
 0001:0007bc90       ?Update@CListCtrl@@QAAHH@Z 0008cc90 f   uafxcwd:winctrl2.obj
 0001:0007bd20       ?SetItemState@CListCtrl@@QAAHHPAUtagLVITEMW@@@Z 0008cd20 f   uafxcwd:winctrl2.obj
 0001:0007bdb0       ?GetItemState@CListCtrl@@QBAIHI@Z 0008cdb0 f   uafxcwd:winctrl2.obj
 0001:0007be40       ?SetItemCount@CListCtrl@@QAAXH@Z 0008ce40 f   uafxcwd:winctrl2.obj
 0001:0007bec0       ?SortItems@CListCtrl@@QAAHP6AHJJJ@ZK@Z 0008cec0 f   uafxcwd:winctrl2.obj
 0001:0007bf8c       ?GetSelectedCount@CListCtrl@@QBAIXZ 0008cf8c f   uafxcwd:winctrl2.obj
 0001:0007c01c       ??0CTreeCtrl@@QAA@XZ       0008d01c f   uafxcwd:winctrl2.obj
 0001:0007c060       ?InsertItem@CTreeCtrl@@QAAPAU_TREEITEM@@PAUtagTVINSERTSTRUCTW@@@Z 0008d060 f   uafxcwd:winctrl2.obj
 0001:0007c0f0       ?InsertItem@CTreeCtrl@@QAAPAU_TREEITEM@@PB_WHHPAU2@1@Z 0008d0f0 f   uafxcwd:winctrl2.obj
 0001:0007c1a4       ?InsertItem@CTreeCtrl@@QAAPAU_TREEITEM@@PB_WPAU2@1@Z 0008d1a4 f   uafxcwd:winctrl2.obj
 0001:0007c258       ?DeleteItem@CTreeCtrl@@QAAHPAU_TREEITEM@@@Z 0008d258 f   uafxcwd:winctrl2.obj
 0001:0007c2e8       ?DeleteAllItems@CTreeCtrl@@QAAHXZ 0008d2e8 f   uafxcwd:winctrl2.obj
 0001:0007c37c       ?Expand@CTreeCtrl@@QAAHPAU_TREEITEM@@I@Z 0008d37c f   uafxcwd:winctrl2.obj
 0001:0007c410       ?GetCount@CTreeCtrl@@QBAIXZ 0008d410 f   uafxcwd:winctrl2.obj
 0001:0007c4a0       ?GetIndent@CTreeCtrl@@QBAIXZ 0008d4a0 f   uafxcwd:winctrl2.obj
 0001:0007c534       ?SetIndent@CTreeCtrl@@QAAXI@Z 0008d534 f   uafxcwd:winctrl2.obj
 0001:0007c5b4       ?GetImageList@CTreeCtrl@@QBAPAVCImageList@@I@Z 0008d5b4 f   uafxcwd:winctrl2.obj
 0001:0007c654       ?SetImageList@CTreeCtrl@@QAAPAVCImageList@@PAV2@H@Z 0008d654 f   uafxcwd:winctrl2.obj
 0001:0007c6fc       ?GetNextItem@CTreeCtrl@@QBAPAU_TREEITEM@@PAU2@I@Z 0008d6fc f   uafxcwd:winctrl2.obj
 0001:0007c790       ?GetChildItem@CTreeCtrl@@QBAPAU_TREEITEM@@PAU2@@Z 0008d790 f   uafxcwd:winctrl2.obj
 0001:0007c820       ?GetNextSiblingItem@CTreeCtrl@@QBAPAU_TREEITEM@@PAU2@@Z 0008d820 f   uafxcwd:winctrl2.obj
 0001:0007c8b4       ?GetPrevSiblingItem@CTreeCtrl@@QBAPAU_TREEITEM@@PAU2@@Z 0008d8b4 f   uafxcwd:winctrl2.obj
 0001:0007c944       ?GetParentItem@CTreeCtrl@@QBAPAU_TREEITEM@@PAU2@@Z 0008d944 f   uafxcwd:winctrl2.obj
 0001:0007c9d8       ?GetFirstVisibleItem@CTreeCtrl@@QBAPAU_TREEITEM@@XZ 0008d9d8 f   uafxcwd:winctrl2.obj
 0001:0007ca68       ?GetNextVisibleItem@CTreeCtrl@@QBAPAU_TREEITEM@@PAU2@@Z 0008da68 f   uafxcwd:winctrl2.obj
 0001:0007cafc       ?GetPrevVisibleItem@CTreeCtrl@@QBAPAU_TREEITEM@@PAU2@@Z 0008dafc f   uafxcwd:winctrl2.obj
 0001:0007cb8c       ?GetSelectedItem@CTreeCtrl@@QBAPAU_TREEITEM@@XZ 0008db8c f   uafxcwd:winctrl2.obj
 0001:0007cc20       ?GetDropHilightItem@CTreeCtrl@@QBAPAU_TREEITEM@@XZ 0008dc20 f   uafxcwd:winctrl2.obj
 0001:0007ccb0       ?GetRootItem@CTreeCtrl@@QBAPAU_TREEITEM@@XZ 0008dcb0 f   uafxcwd:winctrl2.obj
 0001:0007cd44       ?Select@CTreeCtrl@@QAAHPAU_TREEITEM@@I@Z 0008dd44 f   uafxcwd:winctrl2.obj
 0001:0007cdd4       ?SelectItem@CTreeCtrl@@QAAHPAU_TREEITEM@@@Z 0008ddd4 f   uafxcwd:winctrl2.obj
 0001:0007ce68       ?SelectDropTarget@CTreeCtrl@@QAAHPAU_TREEITEM@@@Z 0008de68 f   uafxcwd:winctrl2.obj
 0001:0007cef8       ?SelectSetFirstVisible@CTreeCtrl@@QAAHPAU_TREEITEM@@@Z 0008def8 f   uafxcwd:winctrl2.obj
 0001:0007cf8c       ?GetItem@CTreeCtrl@@QBAHPAUtagTVITEMW@@@Z 0008df8c f   uafxcwd:winctrl2.obj
 0001:0007d01c       ?SetItem@CTreeCtrl@@QAAHPAUtagTVITEMW@@@Z 0008e01c f   uafxcwd:winctrl2.obj
 0001:0007d0b0       ?SetItemText@CTreeCtrl@@QAAHPAU_TREEITEM@@PB_W@Z 0008e0b0 f   uafxcwd:winctrl2.obj
 0001:0007d15c       ?SetItemImage@CTreeCtrl@@QAAHPAU_TREEITEM@@HH@Z 0008e15c f   uafxcwd:winctrl2.obj
 0001:0007d20c       ?SetItemState@CTreeCtrl@@QAAHPAU_TREEITEM@@II@Z 0008e20c f   uafxcwd:winctrl2.obj
 0001:0007d2b8       ?SetItemData@CTreeCtrl@@QAAHPAU_TREEITEM@@K@Z 0008e2b8 f   uafxcwd:winctrl2.obj
 0001:0007d368       ?EditLabel@CTreeCtrl@@QAAPAVCEdit@@PAU_TREEITEM@@@Z 0008e368 f   uafxcwd:winctrl2.obj
 0001:0007d404       ?HitTest@CTreeCtrl@@QBAPAU_TREEITEM@@PAUtagTVHITTESTINFO@@@Z 0008e404 f   uafxcwd:winctrl2.obj
 0001:0007d498       ?GetEditControl@CTreeCtrl@@QBAPAVCEdit@@XZ 0008e498 f   uafxcwd:winctrl2.obj
 0001:0007d534       ?GetVisibleCount@CTreeCtrl@@QBAIXZ 0008e534 f   uafxcwd:winctrl2.obj
 0001:0007d5c8       ?SortChildren@CTreeCtrl@@QAAHPAU_TREEITEM@@@Z 0008e5c8 f   uafxcwd:winctrl2.obj
 0001:0007d658       ?EnsureVisible@CTreeCtrl@@QAAHPAU_TREEITEM@@@Z 0008e658 f   uafxcwd:winctrl2.obj
 0001:0007d6ec       ?SortChildrenCB@CTreeCtrl@@QAAHPAUtagTVSORTCB@@@Z 0008e6ec f   uafxcwd:winctrl2.obj
 0001:0007d77c       ??0CSpinButtonCtrl@@QAA@XZ 0008e77c f   uafxcwd:winctrl2.obj
 0001:0007d7c0       ?GetAccel@CSpinButtonCtrl@@QBAIHPAU_UDACCEL@@@Z 0008e7c0 f   uafxcwd:winctrl2.obj
 0001:0007d85c       ?GetBase@CSpinButtonCtrl@@QBAIXZ 0008e85c f   uafxcwd:winctrl2.obj
 0001:0007d8f8       ?GetBuddy@CSpinButtonCtrl@@QBAPAVCWnd@@XZ 0008e8f8 f   uafxcwd:winctrl2.obj
 0001:0007d998       ?GetPos@CSpinButtonCtrl@@QBAHXZ 0008e998 f   uafxcwd:winctrl2.obj
 0001:0007da2c       ?GetRange@CSpinButtonCtrl@@QBAKXZ 0008ea2c f   uafxcwd:winctrl2.obj
 0001:0007dac0       ?SetAccel@CSpinButtonCtrl@@QAAHHPAU_UDACCEL@@@Z 0008eac0 f   uafxcwd:winctrl2.obj
 0001:0007db5c       ?SetBase@CSpinButtonCtrl@@QAAHH@Z 0008eb5c f   uafxcwd:winctrl2.obj
 0001:0007dbf0       ?SetBuddy@CSpinButtonCtrl@@QAAPAVCWnd@@PAV2@@Z 0008ebf0 f   uafxcwd:winctrl2.obj
 0001:0007dc9c       ?SetPos@CSpinButtonCtrl@@QAAHH@Z 0008ec9c f   uafxcwd:winctrl2.obj
 0001:0007dd40       ?SetRange@CSpinButtonCtrl@@QAAXFF@Z 0008ed40 f   uafxcwd:winctrl2.obj
 0001:0007ddd0       ??0CSliderCtrl@@QAA@XZ     0008edd0 f   uafxcwd:winctrl2.obj
 0001:0007de14       ?GetLineSize@CSliderCtrl@@QBAHXZ 0008ee14 f   uafxcwd:winctrl2.obj
 0001:0007dea4       ?SetLineSize@CSliderCtrl@@QAAHH@Z 0008eea4 f   uafxcwd:winctrl2.obj
 0001:0007df38       ?GetPageSize@CSliderCtrl@@QBAHXZ 0008ef38 f   uafxcwd:winctrl2.obj
 0001:0007dfc8       ?SetPageSize@CSliderCtrl@@QAAHH@Z 0008efc8 f   uafxcwd:winctrl2.obj
 0001:0007e05c       ?GetRangeMax@CSliderCtrl@@QBAHXZ 0008f05c f   uafxcwd:winctrl2.obj
 0001:0007e0ec       ?GetRangeMin@CSliderCtrl@@QBAHXZ 0008f0ec f   uafxcwd:winctrl2.obj
 0001:0007e180       ?SetRangeMin@CSliderCtrl@@QAAXHH@Z 0008f180 f   uafxcwd:winctrl2.obj
 0001:0007e200       ?SetRangeMax@CSliderCtrl@@QAAXHH@Z 0008f200 f   uafxcwd:winctrl2.obj
 0001:0007e284       ?ClearSel@CSliderCtrl@@QAAXH@Z 0008f284 f   uafxcwd:winctrl2.obj
 0001:0007e304       ?GetChannelRect@CSliderCtrl@@QBAXPAUtagRECT@@@Z 0008f304 f   uafxcwd:winctrl2.obj
 0001:0007e388       ?GetThumbRect@CSliderCtrl@@QBAXPAUtagRECT@@@Z 0008f388 f   uafxcwd:winctrl2.obj
 0001:0007e408       ?GetPos@CSliderCtrl@@QBAHXZ 0008f408 f   uafxcwd:winctrl2.obj
 0001:0007e498       ?SetPos@CSliderCtrl@@QAAXH@Z 0008f498 f   uafxcwd:winctrl2.obj
 0001:0007e518       ?ClearTics@CSliderCtrl@@QAAXH@Z 0008f518 f   uafxcwd:winctrl2.obj
 0001:0007e59c       ?GetNumTics@CSliderCtrl@@QBAIXZ 0008f59c f   uafxcwd:winctrl2.obj
 0001:0007e628       ?GetTicArray@CSliderCtrl@@QBAPAKXZ 0008f628 f   uafxcwd:winctrl2.obj
 0001:0007e6bc       ?GetTic@CSliderCtrl@@QBAHH@Z 0008f6bc f   uafxcwd:winctrl2.obj
 0001:0007e74c       ?GetTicPos@CSliderCtrl@@QBAHH@Z 0008f74c f   uafxcwd:winctrl2.obj
 0001:0007e7e0       ?SetTic@CSliderCtrl@@QAAHH@Z 0008f7e0 f   uafxcwd:winctrl2.obj
 0001:0007e870       ?SetTicFreq@CSliderCtrl@@QAAXH@Z 0008f870 f   uafxcwd:winctrl2.obj
 0001:0007e8f4       ?GetBuddy@CSliderCtrl@@QBAPAVCWnd@@H@Z 0008f8f4 f   uafxcwd:winctrl2.obj
 0001:0007e990       ?SetBuddy@CSliderCtrl@@QAAPAVCWnd@@PAV2@H@Z 0008f990 f   uafxcwd:winctrl2.obj
 0001:0007ea38       ??0CProgressCtrl@@QAA@XZ   0008fa38 f   uafxcwd:winctrl2.obj
 0001:0007ea7c       ?SetRange@CProgressCtrl@@QAAXFF@Z 0008fa7c f   uafxcwd:winctrl2.obj
 0001:0007eb0c       ?SetRange32@CProgressCtrl@@QAAXHH@Z 0008fb0c f   uafxcwd:winctrl2.obj
 0001:0007eb90       ?GetPos@CProgressCtrl@@QAAHXZ 0008fb90 f   uafxcwd:winctrl2.obj
 0001:0007ec24       ?OffsetPos@CProgressCtrl@@QAAHH@Z 0008fc24 f   uafxcwd:winctrl2.obj
 0001:0007ecb8       ?SetStep@CProgressCtrl@@QAAHH@Z 0008fcb8 f   uafxcwd:winctrl2.obj
 0001:0007ed4c       ?StepIt@CProgressCtrl@@QAAHXZ 0008fd4c f   uafxcwd:winctrl2.obj
 0001:0007ede0       ??0CHeaderCtrl@@QAA@XZ     0008fde0 f   uafxcwd:winctrl2.obj
 0001:0007ee24       ?GetItemCount@CHeaderCtrl@@QBAHXZ 0008fe24 f   uafxcwd:winctrl2.obj
 0001:0007eeb4       ?InsertItem@CHeaderCtrl@@QAAHHPAU_HD_ITEMW@@@Z 0008feb4 f   uafxcwd:winctrl2.obj
 0001:0007ef44       ?DeleteItem@CHeaderCtrl@@QAAHH@Z 0008ff44 f   uafxcwd:winctrl2.obj
 0001:0007efd8       ?GetItem@CHeaderCtrl@@QBAHHPAU_HD_ITEMW@@@Z 0008ffd8 f   uafxcwd:winctrl2.obj
 0001:0007f068       ?SetItem@CHeaderCtrl@@QAAHHPAU_HD_ITEMW@@@Z 00090068 f   uafxcwd:winctrl2.obj
 0001:0007f0fc       ?Layout@CHeaderCtrl@@QAAHPAU_HD_LAYOUT@@@Z 000900fc f   uafxcwd:winctrl2.obj
 0001:0007f18c       ??BCImageList@@QBAPAU_IMAGELIST@@XZ 0009018c f   uafxcwd:winctrl2.obj
 0001:0007f1bc       ?GetSafeHandle@CImageList@@QBAPAU_IMAGELIST@@XZ 000901bc f   uafxcwd:winctrl2.obj
 0001:0007f20c       ?GetImageCount@CImageList@@QBAHXZ 0009020c f   uafxcwd:winctrl2.obj
 0001:0007f284       ?Add@CImageList@@QAAHPAVCBitmap@@0@Z 00090284 f   uafxcwd:winctrl2.obj
 0001:0007f31c       ?Add@CImageList@@QAAHPAVCBitmap@@K@Z 0009031c f   uafxcwd:winctrl2.obj
 0001:0007f3a8       ?Remove@CImageList@@QAAHH@Z 000903a8 f   uafxcwd:winctrl2.obj
 0001:0007f424       ?Replace@CImageList@@QAAHHPAVCBitmap@@0@Z 00090424 f   uafxcwd:winctrl2.obj
 0001:0007f4c0       ?Add@CImageList@@QAAHPAUHICON__@@@Z 000904c0 f   uafxcwd:winctrl2.obj
 0001:0007f540       ?Replace@CImageList@@QAAHHPAUHICON__@@@Z 00090540 f   uafxcwd:winctrl2.obj
 0001:0007f5c0       ?ExtractIcon@CImageList@@QAAPAUHICON__@@H@Z 000905c0 f   uafxcwd:winctrl2.obj
 0001:0007f640       ?Draw@CImageList@@QAAHPAVCDC@@HUtagPOINT@@I@Z 00090640 f   uafxcwd:winctrl2.obj
 0001:0007f714       ?DrawEx@CImageList@@QAAHPAVCDC@@HUtagPOINT@@UtagSIZE@@KKI@Z 00090714 f   uafxcwd:winctrl2.obj
 0001:0007f808       ?SetBkColor@CImageList@@QAAKK@Z 00090808 f   uafxcwd:winctrl2.obj
 0001:0007f884       ?GetBkColor@CImageList@@QBAKXZ 00090884 f   uafxcwd:winctrl2.obj
 0001:0007f8fc       ?SetOverlayImage@CImageList@@QAAHHH@Z 000908fc f   uafxcwd:winctrl2.obj
 0001:0007f97c       ?GetImageInfo@CImageList@@QBAHHPAU_IMAGEINFO@@@Z 0009097c f   uafxcwd:winctrl2.obj
 0001:0007f9fc       ?BeginDrag@CImageList@@QAAHHVCPoint@@@Z 000909fc f   uafxcwd:winctrl2.obj
 0001:0007fa80       ?EndDrag@CImageList@@SAXXZ 00090a80 f   uafxcwd:winctrl2.obj
 0001:0007fa90       ?DragMove@CImageList@@SAHVCPoint@@@Z 00090a90 f   uafxcwd:winctrl2.obj
 0001:0007fac8       ?SetDragCursorImage@CImageList@@QAAHHVCPoint@@@Z 00090ac8 f   uafxcwd:winctrl2.obj
 0001:0007fb4c       ?DragShowNolock@CImageList@@SAHH@Z 00090b4c f   uafxcwd:winctrl2.obj
 0001:0007fb80       ?GetDragImage@CImageList@@SAPAV1@PAUtagPOINT@@0@Z 00090b80 f   uafxcwd:winctrl2.obj
 0001:0007fbc4       ?DragEnter@CImageList@@SAHPAVCWnd@@VCPoint@@@Z 00090bc4 f   uafxcwd:winctrl2.obj
 0001:0007fc0c       ?DragLeave@CImageList@@SAHPAVCWnd@@@Z 00090c0c f   uafxcwd:winctrl2.obj
 0001:0007fc4c       ??0CTabCtrl@@QAA@XZ        00090c4c f   uafxcwd:winctrl2.obj
 0001:0007fc90       ?GetImageList@CTabCtrl@@QBAPAVCImageList@@XZ 00090c90 f   uafxcwd:winctrl2.obj
 0001:0007fd30       ?SetImageList@CTabCtrl@@QAAPAVCImageList@@PAV2@@Z 00090d30 f   uafxcwd:winctrl2.obj
 0001:0007fdd8       ?GetItemCount@CTabCtrl@@QBAHXZ 00090dd8 f   uafxcwd:winctrl2.obj
 0001:0007fe6c       ?GetItem@CTabCtrl@@QBAHHPAUtagTCITEMW@@@Z 00090e6c f   uafxcwd:winctrl2.obj
 0001:0007fefc       ?SetItem@CTabCtrl@@QAAHHPAUtagTCITEMW@@@Z 00090efc f   uafxcwd:winctrl2.obj
 0001:0007ff90       ?SetItemExtra@CTabCtrl@@QAAHH@Z 00090f90 f   uafxcwd:winctrl2.obj
 0001:00080020       ?SetCurFocus@CTabCtrl@@QAAXH@Z 00091020 f   uafxcwd:winctrl2.obj
 0001:000800a4       ?InsertItem@CTabCtrl@@QAAJHPAUtagTCITEMW@@@Z 000910a4 f   uafxcwd:winctrl2.obj
 0001:00080134       ?InsertItem@CTabCtrl@@QAAJHPB_W@Z 00091134 f   uafxcwd:winctrl2.obj
 0001:000801cc       ?InsertItem@CTabCtrl@@QAAJHPB_WH@Z 000911cc f   uafxcwd:winctrl2.obj
 0001:00080260       ?DeleteItem@CTabCtrl@@QAAHH@Z 00091260 f   uafxcwd:winctrl2.obj
 0001:000802f4       ?DeleteAllItems@CTabCtrl@@QAAHXZ 000912f4 f   uafxcwd:winctrl2.obj
 0001:00080384       ?GetItemRect@CTabCtrl@@QBAHHPAUtagRECT@@@Z 00091384 f   uafxcwd:winctrl2.obj
 0001:00080418       ?GetCurSel@CTabCtrl@@QBAHXZ 00091418 f   uafxcwd:winctrl2.obj
 0001:000804a8       ?SetCurSel@CTabCtrl@@QAAHH@Z 000914a8 f   uafxcwd:winctrl2.obj
 0001:0008053c       ?HitTest@CTabCtrl@@QBAHPAUtagTCHITTESTINFO@@@Z 0009153c f   uafxcwd:winctrl2.obj
 0001:000805cc       ?AdjustRect@CTabCtrl@@QAAXHPAUtagRECT@@@Z 000915cc f   uafxcwd:winctrl2.obj
 0001:00080650       ?SetItemSize@CTabCtrl@@QAA?AVCSize@@V2@@Z 00091650 f   uafxcwd:winctrl2.obj
 0001:0008070c       ?RemoveImage@CTabCtrl@@QAAXH@Z 0009170c f   uafxcwd:winctrl2.obj
 0001:00080790       ?SetPadding@CTabCtrl@@QAAXVCSize@@@Z 00091790 f   uafxcwd:winctrl2.obj
 0001:00080830       ?GetRowCount@CTabCtrl@@QBAHXZ 00091830 f   uafxcwd:winctrl2.obj
 0001:000808c4       ?GetCurFocus@CTabCtrl@@QBAHXZ 000918c4 f   uafxcwd:winctrl2.obj
 0001:00080958       ?SetMinTabWidth@CTabCtrl@@QAAHH@Z 00091958 f   uafxcwd:winctrl2.obj
 0001:000809ec       ?DeselectAll@CTabCtrl@@QAAXH@Z 000919ec f   uafxcwd:winctrl2.obj
 0001:00080a70       ?HighlightItem@CTabCtrl@@QAAHHH@Z 00091a70 f   uafxcwd:winctrl2.obj
 0001:00080b0c       ?GetExtendedStyle@CTabCtrl@@QAAKXZ 00091b0c f   uafxcwd:winctrl2.obj
 0001:00080ba0       ?SetExtendedStyle@CTabCtrl@@QAAKKK@Z 00091ba0 f   uafxcwd:winctrl2.obj
 0001:00080c34       ?GetRuntimeClass@CSpinButtonCtrl@@UBAPAUCRuntimeClass@@XZ 00091c34 f   uafxcwd:winctrl2.obj
 0001:00080c60       ?GetRuntimeClass@CSliderCtrl@@UBAPAUCRuntimeClass@@XZ 00091c60 f   uafxcwd:winctrl2.obj
 0001:00080c8c       ?GetRuntimeClass@CProgressCtrl@@UBAPAUCRuntimeClass@@XZ 00091c8c f   uafxcwd:winctrl2.obj
 0001:00080cb8       ?GetRuntimeClass@CHeaderCtrl@@UBAPAUCRuntimeClass@@XZ 00091cb8 f   uafxcwd:winctrl2.obj
 0001:00080ce4       ?GetRuntimeClass@CTabCtrl@@UBAPAUCRuntimeClass@@XZ 00091ce4 f   uafxcwd:winctrl2.obj
 0001:00080d10       ?GetRuntimeClass@CTreeCtrl@@UBAPAUCRuntimeClass@@XZ 00091d10 f   uafxcwd:winctrl2.obj
 0001:00080d3c       ?GetRuntimeClass@CListCtrl@@UBAPAUCRuntimeClass@@XZ 00091d3c f   uafxcwd:winctrl2.obj
 0001:00080d68       ?GetRuntimeClass@CToolBarCtrl@@UBAPAUCRuntimeClass@@XZ 00091d68 f   uafxcwd:winctrl2.obj
 0001:00080d94       ?GetRuntimeClass@CStatusBarCtrl@@UBAPAUCRuntimeClass@@XZ 00091d94 f   uafxcwd:winctrl2.obj
 0001:00080dc8       ?CreateObject@CImageList@@SAPAVCObject@@XZ 00091dc8 f   uafxcwd:winctrl2.obj
 0001:00080e44       ?GetRuntimeClass@CImageList@@UBAPAUCRuntimeClass@@XZ 00091e44 f   uafxcwd:winctrl2.obj
 0001:00080e70       ??_GCToolBarCtrl@@UAAPAXI@Z 00091e70 f i uafxcwd:winctrl2.obj
 0001:00080e70       ??_ECToolBarCtrl@@UAAPAXI@Z 00091e70 f i uafxcwd:winctrl2.obj
 0001:00080eb4       ??_GCStatusBarCtrl@@UAAPAXI@Z 00091eb4 f i uafxcwd:winctrl2.obj
 0001:00080eb4       ??_ECStatusBarCtrl@@UAAPAXI@Z 00091eb4 f i uafxcwd:winctrl2.obj
 0001:00080ef8       ??_GCListCtrl@@UAAPAXI@Z   00091ef8 f i uafxcwd:winctrl2.obj
 0001:00080ef8       ??_ECListCtrl@@UAAPAXI@Z   00091ef8 f i uafxcwd:winctrl2.obj
 0001:00080f3c       ??_GCTreeCtrl@@UAAPAXI@Z   00091f3c f i uafxcwd:winctrl2.obj
 0001:00080f3c       ??_ECTreeCtrl@@UAAPAXI@Z   00091f3c f i uafxcwd:winctrl2.obj
 0001:00080f80       ??_ECSpinButtonCtrl@@UAAPAXI@Z 00091f80 f i uafxcwd:winctrl2.obj
 0001:00080f80       ??_GCSpinButtonCtrl@@UAAPAXI@Z 00091f80 f i uafxcwd:winctrl2.obj
 0001:00080fc4       ??_GCSliderCtrl@@UAAPAXI@Z 00091fc4 f i uafxcwd:winctrl2.obj
 0001:00080fc4       ??_ECSliderCtrl@@UAAPAXI@Z 00091fc4 f i uafxcwd:winctrl2.obj
 0001:00081008       ??_GCProgressCtrl@@UAAPAXI@Z 00092008 f i uafxcwd:winctrl2.obj
 0001:00081008       ??_ECProgressCtrl@@UAAPAXI@Z 00092008 f i uafxcwd:winctrl2.obj
 0001:0008104c       ??_ECHeaderCtrl@@UAAPAXI@Z 0009204c f i uafxcwd:winctrl2.obj
 0001:0008104c       ??_GCHeaderCtrl@@UAAPAXI@Z 0009204c f i uafxcwd:winctrl2.obj
 0001:00081090       ??_ECTabCtrl@@UAAPAXI@Z    00092090 f i uafxcwd:winctrl2.obj
 0001:00081090       ??_GCTabCtrl@@UAAPAXI@Z    00092090 f i uafxcwd:winctrl2.obj
 0001:000810d4       ??_ECImageList@@UAAPAXI@Z  000920d4 f i uafxcwd:winctrl2.obj
 0001:000810d4       ??_GCImageList@@UAAPAXI@Z  000920d4 f i uafxcwd:winctrl2.obj
 0001:00081120       ?Construct@?$ConstructDestruct@VCImageList@@@@SAXPAVCObject@@@Z 00092120 f i uafxcwd:winctrl2.obj
 0001:000811a4       ?Destruct@?$ConstructDestruct@VCImageList@@@@SAXPAVCObject@@@Z 000921a4 f i uafxcwd:winctrl2.obj
 0001:000811e8       ?AfxImageList_Create@@YAPAU_IMAGELIST@@HHIHH@Z 000921e8 f i uafxcwd:winctrl2.obj
 0001:00081248       ?_ImageList_Create@CComCtlWrapper@@QAAPAU_IMAGELIST@@HHIHH@Z 00092248 f i uafxcwd:winctrl2.obj
 0001:0008132c       ??BImageList_Create_Type@CComCtlWrapper@@QAAP6APAU_IMAGELIST@@HHIHH@ZXZ 0009232c f i uafxcwd:winctrl2.obj
 0001:00081358       ?GetProcAddress_ImageList_Create@CComCtlWrapper@@QAA?AUImageList_Create_Type@1@XZ 00092358 f i uafxcwd:winctrl2.obj
 0001:000813e0       ?GetModuleHandle2@CComCtlWrapper@@QAAPAUHINSTANCE__@@XZ 000923e0 f i uafxcwd:winctrl2.obj
 0001:000814b0       ??4ImageList_Create_Type@CComCtlWrapper@@QAAXP6APAU_IMAGELIST@@HHIHH@Z@Z 000924b0 f i uafxcwd:winctrl2.obj
 0001:000814d0       ??7ImageList_Create_Type@CComCtlWrapper@@QBA_NXZ 000924d0 f i uafxcwd:winctrl2.obj
 0001:00081520       ?AfxImageList_Destroy@@YAHPAU_IMAGELIST@@@Z 00092520 f i uafxcwd:winctrl2.obj
 0001:00081568       ?_ImageList_Destroy@CComCtlWrapper@@QAAHPAU_IMAGELIST@@@Z 00092568 f i uafxcwd:winctrl2.obj
 0001:00081638       ??BImageList_Destroy_Type@CComCtlWrapper@@QAAP6AHPAU_IMAGELIST@@@ZXZ 00092638 f i uafxcwd:winctrl2.obj
 0001:00081664       ?GetProcAddress_ImageList_Destroy@CComCtlWrapper@@QAA?AUImageList_Destroy_Type@1@XZ 00092664 f i uafxcwd:winctrl2.obj
 0001:000816ec       ??4ImageList_Destroy_Type@CComCtlWrapper@@QAAXP6AHPAU_IMAGELIST@@@Z@Z 000926ec f i uafxcwd:winctrl2.obj
 0001:0008170c       ??7ImageList_Destroy_Type@CComCtlWrapper@@QBA_NXZ 0009270c f i uafxcwd:winctrl2.obj
 0001:0008175c       ?AfxImageList_GetImageCount@@YAHPAU_IMAGELIST@@@Z 0009275c f i uafxcwd:winctrl2.obj
 0001:000817a4       ?_ImageList_GetImageCount@CComCtlWrapper@@QAAHPAU_IMAGELIST@@@Z 000927a4 f i uafxcwd:winctrl2.obj
 0001:00081878       ??BImageList_GetImageCount_Type@CComCtlWrapper@@QAAP6AHPAU_IMAGELIST@@@ZXZ 00092878 f i uafxcwd:winctrl2.obj
 0001:000818a4       ?GetProcAddress_ImageList_GetImageCount@CComCtlWrapper@@QAA?AUImageList_GetImageCount_Type@1@XZ 000928a4 f i uafxcwd:winctrl2.obj
 0001:0008192c       ??4ImageList_GetImageCount_Type@CComCtlWrapper@@QAAXP6AHPAU_IMAGELIST@@@Z@Z 0009292c f i uafxcwd:winctrl2.obj
 0001:0008194c       ??7ImageList_GetImageCount_Type@CComCtlWrapper@@QBA_NXZ 0009294c f i uafxcwd:winctrl2.obj
 0001:0008199c       ?AfxImageList_Add@@YAHPAU_IMAGELIST@@PAUHBITMAP__@@1@Z 0009299c f i uafxcwd:winctrl2.obj
 0001:000819ec       ?_ImageList_Add@CComCtlWrapper@@QAAHPAU_IMAGELIST@@PAUHBITMAP__@@1@Z 000929ec f i uafxcwd:winctrl2.obj
 0001:00081ac8       ??BImageList_Add_Type@CComCtlWrapper@@QAAP6AHPAU_IMAGELIST@@PAUHBITMAP__@@1@ZXZ 00092ac8 f i uafxcwd:winctrl2.obj
 0001:00081af4       ?GetProcAddress_ImageList_Add@CComCtlWrapper@@QAA?AUImageList_Add_Type@1@XZ 00092af4 f i uafxcwd:winctrl2.obj
 0001:00081b7c       ??4ImageList_Add_Type@CComCtlWrapper@@QAAXP6AHPAU_IMAGELIST@@PAUHBITMAP__@@1@Z@Z 00092b7c f i uafxcwd:winctrl2.obj
 0001:00081b9c       ??7ImageList_Add_Type@CComCtlWrapper@@QBA_NXZ 00092b9c f i uafxcwd:winctrl2.obj
 0001:00081bec       ?AfxImageList_ReplaceIcon@@YAHPAU_IMAGELIST@@HPAUHICON__@@@Z 00092bec f i uafxcwd:winctrl2.obj
 0001:00081c3c       ?_ImageList_ReplaceIcon@CComCtlWrapper@@QAAHPAU_IMAGELIST@@HPAUHICON__@@@Z 00092c3c f i uafxcwd:winctrl2.obj
 0001:00081d14       ??BImageList_ReplaceIcon_Type@CComCtlWrapper@@QAAP6AHPAU_IMAGELIST@@HPAUHICON__@@@ZXZ 00092d14 f i uafxcwd:winctrl2.obj
 0001:00081d40       ?GetProcAddress_ImageList_ReplaceIcon@CComCtlWrapper@@QAA?AUImageList_ReplaceIcon_Type@1@XZ 00092d40 f i uafxcwd:winctrl2.obj
 0001:00081dc8       ??4ImageList_ReplaceIcon_Type@CComCtlWrapper@@QAAXP6AHPAU_IMAGELIST@@HPAUHICON__@@@Z@Z 00092dc8 f i uafxcwd:winctrl2.obj
 0001:00081de8       ??7ImageList_ReplaceIcon_Type@CComCtlWrapper@@QBA_NXZ 00092de8 f i uafxcwd:winctrl2.obj
 0001:00081e38       ?AfxImageList_SetBkColor@@YAKPAU_IMAGELIST@@K@Z 00092e38 f i uafxcwd:winctrl2.obj
 0001:00081e84       ?_ImageList_SetBkColor@CComCtlWrapper@@QAAKPAU_IMAGELIST@@K@Z 00092e84 f i uafxcwd:winctrl2.obj
 0001:00081f5c       ??BImageList_SetBkColor_Type@CComCtlWrapper@@QAAP6AKPAU_IMAGELIST@@K@ZXZ 00092f5c f i uafxcwd:winctrl2.obj
 0001:00081f88       ?GetProcAddress_ImageList_SetBkColor@CComCtlWrapper@@QAA?AUImageList_SetBkColor_Type@1@XZ 00092f88 f i uafxcwd:winctrl2.obj
 0001:00082010       ??4ImageList_SetBkColor_Type@CComCtlWrapper@@QAAXP6AKPAU_IMAGELIST@@K@Z@Z 00093010 f i uafxcwd:winctrl2.obj
 0001:00082030       ??7ImageList_SetBkColor_Type@CComCtlWrapper@@QBA_NXZ 00093030 f i uafxcwd:winctrl2.obj
 0001:00082080       ?AfxImageList_GetBkColor@@YAKPAU_IMAGELIST@@@Z 00093080 f i uafxcwd:winctrl2.obj
 0001:000820c8       ?_ImageList_GetBkColor@CComCtlWrapper@@QAAKPAU_IMAGELIST@@@Z 000930c8 f i uafxcwd:winctrl2.obj
 0001:0008219c       ??BImageList_GetBkColor_Type@CComCtlWrapper@@QAAP6AKPAU_IMAGELIST@@@ZXZ 0009319c f i uafxcwd:winctrl2.obj
 0001:000821c8       ?GetProcAddress_ImageList_GetBkColor@CComCtlWrapper@@QAA?AUImageList_GetBkColor_Type@1@XZ 000931c8 f i uafxcwd:winctrl2.obj
 0001:00082250       ??4ImageList_GetBkColor_Type@CComCtlWrapper@@QAAXP6AKPAU_IMAGELIST@@@Z@Z 00093250 f i uafxcwd:winctrl2.obj
 0001:00082270       ??7ImageList_GetBkColor_Type@CComCtlWrapper@@QBA_NXZ 00093270 f i uafxcwd:winctrl2.obj
 0001:000822c0       ?AfxImageList_SetOverlayImage@@YAHPAU_IMAGELIST@@HH@Z 000932c0 f i uafxcwd:winctrl2.obj
 0001:00082310       ?_ImageList_SetOverlayImage@CComCtlWrapper@@QAAHPAU_IMAGELIST@@HH@Z 00093310 f i uafxcwd:winctrl2.obj
 0001:000823ec       ??BImageList_SetOverlayImage_Type@CComCtlWrapper@@QAAP6AHPAU_IMAGELIST@@HH@ZXZ 000933ec f i uafxcwd:winctrl2.obj
 0001:00082418       ?GetProcAddress_ImageList_SetOverlayImage@CComCtlWrapper@@QAA?AUImageList_SetOverlayImage_Type@1@XZ 00093418 f i uafxcwd:winctrl2.obj
 0001:000824a0       ??4ImageList_SetOverlayImage_Type@CComCtlWrapper@@QAAXP6AHPAU_IMAGELIST@@HH@Z@Z 000934a0 f i uafxcwd:winctrl2.obj
 0001:000824c0       ??7ImageList_SetOverlayImage_Type@CComCtlWrapper@@QBA_NXZ 000934c0 f i uafxcwd:winctrl2.obj
 0001:00082510       ?AfxImageList_Draw@@YAHPAU_IMAGELIST@@HPAUHDC__@@HHI@Z 00093510 f i uafxcwd:winctrl2.obj
 0001:00082578       ?_ImageList_Draw@CComCtlWrapper@@QAAHPAU_IMAGELIST@@HPAUHDC__@@HHI@Z 00093578 f i uafxcwd:winctrl2.obj
 0001:00082664       ??BImageList_Draw_Type@CComCtlWrapper@@QAAP6AHPAU_IMAGELIST@@HPAUHDC__@@HHI@ZXZ 00093664 f i uafxcwd:winctrl2.obj
 0001:00082690       ?GetProcAddress_ImageList_Draw@CComCtlWrapper@@QAA?AUImageList_Draw_Type@1@XZ 00093690 f i uafxcwd:winctrl2.obj
 0001:00082718       ??4ImageList_Draw_Type@CComCtlWrapper@@QAAXP6AHPAU_IMAGELIST@@HPAUHDC__@@HHI@Z@Z 00093718 f i uafxcwd:winctrl2.obj
 0001:00082738       ??7ImageList_Draw_Type@CComCtlWrapper@@QBA_NXZ 00093738 f i uafxcwd:winctrl2.obj
 0001:00082788       ?AfxImageList_Replace@@YAHPAU_IMAGELIST@@HPAUHBITMAP__@@1@Z 00093788 f i uafxcwd:winctrl2.obj
 0001:000827e0       ?_ImageList_Replace@CComCtlWrapper@@QAAHPAU_IMAGELIST@@HPAUHBITMAP__@@1@Z 000937e0 f i uafxcwd:winctrl2.obj
 0001:000828c0       ??BImageList_Replace_Type@CComCtlWrapper@@QAAP6AHPAU_IMAGELIST@@HPAUHBITMAP__@@1@ZXZ 000938c0 f i uafxcwd:winctrl2.obj
 0001:000828ec       ?GetProcAddress_ImageList_Replace@CComCtlWrapper@@QAA?AUImageList_Replace_Type@1@XZ 000938ec f i uafxcwd:winctrl2.obj
 0001:00082974       ??4ImageList_Replace_Type@CComCtlWrapper@@QAAXP6AHPAU_IMAGELIST@@HPAUHBITMAP__@@1@Z@Z 00093974 f i uafxcwd:winctrl2.obj
 0001:00082994       ??7ImageList_Replace_Type@CComCtlWrapper@@QBA_NXZ 00093994 f i uafxcwd:winctrl2.obj
 0001:000829e4       ?AfxImageList_AddMasked@@YAHPAU_IMAGELIST@@PAUHBITMAP__@@K@Z 000939e4 f i uafxcwd:winctrl2.obj
 0001:00082a34       ?_ImageList_AddMasked@CComCtlWrapper@@QAAHPAU_IMAGELIST@@PAUHBITMAP__@@K@Z 00093a34 f i uafxcwd:winctrl2.obj
 0001:00082b10       ??BImageList_AddMasked_Type@CComCtlWrapper@@QAAP6AHPAU_IMAGELIST@@PAUHBITMAP__@@K@ZXZ 00093b10 f i uafxcwd:winctrl2.obj
 0001:00082b3c       ?GetProcAddress_ImageList_AddMasked@CComCtlWrapper@@QAA?AUImageList_AddMasked_Type@1@XZ 00093b3c f i uafxcwd:winctrl2.obj
 0001:00082bc4       ??4ImageList_AddMasked_Type@CComCtlWrapper@@QAAXP6AHPAU_IMAGELIST@@PAUHBITMAP__@@K@Z@Z 00093bc4 f i uafxcwd:winctrl2.obj
 0001:00082be4       ??7ImageList_AddMasked_Type@CComCtlWrapper@@QBA_NXZ 00093be4 f i uafxcwd:winctrl2.obj
 0001:00082c34       ?AfxImageList_DrawEx@@YAHPAU_IMAGELIST@@HPAUHDC__@@HHHHKKI@Z 00093c34 f i uafxcwd:winctrl2.obj
 0001:00082cbc       ?_ImageList_DrawEx@CComCtlWrapper@@QAAHPAU_IMAGELIST@@HPAUHDC__@@HHHHKKI@Z 00093cbc f i uafxcwd:winctrl2.obj
 0001:00082dcc       ??BImageList_DrawEx_Type@CComCtlWrapper@@QAAP6AHPAU_IMAGELIST@@HPAUHDC__@@HHHHKKI@ZXZ 00093dcc f i uafxcwd:winctrl2.obj
 0001:00082df8       ?GetProcAddress_ImageList_DrawEx@CComCtlWrapper@@QAA?AUImageList_DrawEx_Type@1@XZ 00093df8 f i uafxcwd:winctrl2.obj
 0001:00082e80       ??4ImageList_DrawEx_Type@CComCtlWrapper@@QAAXP6AHPAU_IMAGELIST@@HPAUHDC__@@HHHHKKI@Z@Z 00093e80 f i uafxcwd:winctrl2.obj
 0001:00082ea0       ??7ImageList_DrawEx_Type@CComCtlWrapper@@QBA_NXZ 00093ea0 f i uafxcwd:winctrl2.obj
 0001:00082ef0       ?AfxImageList_Remove@@YAHPAU_IMAGELIST@@H@Z 00093ef0 f i uafxcwd:winctrl2.obj
 0001:00082f3c       ?_ImageList_Remove@CComCtlWrapper@@QAAHPAU_IMAGELIST@@H@Z 00093f3c f i uafxcwd:winctrl2.obj
 0001:00083014       ??BImageList_Remove_Type@CComCtlWrapper@@QAAP6AHPAU_IMAGELIST@@H@ZXZ 00094014 f i uafxcwd:winctrl2.obj
 0001:00083040       ?GetProcAddress_ImageList_Remove@CComCtlWrapper@@QAA?AUImageList_Remove_Type@1@XZ 00094040 f i uafxcwd:winctrl2.obj
 0001:000830c8       ??4ImageList_Remove_Type@CComCtlWrapper@@QAAXP6AHPAU_IMAGELIST@@H@Z@Z 000940c8 f i uafxcwd:winctrl2.obj
 0001:000830e8       ??7ImageList_Remove_Type@CComCtlWrapper@@QBA_NXZ 000940e8 f i uafxcwd:winctrl2.obj
 0001:00083138       ?AfxImageList_GetIcon@@YAPAUHICON__@@PAU_IMAGELIST@@HI@Z 00094138 f i uafxcwd:winctrl2.obj
 0001:00083188       ?_ImageList_GetIcon@CComCtlWrapper@@QAAPAUHICON__@@PAU_IMAGELIST@@HI@Z 00094188 f i uafxcwd:winctrl2.obj
 0001:00083264       ??BImageList_GetIcon_Type@CComCtlWrapper@@QAAP6APAUHICON__@@PAU_IMAGELIST@@HI@ZXZ 00094264 f i uafxcwd:winctrl2.obj
 0001:00083290       ?GetProcAddress_ImageList_GetIcon@CComCtlWrapper@@QAA?AUImageList_GetIcon_Type@1@XZ 00094290 f i uafxcwd:winctrl2.obj
 0001:00083318       ??4ImageList_GetIcon_Type@CComCtlWrapper@@QAAXP6APAUHICON__@@PAU_IMAGELIST@@HI@Z@Z 00094318 f i uafxcwd:winctrl2.obj
 0001:00083338       ??7ImageList_GetIcon_Type@CComCtlWrapper@@QBA_NXZ 00094338 f i uafxcwd:winctrl2.obj
 0001:00083388       ?AfxImageList_LoadImage@@YAPAU_IMAGELIST@@PAUHINSTANCE__@@PB_WHHKII@Z 00094388 f i uafxcwd:winctrl2.obj
 0001:000833f8       ?_ImageList_LoadImage@CComCtlWrapper@@QAAPAU_IMAGELIST@@PAUHINSTANCE__@@PB_WHHKII@Z 000943f8 f i uafxcwd:winctrl2.obj
 0001:000834f0       ??BImageList_LoadImage_Type@CComCtlWrapper@@QAAP6APAU_IMAGELIST@@PAUHINSTANCE__@@PB_WHHKII@ZXZ 000944f0 f i uafxcwd:winctrl2.obj
 0001:0008351c       ?GetProcAddress_ImageList_LoadImage@CComCtlWrapper@@QAA?AUImageList_LoadImage_Type@1@XZ 0009451c f i uafxcwd:winctrl2.obj
 0001:000835a4       ??4ImageList_LoadImage_Type@CComCtlWrapper@@QAAXP6APAU_IMAGELIST@@PAUHINSTANCE__@@PB_WHHKII@Z@Z 000945a4 f i uafxcwd:winctrl2.obj
 0001:000835c4       ??7ImageList_LoadImage_Type@CComCtlWrapper@@QBA_NXZ 000945c4 f i uafxcwd:winctrl2.obj
 0001:00083614       ?AfxImageList_BeginDrag@@YAHPAU_IMAGELIST@@HHH@Z 00094614 f i uafxcwd:winctrl2.obj
 0001:0008366c       ?_ImageList_BeginDrag@CComCtlWrapper@@QAAHPAU_IMAGELIST@@HHH@Z 0009466c f i uafxcwd:winctrl2.obj
 0001:0008374c       ??BImageList_BeginDrag_Type@CComCtlWrapper@@QAAP6AHPAU_IMAGELIST@@HHH@ZXZ 0009474c f i uafxcwd:winctrl2.obj
 0001:00083778       ?GetProcAddress_ImageList_BeginDrag@CComCtlWrapper@@QAA?AUImageList_BeginDrag_Type@1@XZ 00094778 f i uafxcwd:winctrl2.obj
 0001:00083800       ??4ImageList_BeginDrag_Type@CComCtlWrapper@@QAAXP6AHPAU_IMAGELIST@@HHH@Z@Z 00094800 f i uafxcwd:winctrl2.obj
 0001:00083820       ??7ImageList_BeginDrag_Type@CComCtlWrapper@@QBA_NXZ 00094820 f i uafxcwd:winctrl2.obj
 0001:00083870       ?AfxImageList_EndDrag@@YAXXZ 00094870 f i uafxcwd:winctrl2.obj
 0001:0008389c       ?_ImageList_EndDrag@CComCtlWrapper@@QAAXXZ 0009489c f i uafxcwd:winctrl2.obj
 0001:0008395c       ??BImageList_EndDrag_Type@CComCtlWrapper@@QAAP6AXXZXZ 0009495c f i uafxcwd:winctrl2.obj
 0001:00083988       ?GetProcAddress_ImageList_EndDrag@CComCtlWrapper@@QAA?AUImageList_EndDrag_Type@1@XZ 00094988 f i uafxcwd:winctrl2.obj
 0001:00083a10       ??4ImageList_EndDrag_Type@CComCtlWrapper@@QAAXP6AXXZ@Z 00094a10 f i uafxcwd:winctrl2.obj
 0001:00083a30       ??7ImageList_EndDrag_Type@CComCtlWrapper@@QBA_NXZ 00094a30 f i uafxcwd:winctrl2.obj
 0001:00083a80       ?AfxImageList_DragEnter@@YAHPAUHWND__@@HH@Z 00094a80 f i uafxcwd:winctrl2.obj
 0001:00083ad0       ?_ImageList_DragEnter@CComCtlWrapper@@QAAHPAUHWND__@@HH@Z 00094ad0 f i uafxcwd:winctrl2.obj
 0001:00083ba8       ??BImageList_DragEnter_Type@CComCtlWrapper@@QAAP6AHPAUHWND__@@HH@ZXZ 00094ba8 f i uafxcwd:winctrl2.obj
 0001:00083bd4       ?GetProcAddress_ImageList_DragEnter@CComCtlWrapper@@QAA?AUImageList_DragEnter_Type@1@XZ 00094bd4 f i uafxcwd:winctrl2.obj
 0001:00083c5c       ??4ImageList_DragEnter_Type@CComCtlWrapper@@QAAXP6AHPAUHWND__@@HH@Z@Z 00094c5c f i uafxcwd:winctrl2.obj
 0001:00083c7c       ??7ImageList_DragEnter_Type@CComCtlWrapper@@QBA_NXZ 00094c7c f i uafxcwd:winctrl2.obj
 0001:00083ccc       ?AfxImageList_DragLeave@@YAHPAUHWND__@@@Z 00094ccc f i uafxcwd:winctrl2.obj
 0001:00083d14       ?_ImageList_DragLeave@CComCtlWrapper@@QAAHPAUHWND__@@@Z 00094d14 f i uafxcwd:winctrl2.obj
 0001:00083de8       ??BImageList_DragLeave_Type@CComCtlWrapper@@QAAP6AHPAUHWND__@@@ZXZ 00094de8 f i uafxcwd:winctrl2.obj
 0001:00083e14       ?GetProcAddress_ImageList_DragLeave@CComCtlWrapper@@QAA?AUImageList_DragLeave_Type@1@XZ 00094e14 f i uafxcwd:winctrl2.obj
 0001:00083e9c       ??4ImageList_DragLeave_Type@CComCtlWrapper@@QAAXP6AHPAUHWND__@@@Z@Z 00094e9c f i uafxcwd:winctrl2.obj
 0001:00083ebc       ??7ImageList_DragLeave_Type@CComCtlWrapper@@QBA_NXZ 00094ebc f i uafxcwd:winctrl2.obj
 0001:00083f0c       ?AfxImageList_DragMove@@YAHHH@Z 00094f0c f i uafxcwd:winctrl2.obj
 0001:00083f58       ?_ImageList_DragMove@CComCtlWrapper@@QAAHHH@Z 00094f58 f i uafxcwd:winctrl2.obj
 0001:00084030       ??BImageList_DragMove_Type@CComCtlWrapper@@QAAP6AHHH@ZXZ 00095030 f i uafxcwd:winctrl2.obj
 0001:0008405c       ?GetProcAddress_ImageList_DragMove@CComCtlWrapper@@QAA?AUImageList_DragMove_Type@1@XZ 0009505c f i uafxcwd:winctrl2.obj
 0001:000840e4       ??4ImageList_DragMove_Type@CComCtlWrapper@@QAAXP6AHHH@Z@Z 000950e4 f i uafxcwd:winctrl2.obj
 0001:00084104       ??7ImageList_DragMove_Type@CComCtlWrapper@@QBA_NXZ 00095104 f i uafxcwd:winctrl2.obj
 0001:00084154       ?AfxImageList_SetDragCursorImage@@YAHPAU_IMAGELIST@@HHH@Z 00095154 f i uafxcwd:winctrl2.obj
 0001:000841ac       ?_ImageList_SetDragCursorImage@CComCtlWrapper@@QAAHPAU_IMAGELIST@@HHH@Z 000951ac f i uafxcwd:winctrl2.obj
 0001:0008428c       ??BImageList_SetDragCursorImage_Type@CComCtlWrapper@@QAAP6AHPAU_IMAGELIST@@HHH@ZXZ 0009528c f i uafxcwd:winctrl2.obj
 0001:000842b8       ?GetProcAddress_ImageList_SetDragCursorImage@CComCtlWrapper@@QAA?AUImageList_SetDragCursorImage_Type@1@XZ 000952b8 f i uafxcwd:winctrl2.obj
 0001:00084340       ??4ImageList_SetDragCursorImage_Type@CComCtlWrapper@@QAAXP6AHPAU_IMAGELIST@@HHH@Z@Z 00095340 f i uafxcwd:winctrl2.obj
 0001:00084360       ??7ImageList_SetDragCursorImage_Type@CComCtlWrapper@@QBA_NXZ 00095360 f i uafxcwd:winctrl2.obj
 0001:000843b0       ?AfxImageList_DragShowNolock@@YAHH@Z 000953b0 f i uafxcwd:winctrl2.obj
 0001:000843f8       ?_ImageList_DragShowNolock@CComCtlWrapper@@QAAHH@Z 000953f8 f i uafxcwd:winctrl2.obj
 0001:000844c8       ??BImageList_DragShowNolock_Type@CComCtlWrapper@@QAAP6AHH@ZXZ 000954c8 f i uafxcwd:winctrl2.obj
 0001:000844f4       ?GetProcAddress_ImageList_DragShowNolock@CComCtlWrapper@@QAA?AUImageList_DragShowNolock_Type@1@XZ 000954f4 f i uafxcwd:winctrl2.obj
 0001:0008457c       ??4ImageList_DragShowNolock_Type@CComCtlWrapper@@QAAXP6AHH@Z@Z 0009557c f i uafxcwd:winctrl2.obj
 0001:0008459c       ??7ImageList_DragShowNolock_Type@CComCtlWrapper@@QBA_NXZ 0009559c f i uafxcwd:winctrl2.obj
 0001:000845ec       ?AfxImageList_GetDragImage@@YAPAU_IMAGELIST@@PAUtagPOINT@@0@Z 000955ec f i uafxcwd:winctrl2.obj
 0001:00084638       ?_ImageList_GetDragImage@CComCtlWrapper@@QAAPAU_IMAGELIST@@PAUtagPOINT@@0@Z 00095638 f i uafxcwd:winctrl2.obj
 0001:00084710       ??BImageList_GetDragImage_Type@CComCtlWrapper@@QAAP6APAU_IMAGELIST@@PAUtagPOINT@@0@ZXZ 00095710 f i uafxcwd:winctrl2.obj
 0001:0008473c       ?GetProcAddress_ImageList_GetDragImage@CComCtlWrapper@@QAA?AUImageList_GetDragImage_Type@1@XZ 0009573c f i uafxcwd:winctrl2.obj
 0001:000847c4       ??4ImageList_GetDragImage_Type@CComCtlWrapper@@QAAXP6APAU_IMAGELIST@@PAUtagPOINT@@0@Z@Z 000957c4 f i uafxcwd:winctrl2.obj
 0001:000847e4       ??7ImageList_GetDragImage_Type@CComCtlWrapper@@QBA_NXZ 000957e4 f i uafxcwd:winctrl2.obj
 0001:00084834       ?AfxImageList_GetImageInfo@@YAHPAU_IMAGELIST@@HPAU_IMAGEINFO@@@Z 00095834 f i uafxcwd:winctrl2.obj
 0001:00084884       ?_ImageList_GetImageInfo@CComCtlWrapper@@QAAHPAU_IMAGELIST@@HPAU_IMAGEINFO@@@Z 00095884 f i uafxcwd:winctrl2.obj
 0001:00084960       ??BImageList_GetImageInfo_Type@CComCtlWrapper@@QAAP6AHPAU_IMAGELIST@@HPAU_IMAGEINFO@@@ZXZ 00095960 f i uafxcwd:winctrl2.obj
 0001:0008498c       ?GetProcAddress_ImageList_GetImageInfo@CComCtlWrapper@@QAA?AUImageList_GetImageInfo_Type@1@XZ 0009598c f i uafxcwd:winctrl2.obj
 0001:00084a14       ??4ImageList_GetImageInfo_Type@CComCtlWrapper@@QAAXP6AHPAU_IMAGELIST@@HPAU_IMAGEINFO@@@Z@Z 00095a14 f i uafxcwd:winctrl2.obj
 0001:00084a34       ??7ImageList_GetImageInfo_Type@CComCtlWrapper@@QBA_NXZ 00095a34 f i uafxcwd:winctrl2.obj
 0001:00084a84       ?AfxImageList_Merge@@YAPAU_IMAGELIST@@PAU1@H0HHH@Z 00095a84 f i uafxcwd:winctrl2.obj
 0001:00084aec       ?_ImageList_Merge@CComCtlWrapper@@QAAPAU_IMAGELIST@@PAU2@H0HHH@Z 00095aec f i uafxcwd:winctrl2.obj
 0001:00084bd8       ??BImageList_Merge_Type@CComCtlWrapper@@QAAP6APAU_IMAGELIST@@PAU2@H0HHH@ZXZ 00095bd8 f i uafxcwd:winctrl2.obj
 0001:00084c04       ?GetProcAddress_ImageList_Merge@CComCtlWrapper@@QAA?AUImageList_Merge_Type@1@XZ 00095c04 f i uafxcwd:winctrl2.obj
 0001:00084c8c       ??4ImageList_Merge_Type@CComCtlWrapper@@QAAXP6APAU_IMAGELIST@@PAU2@H0HHH@Z@Z 00095c8c f i uafxcwd:winctrl2.obj
 0001:00084cac       ??7ImageList_Merge_Type@CComCtlWrapper@@QBA_NXZ 00095cac f i uafxcwd:winctrl2.obj
 0001:00084d04       ?afxMapHMENU@@YAPAVCHandleMap@@H@Z 00095d04 f   uafxcwd:winmenu.obj
 0001:00084e2c       ?FromHandle@CMenu@@SAPAV1@PAUHMENU__@@@Z 00095e2c f   uafxcwd:winmenu.obj
 0001:00084ef8       ?FromHandlePermanent@CMenu@@SAPAV1@PAUHMENU__@@@Z 00095ef8 f   uafxcwd:winmenu.obj
 0001:00084fa8       ?AssertValid@CMenu@@UBAXXZ 00095fa8 f   uafxcwd:winmenu.obj
 0001:00085024       ?Attach@CMenu@@QAAHPAUHMENU__@@@Z 00096024 f   uafxcwd:winmenu.obj
 0001:00085108       ?Detach@CMenu@@QAAPAUHMENU__@@XZ 00096108 f   uafxcwd:winmenu.obj
 0001:00085190       ?DestroyMenu@CMenu@@QAAHXZ 00096190 f   uafxcwd:winmenu.obj
 0001:000851f0       ?GetMenuStringW@CMenu@@QBAHIAAV?$CStringT@_WV?$StrTraitMFC@_WV?$ChTraitsOS@_W@ATL@@@@@ATL@@I@Z 000961f0 f   uafxcwd:winmenu.obj
 0001:000852f4       ?DrawItem@CMenu@@UAAXPAUtagDRAWITEMSTRUCT@@@Z 000962f4 f   uafxcwd:winmenu.obj
 0001:00085308       ?MeasureItem@CMenu@@UAAXPAUtagMEASUREITEMSTRUCT@@@Z 00096308 f   uafxcwd:winmenu.obj
 0001:00085324       ?CreateObject@CMenu@@SAPAVCObject@@XZ 00096324 f   uafxcwd:winmenu.obj
 0001:000853a0       ?GetRuntimeClass@CMenu@@UBAPAUCRuntimeClass@@XZ 000963a0 f   uafxcwd:winmenu.obj
 0001:000853d4       ?Construct@?$ConstructDestruct@VCMenu@@@@SAXPAVCObject@@@Z 000963d4 f i uafxcwd:winmenu.obj
 0001:00085458       ?Destruct@?$ConstructDestruct@VCMenu@@@@SAXPAVCObject@@@Z 00096458 f i uafxcwd:winmenu.obj
 0001:0008549c       ?Create@CPlex@@SAPAU1@AAPAU1@II@Z 0009649c f   uafxcwd:plex.obj
 0001:00085560       ?FreeDataChain@CPlex@@QAAXXZ 00096560 f   uafxcwd:plex.obj
 0001:000855c0       ?GetMessageMap@CFrameWnd@@MBAPBUAFX_MSGMAP@@XZ 000965c0 f   uafxcwd:winfrm.obj
 0001:000855f0       ?GetThisMessageMap@CFrameWnd@@KAPBUAFX_MSGMAP@@XZ 000965f0 f   uafxcwd:winfrm.obj
 0001:00085614       ??0CFrameWnd@@QAA@XZ       00096614 f   uafxcwd:winfrm.obj
 0001:000858a4       ??1CFrameWnd@@UAA@XZ       000968a4 f   uafxcwd:winfrm.obj
 0001:000859b0       ?AddFrameWnd@CFrameWnd@@IAAXXZ 000969b0 f   uafxcwd:winfrm.obj
 0001:000859fc       ?RemoveFrameWnd@CFrameWnd@@IAAXXZ 000969fc f   uafxcwd:winfrm.obj
 0001:00085a48       ?LoadAccelTable@CFrameWnd@@QAAHPB_W@Z 00096a48 f   uafxcwd:winfrm.obj
 0001:00085b30       ?GetDefaultAccelerator@CFrameWnd@@UAAPAUHACCEL__@@XZ 00096b30 f   uafxcwd:winfrm.obj
 0001:00085bd8       ?PreTranslateMessage@CFrameWnd@@UAAHPAUtagMSG@@@Z 00096bd8 f   uafxcwd:winfrm.obj
 0001:00085d5c       ?PostNcDestroy@CFrameWnd@@MAAXXZ 00096d5c f   uafxcwd:winfrm.obj
 0001:00085dcc       ?OnPaletteChanged@CFrameWnd@@IAAXPAVCWnd@@@Z 00096dcc f   uafxcwd:winfrm.obj
 0001:00085dec       ?OnQueryNewPalette@CFrameWnd@@IAAHXZ 00096dec f   uafxcwd:winfrm.obj
 0001:00085e20       ?OnCommand@CFrameWnd@@MAAHIJ@Z 00096e20 f   uafxcwd:winfrm.obj
 0001:00085eb0       ?AfxIsDescendant@@YAHPAUHWND__@@0@Z 00096eb0 f   uafxcwd:winfrm.obj
 0001:00085f9c       ?BeginModalState@CFrameWnd@@UAAXXZ 00096f9c f   uafxcwd:winfrm.obj
 0001:00086358       ?EndModalState@CFrameWnd@@UAAXXZ 00097358 f   uafxcwd:winfrm.obj
 0001:00086520       ?ShowOwnedWindows@CFrameWnd@@QAAXH@Z 00097520 f   uafxcwd:winfrm.obj
 0001:000866ac       ?OnEnable@CFrameWnd@@IAAXH@Z 000976ac f   uafxcwd:winfrm.obj
 0001:00086888       ?PreCreateWindow@CFrameWnd@@MAAHAAUtagCREATESTRUCTW@@@Z 00097888 f   uafxcwd:winfrm.obj
 0001:00086944       ?Create@CFrameWnd@@UAAHPB_W0KABUtagRECT@@PAVCWnd@@0KPAUCCreateContext@@@Z 00097944 f   uafxcwd:winfrm.obj
 0001:00086aa0       ?CreateView@CFrameWnd@@QAAPAVCWnd@@PAUCCreateContext@@I@Z 00097aa0 f   uafxcwd:winfrm.obj
 0001:00086dc4       ?OnCreateClient@CFrameWnd@@MAAHPAUtagCREATESTRUCTW@@PAUCCreateContext@@@Z 00097dc4 f   uafxcwd:winfrm.obj
 0001:00086e84       ?OnCreate@CFrameWnd@@IAAHPAUtagCREATESTRUCTW@@@Z 00097e84 f   uafxcwd:winfrm.obj
 0001:00086f38       ?OnCreateHelper@CFrameWnd@@IAAHPAUtagCREATESTRUCTW@@PAUCCreateContext@@@Z 00097f38 f   uafxcwd:winfrm.obj
 0001:000870a4       ?GetIconWndClass@CFrameWnd@@IAAPB_WKI@Z 000980a4 f   uafxcwd:winfrm.obj
 0001:000871f4       ?LoadFrame@CFrameWnd@@UAAHIKPAVCWnd@@PAUCCreateContext@@@Z 000981f4 f   uafxcwd:winfrm.obj
 0001:00087514       ?OnUpdateFrameMenu@CFrameWnd@@UAAXPAUHMENU__@@@Z 00098514 f   uafxcwd:winfrm.obj
 0001:000875c8       ?InitialUpdateFrame@CFrameWnd@@QAAXPAVCDocument@@H@Z 000985c8 f   uafxcwd:winfrm.obj
 0001:000877bc       ?OnClose@CFrameWnd@@IAAXXZ 000987bc f   uafxcwd:winfrm.obj
 0001:00087a90       ?OnDestroy@CFrameWnd@@IAAXXZ 00098a90 f   uafxcwd:winfrm.obj
 0001:00087bd0       ?RemoveControlBar@CFrameWnd@@QAAXPAVCControlBar@@@Z 00098bd0 f   uafxcwd:winfrm.obj
 0001:00087c28       ?OnSettingChange@CFrameWnd@@IAAXIPB_W@Z 00098c28 f   uafxcwd:winfrm.obj
 0001:00087ce8       ?OnCmdMsg@CFrameWnd@@UAAHIHPAXPAUAFX_CMDHANDLERINFO@@@Z 00098ce8 f   uafxcwd:winfrm.obj
 0001:00087e8c       ?OnHScroll@CFrameWnd@@IAAXIIPAVCScrollBar@@@Z 00098e8c f   uafxcwd:winfrm.obj
 0001:00087efc       ?OnVScroll@CFrameWnd@@IAAXIIPAVCScrollBar@@@Z 00098efc f   uafxcwd:winfrm.obj
 0001:00087f70       ?OnActivateTopLevel@CFrameWnd@@IAAJIJ@Z 00098f70 f   uafxcwd:winfrm.obj
 0001:000880a4       ?OnActivate@CFrameWnd@@IAAXIPAVCWnd@@H@Z 000990a4 f   uafxcwd:winfrm.obj
 0001:0008845c       ?OnOK@CFrameWnd@@IAAXXZ    0009945c f   uafxcwd:winfrm.obj
 0001:0008857c       ?OnSysCommand@CFrameWnd@@IAAXIJ@Z 0009957c f   uafxcwd:winfrm.obj
 0001:000885f8       ?GetActiveView@CFrameWnd@@QBAPAVCView@@XZ 000995f8 f   uafxcwd:winfrm.obj
 0001:0008868c       ?SetActiveView@CFrameWnd@@QAAXPAVCView@@H@Z 0009968c f   uafxcwd:winfrm.obj
 0001:00088810       ?OnSetFocus@CFrameWnd@@IAAXPAVCWnd@@@Z 00099810 f   uafxcwd:winfrm.obj
 0001:00088858       ?GetActiveDocument@CFrameWnd@@UAAPAVCDocument@@XZ 00099858 f   uafxcwd:winfrm.obj
 0001:000888d0       ?ShowControlBar@CFrameWnd@@QAAXPAVCControlBar@@HH@Z 000998d0 f   uafxcwd:winfrm.obj
 0001:00088a68       ?OnInitMenuPopup@CFrameWnd@@IAAXPAVCMenu@@IH@Z 00099a68 f   uafxcwd:winfrm.obj
 0001:00088e80       ?GetMessageString@CFrameWnd@@UBAXIAAV?$CStringT@_WV?$StrTraitMFC@_WV?$ChTraitsOS@_W@ATL@@@@@ATL@@@Z 00099e80 f   uafxcwd:winfrm.obj
 0001:00088f60       ?OnPopMessageString@CFrameWnd@@IAAJIJ@Z 00099f60 f   uafxcwd:winfrm.obj
 0001:00088fcc       ?OnSetMessageString@CFrameWnd@@IAAJIJ@Z 00099fcc f   uafxcwd:winfrm.obj
 0001:000891bc       ?GetMessageBar@CFrameWnd@@UAAPAVCWnd@@XZ 0009a1bc f   uafxcwd:winfrm.obj
 0001:000891fc       ?SetMessageText@CFrameWnd@@QAAXPB_W@Z 0009a1fc f   uafxcwd:winfrm.obj
 0001:00089228       ?SetMessageText@CFrameWnd@@QAAXI@Z 0009a228 f   uafxcwd:winfrm.obj
 0001:00089254       ?DestroyDockBars@CFrameWnd@@QAAXXZ 0009a254 f   uafxcwd:winfrm.obj
 0001:000892e0       ?GetControlBar@CFrameWnd@@QAAPAVCControlBar@@I@Z 0009a2e0 f   uafxcwd:winfrm.obj
 0001:00089418       ?OnUpdateControlBarMenu@CFrameWnd@@QAAXPAVCCmdUI@@@Z 0009a418 f   uafxcwd:winfrm.obj
 0001:00089524       ?OnBarCheck@CFrameWnd@@QAAHI@Z 0009a524 f   uafxcwd:winfrm.obj
 0001:000895bc       ?OnUpdateKeyIndicator@CFrameWnd@@IAAXPAVCCmdUI@@@Z 0009a5bc f   uafxcwd:winfrm.obj
 0001:000897a4       ?OnUpdateFrameTitle@CFrameWnd@@UAAXH@Z 0009a7a4 f   uafxcwd:winfrm.obj
 0001:00089858       ?UpdateFrameTitleForDocument@CFrameWnd@@QAAXPB_W@Z 0009a858 f   uafxcwd:winfrm.obj
 0001:000899dc       ?DelayUpdateFrameMenu@CFrameWnd@@UAAXPAUHMENU__@@@Z 0009a9dc f   uafxcwd:winfrm.obj
 0001:00089a1c       ?OnIdleUpdateCmdUI@CFrameWnd@@IAAXXZ 0009aa1c f   uafxcwd:winfrm.obj
 0001:00089b18       ?GetActiveFrame@CFrameWnd@@UAAPAV1@XZ 0009ab18 f   uafxcwd:winfrm.obj
 0001:00089b40       ?RecalcLayout@CFrameWnd@@UAAXH@Z 0009ab40 f   uafxcwd:winfrm.obj
 0001:00089d28       ?NegotiateBorderSpace@CFrameWnd@@UAAHIPAUtagRECT@@@Z 0009ad28 f   uafxcwd:winfrm.obj
 0001:00089ed0       ?OnSize@CFrameWnd@@IAAXIHH@Z 0009aed0 f   uafxcwd:winfrm.obj
 0001:00089f24       ?OnEraseBkgnd@CFrameWnd@@IAAHPAVCDC@@@Z 0009af24 f   uafxcwd:winfrm.obj
 0001:00089f7c       ?OnRegisteredMouseWheel@CFrameWnd@@IAAJIJ@Z 0009af7c f   uafxcwd:winfrm.obj
 0001:0008a108       ?ActivateFrame@CFrameWnd@@UAAXH@Z 0009b108 f   uafxcwd:winfrm.obj
 0001:0008a1a4       ?BringToTop@CFrameWnd@@IAAXH@Z 0009b1a4 f   uafxcwd:winfrm.obj
 0001:0008a230       ?OnFolderChanged@CFrameWnd@@IAAXPAUtagDLNHDR@@PAJ@Z 0009b230 f   uafxcwd:winfrm.obj
 0001:0008a3f4       ?OnCreateDocList@CFrameWnd@@IAAXPAUtagDLNHDR@@PAJ@Z 0009b3f4 f   uafxcwd:winfrm.obj
 0001:0008a43c       ?OnDestroyDocList@CFrameWnd@@IAAXPAUtagDLNHDR@@PAJ@Z 0009b43c f   uafxcwd:winfrm.obj
 0001:0008a4dc       ?AssertValid@CFrameWnd@@UBAXXZ 0009b4dc f   uafxcwd:winfrm.obj
 0001:0008a52c       ?GetDockingFrame@CControlBar@@QBAPAVCFrameWnd@@XZ 0009b52c f   uafxcwd:winfrm.obj
 0001:0008a600       ?IsFloating@CControlBar@@QBAHXZ 0009b600 f   uafxcwd:winfrm.obj
 0001:0008a630       ?CreateObject@CFrameWnd@@SAPAVCObject@@XZ 0009b630 f   uafxcwd:winfrm.obj
 0001:0008a6ac       ?GetRuntimeClass@CFrameWnd@@UBAPAUCRuntimeClass@@XZ 0009b6ac f   uafxcwd:winfrm.obj
 0001:0008a6d8       ?GetRuntimeClass@CView@@UBAPAUCRuntimeClass@@XZ 0009b6d8 f   uafxcwd:winfrm.obj
 0001:0008a704       ?GetRuntimeClass@CControlBar@@UBAPAUCRuntimeClass@@XZ 0009b704 f   uafxcwd:winfrm.obj
 0001:0008a730       ??_GCFrameWnd@@UAAPAXI@Z   0009b730 f i uafxcwd:winfrm.obj
 0001:0008a730       ??_ECFrameWnd@@UAAPAXI@Z   0009b730 f i uafxcwd:winfrm.obj
 0001:0008a774       GetCurrentProcessId        0009b774 f i uafxcwd:winfrm.obj
 0001:0008a794       ??9ATL@@YA_NPB_WABV?$CStringT@_WV?$StrTraitMFC@_WV?$ChTraitsOS@_W@ATL@@@@@0@@Z 0009b794 f i uafxcwd:winfrm.obj
 0001:0008a7f0       ?AddHead@?$CTypedSimpleList@PAVCFrameWnd@@@@QAAXPAVCFrameWnd@@@Z 0009b7f0 f i uafxcwd:winfrm.obj
 0001:0008a810       ?Remove@?$CTypedSimpleList@PAVCFrameWnd@@@@QAAHPAVCFrameWnd@@@Z 0009b810 f i uafxcwd:winfrm.obj
 0001:0008a848       ??0?$CArray@PAUHWND__@@PAU1@@@QAA@XZ 0009b848 f i uafxcwd:winfrm.obj
 0001:0008a8cc       ?GetCount@?$CArray@PAUHWND__@@PAU1@@@QBAHXZ 0009b8cc f i uafxcwd:winfrm.obj
 0001:0008a8fc       ?GetData@?$CArray@PAUHWND__@@PAU1@@@QAAPAPAUHWND__@@XZ 0009b8fc f i uafxcwd:winfrm.obj
 0001:0008a92c       ?Add@?$CArray@PAUHWND__@@PAU1@@@QAAHPAUHWND__@@@Z 0009b92c f i uafxcwd:winfrm.obj
 0001:0008a97c       ??1?$CArray@PAUHWND__@@PAU1@@@UAA@XZ 0009b97c f i uafxcwd:winfrm.obj
 0001:0008aa3c       ?Serialize@?$CArray@PAUHWND__@@PAU1@@@UAAXAAVCArchive@@@Z 0009ba3c f i uafxcwd:winfrm.obj
 0001:0008aaf0       ?AssertValid@?$CArray@PAUHWND__@@PAU1@@@UBAXXZ 0009baf0 f i uafxcwd:winfrm.obj
 0001:0008acbc       ??_E?$CArray@PAUHWND__@@PAU1@@@UAAPAXI@Z 0009bcbc f i uafxcwd:winfrm.obj
 0001:0008acbc       ??_G?$CArray@PAUHWND__@@PAU1@@@UAAPAXI@Z 0009bcbc f i uafxcwd:winfrm.obj
 0001:0008ad00       ?SetSize@?$CArray@PAUHWND__@@PAU1@@@QAAXHH@Z 0009bd00 f i uafxcwd:winfrm.obj
 0001:0008b3e0       ?SetAtGrow@?$CArray@PAUHWND__@@PAU1@@@QAAXHPAUHWND__@@@Z 0009c3e0 f i uafxcwd:winfrm.obj
 0001:0008b4a8       ??$SerializeElements@PAUHWND__@@@@YAXAAVCArchive@@PAPAUHWND__@@H@Z 0009c4a8 f i uafxcwd:winfrm.obj
 0001:0008b6bc       ?SHSipPreference@AYGSHELL@@YAHPAUHWND__@@W4tagSIPSTATE@@@Z 0009c6bc f i uafxcwd:winfrm.obj
 0001:0008b750       ??0CPushRoutingFrame@@QAA@PAVCFrameWnd@@@Z 0009c750 f i uafxcwd:winfrm.obj
 0001:0008b7fc       ??1CPushRoutingFrame@@QAA@XZ 0009c7fc f i uafxcwd:winfrm.obj
 0001:0008b8ac       ?Pop@CPushRoutingFrame@@QAAXXZ 0009c8ac f i uafxcwd:winfrm.obj
 0001:0008b9c8       ??0CDocList@@QAA@XZ        0009c9c8 f   uafxcwd:doclist.obj
 0001:0008ba3c       ??0CDocList@@QAA@PAVCDocListDocTemplate@@@Z 0009ca3c f   uafxcwd:doclist.obj
 0001:0008bab8       ??1CDocList@@UAA@XZ        0009cab8 f   uafxcwd:doclist.obj
 0001:0008bb7c       ?GetMessageMap@CDocList@@MBAPBUAFX_MSGMAP@@XZ 0009cb7c f   uafxcwd:doclist.obj
 0001:0008bbac       ?GetThisMessageMap@CDocList@@KAPBUAFX_MSGMAP@@XZ 0009cbac f   uafxcwd:doclist.obj
 0001:0008bbc8       ?Create@CDocList@@QAAHPAVCWnd@@PB_W1K@Z 0009cbc8 f   uafxcwd:doclist.obj
 0001:0008beac       ?Refresh@CDocList@@QAAJXZ  0009ceac f   uafxcwd:doclist.obj
 0001:0008bf3c       ?Update@CDocList@@QAAJXZ   0009cf3c f   uafxcwd:doclist.obj
 0001:0008bfcc       ?DisableUpdate@CDocList@@QAAXXZ 0009cfcc f   uafxcwd:doclist.obj
 0001:0008c04c       ?EnableUpdate@CDocList@@QAAXXZ 0009d04c f   uafxcwd:doclist.obj
 0001:0008c0cc       ?SetSortOrder@CDocList@@QAAHXZ 0009d0cc f   uafxcwd:doclist.obj
 0001:0008c15c       ?SetFilterIndex@CDocList@@QAAJH@Z 0009d15c f   uafxcwd:doclist.obj
 0001:0008c1ec       ?GetFilterIndex@CDocList@@QAAHXZ 0009d1ec f   uafxcwd:doclist.obj
 0001:0008c27c       ?GetSelectedPathname@CDocList@@QAAHPA_WG@Z 0009d27c f   uafxcwd:doclist.obj
 0001:0008c30c       ?SetSelectedPathname@CDocList@@QAAXPA_W@Z 0009d30c f   uafxcwd:doclist.obj
 0001:0008c38c       ?SelectItem@CDocList@@QAAJPA_WH@Z 0009d38c f   uafxcwd:doclist.obj
 0001:0008c41c       ?SetSelection@CDocList@@QAAXH@Z 0009d41c f   uafxcwd:doclist.obj
 0001:0008c498       ?DeleteSelection@CDocList@@QAAJXZ 0009d498 f   uafxcwd:doclist.obj
 0001:0008c528       ?SetOneItem@CDocList@@QAAXHPAU_PAstruct@@@Z 0009d528 f   uafxcwd:doclist.obj
 0001:0008c5a8       ?SetFolder@CDocList@@QAAXPA_W@Z 0009d5a8 f   uafxcwd:doclist.obj
 0001:0008c628       ?GetSelectCount@CDocList@@QAAHXZ 0009d628 f   uafxcwd:doclist.obj
 0001:0008c6b8       ?GetNextWaveFile@CDocList@@QAAHPAH@Z 0009d6b8 f   uafxcwd:doclist.obj
 0001:0008c748       ?GetPrevWaveFile@CDocList@@QAAHPAH@Z 0009d748 f   uafxcwd:doclist.obj
 0001:0008c7d8       ?RenameMoveSelectedItems@CDocList@@QAAHXZ 0009d7d8 f   uafxcwd:doclist.obj
 0001:0008c868       ?SendIR@CDocList@@QAAXPA_W@Z 0009d868 f   uafxcwd:doclist.obj
 0001:0008c8e8       ?ReceiveIR@CDocList@@QAAXPA_W@Z 0009d8e8 f   uafxcwd:doclist.obj
 0001:0008c968       ?SendEMail@CDocList@@QAAXPA_W@Z 0009d968 f   uafxcwd:doclist.obj
 0001:0008c9e8       ?GetItemCount@CDocList@@QAAHXZ 0009d9e8 f   uafxcwd:doclist.obj
 0001:0008ca78       ?GetNextItem@CDocList@@QAAHHI@Z 0009da78 f   uafxcwd:doclist.obj
 0001:0008cb10       ?SetItemState@CDocList@@QAAHHII@Z 0009db10 f   uafxcwd:doclist.obj
 0001:0008cbb0       ?OnCreate@CDocList@@UAAXXZ 0009dbb0 f   uafxcwd:doclist.obj
 0001:0008cca0       ?OnClose@CDocList@@UAAXXZ  0009dca0 f   uafxcwd:doclist.obj
 0001:0008cd90       ?GetMessageMap@CDocListCommandBar@@MBAPBUAFX_MSGMAP@@XZ 0009dd90 f   uafxcwd:doclist.obj
 0001:0008cdc0       ?GetThisMessageMap@CDocListCommandBar@@KAPBUAFX_MSGMAP@@XZ 0009ddc0 f   uafxcwd:doclist.obj
 0001:0008cddc       ?OnSharedNew@CDocListCommandBar@@MAAXXZ 0009dddc f   uafxcwd:doclist.obj
 0001:0008cf00       ?OnCmdMsg@CDocListCommandBar@@UAAHIHPAXPAUAFX_CMDHANDLERINFO@@@Z 0009df00 f   uafxcwd:doclist.obj
 0001:0008cfe0       ?OnItemActivated@CDocList@@QAAXPAUtagDLNHDR@@PAJ@Z 0009dfe0 f   uafxcwd:doclist.obj
 0001:0008d070       ?GetRuntimeClass@CDocList@@UBAPAUCRuntimeClass@@XZ 0009e070 f   uafxcwd:doclist.obj
 0001:0008d09c       ?GetRuntimeClass@CDocListCommandBar@@UBAPAUCRuntimeClass@@XZ 0009e09c f   uafxcwd:doclist.obj
 0001:0008d0c8       ??_GCDocList@@UAAPAXI@Z    0009e0c8 f i uafxcwd:doclist.obj
 0001:0008d0c8       ??_ECDocList@@UAAPAXI@Z    0009e0c8 f i uafxcwd:doclist.obj
 0001:0008d10c       ??_9CDocListCommandBar@@$BPM@AA 0009e10c f i uafxcwd:doclist.obj
 0001:0008d118       ?GetMessageMap@CCommandBar@@MBAPBUAFX_MSGMAP@@XZ 0009e118 f   uafxcwd:barcmd.obj
 0001:0008d148       ?GetThisMessageMap@CCommandBar@@KAPBUAFX_MSGMAP@@XZ 0009e148 f   uafxcwd:barcmd.obj
 0001:0008d164       ??0CCommandBar@@QAA@PAUHWND__@@@Z 0009e164 f   uafxcwd:barcmd.obj
 0001:0008d200       ??1CCommandBar@@UAA@XZ     0009e200 f   uafxcwd:barcmd.obj
 0001:0008d36c       ?OnSharedNew@CCommandBar@@EAAXXZ 0009e36c f   uafxcwd:barcmd.obj
 0001:0008d3e8       ?Create@CCommandBar@@UAAHPAVCWnd@@KI@Z 0009e3e8 f   uafxcwd:barcmd.obj
 0001:0008d4f4       ?CreateEx@CCommandBar@@UAAHPAVCWnd@@KKVCRect@@I@Z 0009e4f4 f   uafxcwd:barcmd.obj
 0001:0008d79c       ?Destroy@CCommandBar@@QAAXXZ 0009e79c f   uafxcwd:barcmd.obj
 0001:0008d7cc       ?Show@CCommandBar@@QAAHH@Z 0009e7cc f   uafxcwd:barcmd.obj
 0001:0008d850       ?IsVisible@CCommandBar@@UBAHXZ 0009e850 f   uafxcwd:barcmd.obj
 0001:0008d8c8       ?Height@CCommandBar@@QBAHXZ 0009e8c8 f   uafxcwd:barcmd.obj
 0001:0008d948       ?GetMenu@CCommandBar@@QBAPAUHMENU__@@XZ 0009e948 f   uafxcwd:barcmd.obj
 0001:0008d980       ?AddAdornments@CCommandBar@@QAAHK@Z 0009e980 f   uafxcwd:barcmd.obj
 0001:0008dcfc       ?AddBitMap@CCommandBar@@QAAHHH@Z 0009ecfc f   uafxcwd:barcmd.obj
 0001:0008dda0       ?AddButtons@CCommandBar@@QAAHIPAU_TBBUTTON@@@Z 0009eda0 f   uafxcwd:barcmd.obj
 0001:0008de30       ?DrawMenuBar@CCommandBar@@QAAHG@Z 0009ee30 f   uafxcwd:barcmd.obj
 0001:0008deec       ?InsertButton@CCommandBar@@QAAHHPAU_TBBUTTON@@@Z 0009eeec f   uafxcwd:barcmd.obj
 0001:0008df88       ?InsertComboBox@CCommandBar@@QAAPAVCComboBox@@HKGG@Z 0009ef88 f   uafxcwd:barcmd.obj
 0001:0008e484       ?InsertMenuBar@CCommandBar@@QAAHGG@Z 0009f484 f   uafxcwd:barcmd.obj
 0001:0008e4cc       ?InsertMenuBarEx@CCommandBar@@QAAHPA_WG@Z 0009f4cc f   uafxcwd:barcmd.obj
 0001:0008ec70       ?InsertSeparator@CCommandBar@@QAAHHG@Z 0009fc70 f   uafxcwd:barcmd.obj
 0001:0008eed8       ?CalcFixedLayout@CCommandBar@@UAA?AVCSize@@HH@Z 0009fed8 f   uafxcwd:barcmd.obj
 0001:0008efa0       ?CalcDynamicLayout@CCommandBar@@UAA?AVCSize@@HK@Z 0009ffa0 f   uafxcwd:barcmd.obj
 0001:0008f068       ?GetRuntimeClass@CCommandBar@@UBAPAUCRuntimeClass@@XZ 000a0068 f   uafxcwd:barcmd.obj
 0001:0008f094       ??_GCCommandBar@@UAAPAXI@Z 000a0094 f i uafxcwd:barcmd.obj
 0001:0008f094       ??_ECCommandBar@@UAAPAXI@Z 000a0094 f i uafxcwd:barcmd.obj
 0001:0008f0d8       ??_9CCommandBar@@$BPM@AA   000a00d8 f i uafxcwd:barcmd.obj
 0001:0008f0e4       ?SHCreateMenuBar@AYGSHELL@@YAHPAUtagSHMENUBARINFO@@@Z 000a00e4 f i uafxcwd:barcmd.obj
 0001:0008f174       ?GetMessageMap@CFormView@@MBAPBUAFX_MSGMAP@@XZ 000a0174 f   uafxcwd:viewform.obj
 0001:0008f1a4       ?GetThisMessageMap@CFormView@@KAPBUAFX_MSGMAP@@XZ 000a01a4 f   uafxcwd:viewform.obj
 0001:0008f1c0       ??0CFormView@@IAA@PB_W@Z   000a01c0 f   uafxcwd:viewform.obj
 0001:0008f24c       ??0CFormView@@IAA@I@Z      000a024c f   uafxcwd:viewform.obj
 0001:0008f338       ??1CFormView@@UAA@XZ       000a0338 f   uafxcwd:viewform.obj
 0001:0008f3f4       ?Create@CFormView@@MAAHPB_W0KABUtagRECT@@PAVCWnd@@IPAUCCreateContext@@@Z 000a03f4 f   uafxcwd:viewform.obj
 0001:0008f748       ?OnInitialUpdate@CFormView@@UAAXXZ 000a0748 f   uafxcwd:viewform.obj
 0001:0008f7dc       ?OnCreate@CFormView@@IAAHPAUtagCREATESTRUCTW@@@Z 000a07dc f   uafxcwd:viewform.obj
 0001:0008f828       ?OnActivateView@CFormView@@MAAXHPAVCView@@0@Z 000a0828 f   uafxcwd:viewform.obj
 0001:0008f874       ?OnActivateFrame@CFormView@@MAAXIPAVCFrameWnd@@@Z 000a0874 f   uafxcwd:viewform.obj
 0001:0008f89c       ?SaveFocusControl@CFormView@@IAAHXZ 000a089c f   uafxcwd:viewform.obj
 0001:0008f920       ?OnSetFocus@CFormView@@IAAXPAVCWnd@@@Z 000a0920 f   uafxcwd:viewform.obj
 0001:0008f9b4       ?PreTranslateMessage@CFormView@@MAAHPAUtagMSG@@@Z 000a09b4 f   uafxcwd:viewform.obj
 0001:0008fb48       ?OnDraw@CFormView@@MAAXPAVCDC@@@Z 000a0b48 f   uafxcwd:viewform.obj
 0001:0008fbdc       ?HandleInitDialog@CFormView@@IAAJIJ@Z 000a0bdc f   uafxcwd:viewform.obj
 0001:0008fcdc       ?SetOccDialogInfo@CFormView@@MAAHPAU_AFX_OCC_DIALOG_INFO@@@Z 000a0cdc f   uafxcwd:viewform.obj
 0001:0008fd14       ?GetOccDialogInfo@CFormView@@MAAPAU_AFX_OCC_DIALOG_INFO@@XZ 000a0d14 f   uafxcwd:viewform.obj
 0001:0008fe58       ?AssertValid@CFormView@@UBAXXZ 000a0e58 f   uafxcwd:viewform.obj
 0001:0008fe74       ?GetRuntimeClass@CFormView@@UBAPAUCRuntimeClass@@XZ 000a0e74 f   uafxcwd:viewform.obj
 0001:0008fea0       ??_ECFormView@@UAAPAXI@Z   000a0ea0 f i uafxcwd:viewform.obj
 0001:0008fea0       ??_GCFormView@@UAAPAXI@Z   000a0ea0 f i uafxcwd:viewform.obj
 0001:0008feec       ?AfxFormatStrings@@YAXAAV?$CStringT@_WV?$StrTraitMFC@_WV?$ChTraitsOS@_W@ATL@@@@@ATL@@IPBQB_WH@Z 000a0eec f   uafxcwd:apphelp.obj
 0001:00090010       ?AfxFormatStrings@@YAXAAV?$CStringT@_WV?$StrTraitMFC@_WV?$ChTraitsOS@_W@ATL@@@@@ATL@@PB_WPBQB_WH@Z 000a1010 f   uafxcwd:apphelp.obj
 0001:00090508       ?AfxFormatString1@@YAXAAV?$CStringT@_WV?$StrTraitMFC@_WV?$ChTraitsOS@_W@ATL@@@@@ATL@@IPB_W@Z 000a1508 f   uafxcwd:apphelp.obj
 0001:00090530       ?AfxFormatString2@@YAXAAV?$CStringT@_WV?$StrTraitMFC@_WV?$ChTraitsOS@_W@ATL@@@@@ATL@@IPB_W1@Z 000a1530 f   uafxcwd:apphelp.obj
 0001:00090570       ?AfxGetIIDString@@YAPB_WABU_GUID@@@Z 000a1570 f   uafxcwd:oleunk.obj
 0001:000907f0       ?_AfxQueryInterface@@YAPAUIUnknown@@PAU1@ABU_GUID@@@Z 000a17f0 f   uafxcwd:oleunk.obj
 0001:0009088c       ?_AfxRelease@@YAKPAPAUIUnknown@@@Z 000a188c f   uafxcwd:oleunk.obj
 0001:0009093c       ?EnableAggregation@CCmdTarget@@QAAXXZ 000a193c f   uafxcwd:oleunk.obj
 0001:00090970       ?ExternalAddRef@CCmdTarget@@QAAKXZ 000a1970 f   uafxcwd:oleunk.obj
 0001:000909fc       ?InternalRelease@CCmdTarget@@QAAKXZ 000a19fc f   uafxcwd:oleunk.obj
 0001:00090b0c       ?ExternalRelease@CCmdTarget@@QAAKXZ 000a1b0c f   uafxcwd:oleunk.obj
 0001:00090b90       ?GetInterface@CCmdTarget@@QAAPAUIUnknown@@PBX@Z 000a1b90 f   uafxcwd:oleunk.obj
 0001:00091098       ?QueryAggregates@CCmdTarget@@QAAPAUIUnknown@@PBX@Z 000a2098 f   uafxcwd:oleunk.obj
 0001:00091230       ?InternalQueryInterface@CCmdTarget@@QAAKPBXPAPAX@Z 000a2230 f   uafxcwd:oleunk.obj
 0001:000912d4       ?ExternalQueryInterface@CCmdTarget@@QAAKPBXPAPAX@Z 000a22d4 f   uafxcwd:oleunk.obj
 0001:00091420       ?AddRef@CInnerUnknown@@UAAKXZ 000a2420 f   uafxcwd:oleunk.obj
 0001:00091468       ?Release@CInnerUnknown@@UAAKXZ 000a2468 f   uafxcwd:oleunk.obj
 0001:000914e8       ?QueryInterface@CInnerUnknown@@UAAJABU_GUID@@PAPAX@Z 000a24e8 f   uafxcwd:oleunk.obj
 0001:00091570       ?ExternalDisconnect@CCmdTarget@@QAAXXZ 000a2570 f   uafxcwd:oleunk.obj
 0001:0009161c       ?GetControllingUnknown@CCmdTarget@@QAAPAUIUnknown@@XZ 000a261c f   uafxcwd:oleunk.obj
 0001:00091688       ??0COleException@@QAA@XZ   000a2688 f   uafxcwd:oleunk.obj
 0001:000916dc       ??1COleException@@UAA@XZ   000a26dc f   uafxcwd:oleunk.obj
 0001:00091708       ?InternalAddRef@CCmdTarget@@QAAKXZ 000a2708 f   uafxcwd:oleunk.obj
 0001:00091790       ?IsRegistered@COleObjectFactory@@UBAHXZ 000a2790 f   uafxcwd:oleunk.obj
 0001:000917f4       ?GetClassID@COleObjectFactory@@QBAABU_GUID@@XZ 000a27f4 f   uafxcwd:oleunk.obj
 0001:00091834       ??1COleDispatchDriver@@QAA@XZ 000a2834 f   uafxcwd:oleunk.obj
 0001:00091850       ??BCOleDispatchDriver@@QAAPAUIDispatch@@XZ 000a2850 f   uafxcwd:oleunk.obj
 0001:0009187c       ??0COleVariant@@QAA@XZ     000a287c f   uafxcwd:oleunk.obj
 0001:000918ac       ??1COleVariant@@QAA@XZ     000a28ac f   uafxcwd:oleunk.obj
 0001:00091904       ?Clear@COleVariant@@QAAXXZ 000a2904 f   uafxcwd:oleunk.obj
 0001:0009195c       ??0COleVariant@@QAA@PB_W@Z 000a295c f   uafxcwd:oleunk.obj
 0001:0009199c       ??0COleVariant@@QAA@AAV?$CStringT@_WV?$StrTraitMFC@_WV?$ChTraitsOS@_W@ATL@@@@@ATL@@@Z 000a299c f   uafxcwd:oleunk.obj
 0001:000919dc       ??0COleVariant@@QAA@E@Z    000a29dc f   uafxcwd:oleunk.obj
 0001:00091a20       ??0COleVariant@@QAA@M@Z    000a2a20 f   uafxcwd:oleunk.obj
 0001:00091a64       ??0COleVariant@@QAA@N@Z    000a2a64 f   uafxcwd:oleunk.obj
 0001:00091abc       ??0COleVariant@@QAA@ABVCOleDateTime@ATL@@@Z 000a2abc f   uafxcwd:oleunk.obj
 0001:00091b24       ??0COleVariant@@QAA@ABV?$CArray@EE@@@Z 000a2b24 f   uafxcwd:oleunk.obj
 0001:00091b64       ??8COleVariant@@QBAHPBUtagVARIANT@@@Z 000a2b64 f   uafxcwd:oleunk.obj
 0001:00091b9c       ??BCOleVariant@@QAAPAUtagVARIANT@@XZ 000a2b9c f   uafxcwd:oleunk.obj
 0001:00091bc4       ??BCOleVariant@@QBAPBUtagVARIANT@@XZ 000a2bc4 f   uafxcwd:oleunk.obj
 0001:00091bec       ??0COleSafeArray@@QAA@XZ   000a2bec f   uafxcwd:oleunk.obj
 0001:00091c28       ??1COleSafeArray@@QAA@XZ   000a2c28 f   uafxcwd:oleunk.obj
 0001:00091c44       ?Clear@COleSafeArray@@QAAXXZ 000a2c44 f   uafxcwd:oleunk.obj
 0001:00091c9c       ??BCOleSafeArray@@QAAPAUtagVARIANT@@XZ 000a2c9c f   uafxcwd:oleunk.obj
 0001:00091cc4       ??BCOleSafeArray@@QBAPBUtagVARIANT@@XZ 000a2cc4 f   uafxcwd:oleunk.obj
 0001:00091cec       ?GetDim@COleSafeArray@@QAAKXZ 000a2cec f   uafxcwd:oleunk.obj
 0001:00091d28       ?GetElemSize@COleSafeArray@@QAAKXZ 000a2d28 f   uafxcwd:oleunk.obj
 0001:00091d64       ??0CInnerUnknown@@QAA@XZ   000a2d64 f i uafxcwd:oleunk.obj
 0001:00091da4       ??8@YAHABU_GUID@@0@Z       000a2da4 f i uafxcwd:oleunk.obj
 0001:00091e00       ??_ECOleException@@UAAPAXI@Z 000a2e00 f i uafxcwd:oleunk.obj
 0001:00091e00       ??_GCOleException@@UAAPAXI@Z 000a2e00 f i uafxcwd:oleunk.obj
 0001:00091e44       ??0IUnknown@@QAA@XZ        000a2e44 f i uafxcwd:oleunk.obj
 0001:00091e7c       ?AfxCheckError@@YAXJ@Z     000a2e7c f   uafxcwd:olevar.obj
 0001:00091ec8       ?_AfxCompareSafeArrays@@YAHPAUtagSAFEARRAY@@0@Z 000a2ec8 f   uafxcwd:olevar.obj
 0001:00092518       ?_AfxCreateOneDimArray@@YAXAAUtagVARIANT@@K@Z 000a3518 f   uafxcwd:olevar.obj
 0001:000926e4       ?_AfxCopyBinaryData@@YAXPAUtagSAFEARRAY@@PBXK@Z 000a36e4 f   uafxcwd:olevar.obj
 0001:00092740       ??0COleVariant@@QAA@ABUtagVARIANT@@@Z 000a3740 f   uafxcwd:olevar.obj
 0001:00092788       ??0COleVariant@@QAA@PBUtagVARIANT@@@Z 000a3788 f   uafxcwd:olevar.obj
 0001:000927d0       ??0COleVariant@@QAA@ABV0@@Z 000a37d0 f   uafxcwd:olevar.obj
 0001:00092820       ??0COleVariant@@QAA@PB_WG@Z 000a3820 f   uafxcwd:olevar.obj
 0001:00092918       ?SetString@COleVariant@@QAAXPB_WG@Z 000a3918 f   uafxcwd:olevar.obj
 0001:00092a04       ??0COleVariant@@QAA@FG@Z   000a3a04 f   uafxcwd:olevar.obj
 0001:00092ad0       ??0COleVariant@@QAA@JG@Z   000a3ad0 f   uafxcwd:olevar.obj
 0001:00092cb8       ?ChangeType@COleVariant@@QAAXGPAUtagVARIANT@@@Z 000a3cb8 f   uafxcwd:olevar.obj
 0001:00092d30       ?Attach@COleVariant@@QAAXAAUtagVARIANT@@@Z 000a3d30 f   uafxcwd:olevar.obj
 0001:00092d6c       ?Detach@COleVariant@@QAA?AUtagVARIANT@@XZ 000a3d6c f   uafxcwd:olevar.obj
 0001:00092dc0       ?GetByteArrayFromVariantArray@COleVariant@@QAAXAAV?$CArray@EE@@@Z 000a3dc0 f   uafxcwd:olevar.obj
 0001:00092f64       ??8COleVariant@@QBAHABUtagVARIANT@@@Z 000a3f64 f   uafxcwd:olevar.obj
 0001:00093548       ??4COleVariant@@QAAABV0@ABUtagVARIANT@@@Z 000a4548 f   uafxcwd:olevar.obj
 0001:00093598       ??4COleVariant@@QAAABV0@PBUtagVARIANT@@@Z 000a4598 f   uafxcwd:olevar.obj
 0001:000935e8       ??4COleVariant@@QAAABV0@ABV0@@Z 000a45e8 f   uafxcwd:olevar.obj
 0001:00093640       ??4COleVariant@@QAAABV0@QB_W@Z 000a4640 f   uafxcwd:olevar.obj
 0001:0009370c       ??4COleVariant@@QAAABV0@ABV?$CStringT@_WV?$StrTraitMFC@_WV?$ChTraitsOS@_W@ATL@@@@@ATL@@@Z 000a470c f   uafxcwd:olevar.obj
 0001:00093764       ??4COleVariant@@QAAABV0@E@Z 000a4764 f   uafxcwd:olevar.obj
 0001:000937c0       ??4COleVariant@@QAAABV0@F@Z 000a47c0 f   uafxcwd:olevar.obj
 0001:00093874       ??4COleVariant@@QAAABV0@J@Z 000a4874 f   uafxcwd:olevar.obj
 0001:0009394c       ??4COleVariant@@QAAABV0@M@Z 000a494c f   uafxcwd:olevar.obj
 0001:000939a8       ??4COleVariant@@QAAABV0@N@Z 000a49a8 f   uafxcwd:olevar.obj
 0001:00093a18       ??4COleVariant@@QAAABV0@ABVCOleDateTime@ATL@@@Z 000a4a18 f   uafxcwd:olevar.obj
 0001:00093a98       ??4COleVariant@@QAAABV0@ABV?$CArray@EE@@@Z 000a4a98 f   uafxcwd:olevar.obj
 0001:00093b14       ?AfxVariantInit@@YAXPAUtagVARIANT@@@Z 000a4b14 f   uafxcwd:olevar.obj
 0001:00093b40       ??6@YAAAVCArchive@@AAV0@VCOleVariant@@@Z 000a4b40 f   uafxcwd:olevar.obj
 0001:00094264       ??5@YAAAVCArchive@@AAV0@AAVCOleVariant@@@Z 000a5264 f   uafxcwd:olevar.obj
 0001:00094928       ??6@YAAAVCArchive@@AAV0@VCComBSTR@ATL@@@Z 000a5928 f   uafxcwd:olevar.obj
 0001:000949d0       ??5@YAAAVCArchive@@AAV0@AAVCComBSTR@ATL@@@Z 000a59d0 f   uafxcwd:olevar.obj
 0001:00094a64       ??$CopyElements@VCOleVariant@@@@YAXPAVCOleVariant@@PBV0@H@Z 000a5a64 f   uafxcwd:olevar.obj
 0001:00094bfc       ??$SerializeElements@VCOleVariant@@@@YAXAAVCArchive@@PAVCOleVariant@@H@Z 000a5bfc f   uafxcwd:olevar.obj
 0001:00094d98       ??$HashKey@ABUtagVARIANT@@@@YAIABUtagVARIANT@@@Z 000a5d98 f   uafxcwd:olevar.obj
 0001:0009500c       ??6@YAAAVCArchive@@AAV0@VCOleDateTime@ATL@@@Z 000a600c f   uafxcwd:olevar.obj
 0001:00095054       ??5@YAAAVCArchive@@AAV0@AAVCOleDateTime@ATL@@@Z 000a6054 f   uafxcwd:olevar.obj
 0001:0009509c       ??6@YAAAVCArchive@@AAV0@VCOleDateTimeSpan@ATL@@@Z 000a609c f   uafxcwd:olevar.obj
 0001:000950e4       ??5@YAAAVCArchive@@AAV0@AAVCOleDateTimeSpan@ATL@@@Z 000a60e4 f   uafxcwd:olevar.obj
 0001:0009512c       ??0COleSafeArray@@QAA@ABUtagSAFEARRAY@@G@Z 000a612c f   uafxcwd:olevar.obj
 0001:000951c8       ??0COleSafeArray@@QAA@PBUtagSAFEARRAY@@G@Z 000a61c8 f   uafxcwd:olevar.obj
 0001:00095264       ??0COleSafeArray@@QAA@ABV0@@Z 000a6264 f   uafxcwd:olevar.obj
 0001:000952d8       ??0COleSafeArray@@QAA@ABUtagVARIANT@@@Z 000a62d8 f   uafxcwd:olevar.obj
 0001:0009534c       ??0COleSafeArray@@QAA@ABVCOleVariant@@@Z 000a634c f   uafxcwd:olevar.obj
 0001:000953c0       ??0COleSafeArray@@QAA@PBUtagVARIANT@@@Z 000a63c0 f   uafxcwd:olevar.obj
 0001:00095434       ?Attach@COleSafeArray@@QAAXAAUtagVARIANT@@@Z 000a6434 f   uafxcwd:olevar.obj
 0001:000954c4       ?Detach@COleSafeArray@@QAA?AUtagVARIANT@@XZ 000a64c4 f   uafxcwd:olevar.obj
 0001:00095518       ?GetByteArray@COleSafeArray@@QAAXAAV?$CArray@EE@@@Z 000a6518 f   uafxcwd:olevar.obj
 0001:000956bc       ??4COleSafeArray@@QAAAAV0@ABV0@@Z 000a66bc f   uafxcwd:olevar.obj
 0001:00095748       ??4COleSafeArray@@QAAAAV0@ABUtagVARIANT@@@Z 000a6748 f   uafxcwd:olevar.obj
 0001:000957d4       ??4COleSafeArray@@QAAAAV0@PBUtagVARIANT@@@Z 000a67d4 f   uafxcwd:olevar.obj
 0001:00095860       ??4COleSafeArray@@QAAAAV0@ABVCOleVariant@@@Z 000a6860 f   uafxcwd:olevar.obj
 0001:000958ec       ??8COleSafeArray@@QBAHABUtagSAFEARRAY@@@Z 000a68ec f   uafxcwd:olevar.obj
 0001:0009592c       ??8COleSafeArray@@QBAHPBUtagSAFEARRAY@@@Z 000a692c f   uafxcwd:olevar.obj
 0001:0009596c       ??8COleSafeArray@@QBAHABV0@@Z 000a696c f   uafxcwd:olevar.obj
 0001:000959dc       ??8COleSafeArray@@QBAHABUtagVARIANT@@@Z 000a69dc f   uafxcwd:olevar.obj
 0001:00095a4c       ??8COleSafeArray@@QBAHPBUtagVARIANT@@@Z 000a6a4c f   uafxcwd:olevar.obj
 0001:00095abc       ??8COleSafeArray@@QBAHABVCOleVariant@@@Z 000a6abc f   uafxcwd:olevar.obj
 0001:00095b2c       ?CreateOneDim@COleSafeArray@@QAAXGKPBXJ@Z 000a6b2c f   uafxcwd:olevar.obj
 0001:00095ce0       ?GetOneDimSize@COleSafeArray@@QAAKXZ 000a6ce0 f   uafxcwd:olevar.obj
 0001:00095dac       ?ResizeOneDim@COleSafeArray@@QAAXK@Z 000a6dac f   uafxcwd:olevar.obj
 0001:00095e48       ?Create@COleSafeArray@@QAAXGKPAK@Z 000a6e48 f   uafxcwd:olevar.obj
 0001:0009601c       ?Create@COleSafeArray@@QAAXGKPAUtagSAFEARRAYBOUND@@@Z 000a701c f   uafxcwd:olevar.obj
 0001:00096284       ?AccessData@COleSafeArray@@QAAXPAPAX@Z 000a7284 f   uafxcwd:olevar.obj
 0001:000962e4       ?UnaccessData@COleSafeArray@@QAAXXZ 000a72e4 f   uafxcwd:olevar.obj
 0001:0009631c       ?AllocData@COleSafeArray@@QAAXXZ 000a731c f   uafxcwd:olevar.obj
 0001:00096354       ?AllocDescriptor@COleSafeArray@@QAAXK@Z 000a7354 f   uafxcwd:olevar.obj
 0001:0009638c       ?Copy@COleSafeArray@@QAAXPAPAUtagSAFEARRAY@@@Z 000a738c f   uafxcwd:olevar.obj
 0001:000963c8       ?GetLBound@COleSafeArray@@QAAXKPAJ@Z 000a73c8 f   uafxcwd:olevar.obj
 0001:00096408       ?GetUBound@COleSafeArray@@QAAXKPAJ@Z 000a7408 f   uafxcwd:olevar.obj
 0001:00096448       ?GetElement@COleSafeArray@@QAAXPAJPAX@Z 000a7448 f   uafxcwd:olevar.obj
 0001:00096488       ?PtrOfIndex@COleSafeArray@@QAAXPAJPAPAX@Z 000a7488 f   uafxcwd:olevar.obj
 0001:000964f8       ?PutElement@COleSafeArray@@QAAXPAJPAX@Z 000a74f8 f   uafxcwd:olevar.obj
 0001:00096568       ?Redim@COleSafeArray@@QAAXPAUtagSAFEARRAYBOUND@@@Z 000a7568 f   uafxcwd:olevar.obj
 0001:000965a4       ?Lock@COleSafeArray@@QAAXXZ 000a75a4 f   uafxcwd:olevar.obj
 0001:000965dc       ?Unlock@COleSafeArray@@QAAXXZ 000a75dc f   uafxcwd:olevar.obj
 0001:00096614       ?Destroy@COleSafeArray@@QAAXXZ 000a7614 f   uafxcwd:olevar.obj
 0001:0009664c       ?DestroyData@COleSafeArray@@QAAXXZ 000a764c f   uafxcwd:olevar.obj
 0001:00096684       ?DestroyDescriptor@COleSafeArray@@QAAXXZ 000a7684 f   uafxcwd:olevar.obj
 0001:000966bc       ?AfxSafeArrayInit@@YAXPAVCOleSafeArray@@@Z 000a76bc f   uafxcwd:olevar.obj
 0001:000966f4       ?DDX_Text@@YAXPAVCDataExchange@@HAAVCOleDateTime@ATL@@@Z 000a76f4 f   uafxcwd:olevar.obj
 0001:000968c8       ?DDX_Text@@YAXPAVCDataExchange@@HAAU_FILETIME@@@Z 000a78c8 f   uafxcwd:olevar.obj
 0001:00096b04       ?DDX_Text@@YAXPAVCDataExchange@@HAAUtagDEC@@@Z 000a7b04 f   uafxcwd:olevar.obj
 0001:00096d28       ?DDX_Text@@YAXPAVCDataExchange@@HAAU_GUID@@@Z 000a7d28 f   uafxcwd:olevar.obj
 0001:00096ed4       ?GetThreadLocale@ATL@@YAKXZ 000a7ed4 f i uafxcwd:olevar.obj
 0001:00096efc       ?AllocSysString@?$CStringT@_WV?$StrTraitMFC@_WV?$ChTraitsOS@_W@ATL@@@@@ATL@@QBAPA_WXZ 000a7efc f i uafxcwd:olevar.obj
 0001:00096f6c       ??0?$CFixedStringT@V?$CStringT@_WV?$StrTraitMFC@_WV?$ChTraitsOS@_W@ATL@@@@@ATL@@$0BAA@@ATL@@QAA@PB_W@Z 000a7f6c f i uafxcwd:olevar.obj
 0001:00096ff8       ??1?$CFixedStringT@V?$CStringT@_WV?$StrTraitMFC@_WV?$ChTraitsOS@_W@ATL@@@@@ATL@@$0BAA@@ATL@@UAA@XZ 000a7ff8 f i uafxcwd:olevar.obj
 0001:0009706c       ??0?$CFixedStringT@V?$CStringT@_WV?$StrTraitMFC@_WV?$ChTraitsOS@_W@ATL@@@@@ATL@@$0EA@@ATL@@QAA@PB_W@Z 000a806c f i uafxcwd:olevar.obj
 0001:000970f8       ??1?$CFixedStringT@V?$CStringT@_WV?$StrTraitMFC@_WV?$ChTraitsOS@_W@ATL@@@@@ATL@@$0EA@@ATL@@UAA@XZ 000a80f8 f i uafxcwd:olevar.obj
 0001:00097164       ??_E?$CFixedStringT@V?$CStringT@_WV?$StrTraitMFC@_WV?$ChTraitsOS@_W@ATL@@@@@ATL@@$0BAA@@ATL@@UAAPAXI@Z 000a8164 f i uafxcwd:olevar.obj
 0001:00097164       ??_G?$CFixedStringT@V?$CStringT@_WV?$StrTraitMFC@_WV?$ChTraitsOS@_W@ATL@@@@@ATL@@$0BAA@@ATL@@UAAPAXI@Z 000a8164 f i uafxcwd:olevar.obj
 0001:000971a8       ??_G?$CFixedStringT@V?$CStringT@_WV?$StrTraitMFC@_WV?$ChTraitsOS@_W@ATL@@@@@ATL@@$0EA@@ATL@@UAAPAXI@Z 000a81a8 f i uafxcwd:olevar.obj
 0001:000971a8       ??_E?$CFixedStringT@V?$CStringT@_WV?$StrTraitMFC@_WV?$ChTraitsOS@_W@ATL@@@@@ATL@@$0EA@@ATL@@UAAPAXI@Z 000a81a8 f i uafxcwd:olevar.obj
 0001:000971ec       ?GetSize@?$CArray@EE@@QBAHXZ 000a81ec f i uafxcwd:olevar.obj
 0001:0009721c       ?SetSize@?$CArray@EE@@QAAXHH@Z 000a821c f i uafxcwd:olevar.obj
 0001:0009788c       ?GetData@?$CArray@EE@@QAAPAEXZ 000a888c f i uafxcwd:olevar.obj
 0001:000978bc       ?GetData@?$CArray@EE@@QBAPBEXZ 000a88bc f i uafxcwd:olevar.obj
 0001:000978ec       ??$HashKey@K@@YAIK@Z       000a88ec f i uafxcwd:olevar.obj
 0001:00097918       ?Attach@CComBSTR@ATL@@QAAXPA_W@Z 000a8918 f i uafxcwd:olevar.obj
 0001:00097958       ?Detach@CComBSTR@ATL@@QAAPA_WXZ 000a8958 f i uafxcwd:olevar.obj
 0001:00097998       ?Empty@CComBSTR@ATL@@QAAXXZ 000a8998 f i uafxcwd:olevar.obj
 0001:000979c4       ??0CFixedStringMgr@ATL@@QAA@PAUCStringData@1@HPAUIAtlStringMgr@1@@Z 000a89c4 f i uafxcwd:olevar.obj
 0001:00097a98       ??1CFixedStringMgr@ATL@@UAA@XZ 000a8a98 f i uafxcwd:olevar.obj
 0001:00097abc       ?Allocate@CFixedStringMgr@ATL@@UAAPAUCStringData@2@HH@Z 000a8abc f i uafxcwd:olevar.obj
 0001:00097cc4       ?Free@CFixedStringMgr@ATL@@UAAXPAUCStringData@2@@Z 000a8cc4 f i uafxcwd:olevar.obj
 0001:00097ddc       ?Reallocate@CFixedStringMgr@ATL@@UAAPAUCStringData@2@PAU32@HH@Z 000a8ddc f i uafxcwd:olevar.obj
 0001:0009803c       ?GetNilString@CFixedStringMgr@ATL@@UAAPAUCStringData@2@XZ 000a903c f i uafxcwd:olevar.obj
 0001:00098118       ?Clone@CFixedStringMgr@ATL@@UAAPAUIAtlStringMgr@2@XZ 000a9118 f i uafxcwd:olevar.obj
 0001:00098148       ??_ECFixedStringMgr@ATL@@UAAPAXI@Z 000a9148 f i uafxcwd:olevar.obj
 0001:00098148       ??_GCFixedStringMgr@ATL@@UAAPAXI@Z 000a9148 f i uafxcwd:olevar.obj
 0001:0009818c       ?AllocSysString@?$ChTraitsOS@_W@ATL@@SAPA_WPB_WH@Z 000a918c f i uafxcwd:olevar.obj
 0001:000981cc       ?ParseDateTime@COleDateTime@ATL@@QAA_NPB_WKK@Z 000a91cc f i uafxcwd:olevar.obj
 0001:00098400       ?T2OLE_EX@@YAPA_WPA_WI@Z   000a9400 f i uafxcwd:olevar.obj
 0001:00098430       ?Format@COleDateTime@ATL@@QBA?AV?$CStringT@_WV?$StrTraitMFC@_WV?$ChTraitsOS@_W@ATL@@@@@2@KK@Z 000a9430 f i uafxcwd:olevar.obj
 0001:000986fc       ??0CComBSTR@ATL@@QAA@XZ    000a96fc f i uafxcwd:olevar.obj
 0001:00098730       ??BCComBSTR@ATL@@QBAPA_WXZ 000a9730 f i uafxcwd:olevar.obj
 0001:0009875c       ??ICComBSTR@ATL@@QAAPAPA_WXZ 000a975c f i uafxcwd:olevar.obj
 0001:00098784       ??0?$CAtlSafeAllocBufferManager@VCCRTAllocator@ATL@@@_ATL_SAFE_ALLOCA_IMPL@ATL@@QAA@XZ 000a9784 f i uafxcwd:olevar.obj
 0001:000987b8       ??1?$CAtlSafeAllocBufferManager@VCCRTAllocator@ATL@@@_ATL_SAFE_ALLOCA_IMPL@ATL@@QAA@XZ 000a97b8 f i uafxcwd:olevar.obj
 0001:00098818       ?AfxUnregisterWndClasses@@YAXXZ 000a9818 f   uafxcwd:appterm.obj
 0001:00098924       ?AfxWinTerm@@YAXXZ         000a9924 f   uafxcwd:appterm.obj
 0001:00098988       ?AfxWingdixTerm@@YAXXZ     000a9988 f   uafxcwd:wingdix.obj
 0001:000989a0       ?DPtoHIMETRIC@CDC@@QBAXPAUtagSIZE@@@Z 000a99a0 f   uafxcwd:wingdix.obj
 0001:00098b6c       ?HIMETRICtoDP@CDC@@QBAXPAUtagSIZE@@@Z 000a9b6c f   uafxcwd:wingdix.obj
 0001:00098d38       ?LPtoHIMETRIC@CDC@@QBAXPAUtagSIZE@@@Z 000a9d38 f   uafxcwd:wingdix.obj
 0001:00098da4       ?HIMETRICtoLP@CDC@@QBAXPAUtagSIZE@@@Z 000a9da4 f   uafxcwd:wingdix.obj
 0001:00098e10       ?GetHalftoneBrush@CDC@@SAPAVCBrush@@XZ 000a9e10 f   uafxcwd:wingdix.obj
 0001:00098f84       ?DrawDragRect@CDC@@QAAXPBUtagRECT@@UtagSIZE@@01PAVCBrush@@2@Z 000a9f84 f   uafxcwd:wingdix.obj
 0001:000994e8       ?FillSolidRect@CDC@@QAAXPBUtagRECT@@K@Z 000aa4e8 f   uafxcwd:wingdix.obj
 0001:00099650       ?FillSolidRect@CDC@@QAAXHHHHK@Z 000aa650 f   uafxcwd:wingdix.obj
 0001:00099734       ?Draw3dRect@CDC@@QAAXPBUtagRECT@@KK@Z 000aa734 f   uafxcwd:wingdix.obj
 0001:000997b4       ?Draw3dRect@CDC@@QAAXHHHHKK@Z 000aa7b4 f   uafxcwd:wingdix.obj
 0001:00099878       ?CreatePointFont@CFont@@QAAHHPB_WPAVCDC@@@Z 000aa878 f   uafxcwd:wingdix.obj
 0001:00099940       ?CreatePointFontIndirect@CFont@@QAAHPBUtagLOGFONTW@@PAVCDC@@@Z 000aa940 f   uafxcwd:wingdix.obj
 0001:00099ae4       ?GetMessageMap@CDocument@@MBAPBUAFX_MSGMAP@@XZ 000aaae4 f   uafxcwd:doccore.obj
 0001:00099b14       ?GetThisMessageMap@CDocument@@KAPBUAFX_MSGMAP@@XZ 000aab14 f   uafxcwd:doccore.obj
 0001:00099b38       ??0CDocument@@QAA@XZ       000aab38 f   uafxcwd:doccore.obj
 0001:00099d00       ??1CDocument@@UAA@XZ       000aad00 f   uafxcwd:doccore.obj
 0001:00099ee0       ?OnFinalRelease@CDocument@@UAAXXZ 000aaee0 f   uafxcwd:doccore.obj
 0001:00099f24       ?DisconnectViews@CDocument@@QAAXXZ 000aaf24 f   uafxcwd:doccore.obj
 0001:00099fe0       ?SetTitle@CDocument@@UAAXPB_W@Z 000aafe0 f   uafxcwd:doccore.obj
 0001:0009a020       ?DeleteContents@CDocument@@UAAXXZ 000ab020 f   uafxcwd:doccore.obj
 0001:0009a034       ?OnChangedViewList@CDocument@@UAAXXZ 000ab034 f   uafxcwd:doccore.obj
 0001:0009a0bc       ?UpdateFrameCounts@CDocument@@UAAXXZ 000ab0bc f   uafxcwd:doccore.obj
 0001:0009a4c4       ?CanCloseFrame@CDocument@@UAAHPAVCFrameWnd@@@Z 000ab4c4 f   uafxcwd:doccore.obj
 0001:0009a5ec       ?PreCloseFrame@CDocument@@UAAXPAVCFrameWnd@@@Z 000ab5ec f   uafxcwd:doccore.obj
 0001:0009a600       ?SetPathName@CDocument@@UAAXPB_W@Z 000ab600 f   uafxcwd:doccore.obj
 0001:0009a7a8       ?OnFileClose@CDocument@@IAAXXZ 000ab7a8 f   uafxcwd:doccore.obj
 0001:0009a810       ?OnFileSave@CDocument@@IAAXXZ 000ab810 f   uafxcwd:doccore.obj
 0001:0009a840       ?OnFileSaveAs@CDocument@@IAAXXZ 000ab840 f   uafxcwd:doccore.obj
 0001:0009a8d0       ?OnOK@CDocument@@IAAXXZ    000ab8d0 f   uafxcwd:doccore.obj
 0001:0009a934       ?DoFileSave@CDocument@@UAAHXZ 000ab934 f   uafxcwd:doccore.obj
 0001:0009aaac       ?DoSave@CDocument@@UAAHPB_WH@Z 000abaac f   uafxcwd:doccore.obj
 0001:0009b284       ?SaveModified@CDocument@@UAAHXZ 000ac284 f   uafxcwd:doccore.obj
 0001:0009b5b4       ?GetDefaultMenu@CDocument@@UAAPAUHMENU__@@XZ 000ac5b4 f   uafxcwd:doccore.obj
 0001:0009b5dc       ?GetDefaultAccelerator@CDocument@@UAAPAUHACCEL__@@XZ 000ac5dc f   uafxcwd:doccore.obj
 0001:0009b60c       ?ReportSaveLoadException@CDocument@@UAAXPB_WPAVCException@@HI@Z 000ac60c f   uafxcwd:doccore.obj
 0001:0009b98c       ?GetFile@CDocument@@UAAPAVCFile@@PB_WIPAVCFileException@@@Z 000ac98c f   uafxcwd:doccore.obj
 0001:0009bae4       ?ReleaseFile@CDocument@@UAAXPAVCFile@@H@Z 000acae4 f   uafxcwd:doccore.obj
 0001:0009bbe4       ?OnNewDocument@CDocument@@UAAHXZ 000acbe4 f   uafxcwd:doccore.obj
 0001:0009bd94       ?OnOpenDocument@CDocument@@UAAHPB_W@Z 000acd94 f   uafxcwd:doccore.obj
 0001:0009c224       ?OnSaveDocument@CDocument@@UAAHPB_W@Z 000ad224 f   uafxcwd:doccore.obj
 0001:0009c5ac       ?OnCloseDocument@CDocument@@UAAXXZ 000ad5ac f   uafxcwd:doccore.obj
 0001:0009c7a4       ?OnIdle@CDocument@@UAAXXZ  000ad7a4 f   uafxcwd:doccore.obj
 0001:0009c7b8       ?AddView@CDocument@@QAAXPAVCView@@@Z 000ad7b8 f   uafxcwd:doccore.obj
 0001:0009c8ec       ?RemoveView@CDocument@@QAAXPAVCView@@@Z 000ad8ec f   uafxcwd:doccore.obj
 0001:0009c9b4       ?GetFirstViewPosition@CDocument@@UBAPAU__POSITION@@XZ 000ad9b4 f   uafxcwd:doccore.obj
 0001:0009c9ec       ?GetNextView@CDocument@@UBAPAVCView@@AAPAU__POSITION@@@Z 000ad9ec f   uafxcwd:doccore.obj
 0001:0009cad0       ?UpdateAllViews@CDocument@@QAAXPAVCView@@JPAVCObject@@@Z 000adad0 f   uafxcwd:doccore.obj
 0001:0009cbf0       ?SendInitialUpdate@CDocument@@QAAXXZ 000adbf0 f   uafxcwd:doccore.obj
 0001:0009cca4       ?OnCmdMsg@CDocument@@UAAHIHPAXPAUAFX_CMDHANDLERINFO@@@Z 000adca4 f   uafxcwd:doccore.obj
 0001:0009cd78       ?AssertValid@CDocument@@UBAXXZ 000add78 f   uafxcwd:doccore.obj
 0001:0009ce18       ?GetRuntimeClass@CDocument@@UBAPAUCRuntimeClass@@XZ 000ade18 f   uafxcwd:doccore.obj
 0001:0009ce4c       ??HATL@@YA?AV?$CStringT@_WV?$StrTraitMFC@_WV?$ChTraitsOS@_W@ATL@@@@@0@ABV10@0@Z 000ade4c f i uafxcwd:doccore.obj
 0001:0009cf30       ??HATL@@YA?AV?$CStringT@_WV?$StrTraitMFC@_WV?$ChTraitsOS@_W@ATL@@@@@0@PB_WABV10@@Z 000adf30 f i uafxcwd:doccore.obj
 0001:0009d000       ?wcscat_s@Checked@ATL@@YAXPA_WIPB_W@Z 000ae000 f i uafxcwd:doccore.obj
 0001:0009d038       ?itot_s@Checked@ATL@@YAXHPA_WIH@Z 000ae038 f i uafxcwd:doccore.obj
 0001:0009d074       ?_AfxFillExceptionInfo@@YAXPAVCFileException@@PB_W@Z 000ae074 f   uafxcwd:filecore.obj
 0001:0009d0e8       ??0CFile@@QAA@XZ           000ae0e8 f   uafxcwd:filecore.obj
 0001:0009d164       ??0CFile@@QAA@PAX@Z        000ae164 f   uafxcwd:filecore.obj
 0001:0009d244       ??0CFile@@QAA@PB_WI@Z      000ae244 f   uafxcwd:filecore.obj
 0001:0009d39c       ??1CFile@@UAA@XZ           000ae39c f   uafxcwd:filecore.obj
 0001:0009d624       ?Open@CFile@@UAAHPB_WIPAVCFileException@@@Z 000ae624 f   uafxcwd:filecore.obj
 0001:0009daf0       ?Read@CFile@@UAAIPAXI@Z    000aeaf0 f   uafxcwd:filecore.obj
 0001:0009dc54       ?Write@CFile@@UAAXPBXI@Z   000aec54 f   uafxcwd:filecore.obj
 0001:0009ddd4       ?Seek@CFile@@UAA_K_JI@Z    000aedd4 f   uafxcwd:filecore.obj
 0001:0009df20       ?GetPosition@CFile@@UBA_KXZ 000aef20 f   uafxcwd:filecore.obj
 0001:0009e020       ?Flush@CFile@@UAAXXZ       000af020 f   uafxcwd:filecore.obj
 0001:0009e0b0       ?Close@CFile@@UAAXXZ       000af0b0 f   uafxcwd:filecore.obj
 0001:0009e1d0       ?Abort@CFile@@UAAXXZ       000af1d0 f   uafxcwd:filecore.obj
 0001:0009e238       ?SetLength@CFile@@UAAX_K@Z 000af238 f   uafxcwd:filecore.obj
 0001:0009e310       ?GetLength@CFile@@UBA_KXZ  000af310 f   uafxcwd:filecore.obj
 0001:0009e3c0       ?GetBufferPtr@CFile@@UAAIIIPAPAX0@Z 000af3c0 f   uafxcwd:filecore.obj
 0001:0009e41c       ?Rename@CFile@@SAXPB_W0@Z  000af41c f   uafxcwd:filecore.obj
 0001:0009e468       ?Remove@CFile@@SAXPB_W@Z   000af468 f   uafxcwd:filecore.obj
 0001:0009e4b0       ?CreateInstance@AFX_COM@@QAAJABU_GUID@@PAUIUnknown@@0PAPAX@Z 000af4b0 f   uafxcwd:filecore.obj
 0001:0009e5b8       ?GetClassObject@AFX_COM@@QAAJABU_GUID@@0PAPAX@Z 000af5b8 f   uafxcwd:filecore.obj
 0001:0009e764       ?AfxStringFromCLSID@@YA?AV?$CStringT@_WV?$StrTraitMFC@_WV?$ChTraitsOS@_W@ATL@@@@@ATL@@ABU_GUID@@@Z 000af764 f   uafxcwd:filecore.obj
 0001:0009e87c       ?AfxGetInProcServer@@YAHPB_WAAV?$CStringT@_WV?$StrTraitMFC@_WV?$ChTraitsOS@_W@ATL@@@@@ATL@@@Z 000af87c f   uafxcwd:filecore.obj
 0001:0009ea00       ?AfxResolveShortcut@@YAHPAVCWnd@@PB_WPA_WH@Z 000afa00 f   uafxcwd:filecore.obj
 0001:0009ea30       ?_AfxFullPath2@@YAHPA_WPB_WPAVCFileException@@@Z 000afa30 f   uafxcwd:filecore.obj
 0001:0009ecd8       ?AfxFullPath@@YAHPA_WPB_W@Z 000afcd8 f   uafxcwd:filecore.obj
 0001:0009ed14       ?AfxGetRoot@@YAXPB_WAAV?$CStringT@_WV?$StrTraitMFC@_WV?$ChTraitsOS@_W@ATL@@@@@ATL@@@Z 000afd14 f   uafxcwd:filecore.obj
 0001:0009edac       ?AfxComparePath@@YAHPB_W0@Z 000afdac f   uafxcwd:filecore.obj
 0001:0009ee68       ?AfxGetFileTitle@@YAIPB_WPA_WI@Z 000afe68 f   uafxcwd:filecore.obj
 0001:0009efec       ?AfxGetModuleShortFileName@@YAXPAUHINSTANCE__@@AAV?$CStringT@_WV?$StrTraitMFC@_WV?$ChTraitsOS@_W@ATL@@@@@ATL@@@Z 000affec f   uafxcwd:filecore.obj
 0001:0009f034       ?AssertValid@CFile@@UBAXXZ 000b0034 f   uafxcwd:filecore.obj
 0001:0009f050       ?GetRuntimeClass@CFile@@UBAPAUCRuntimeClass@@XZ 000b0050 f   uafxcwd:filecore.obj
 0001:0009f07c       ?IsDirSep@@YAH_W@Z         000b007c f i uafxcwd:filecore.obj
 0001:0009f0d0       ??_ECFile@@UAAPAXI@Z       000b00d0 f i uafxcwd:filecore.obj
 0001:0009f0d0       ??_GCFile@@UAAPAXI@Z       000b00d0 f i uafxcwd:filecore.obj
 0001:0009f114       ?GetFullPathNameW@ATL@@YAKPB_WKPA_WPAPA_W@Z 000b0114 f i uafxcwd:filecore.obj
 0001:0009f224       ?FindFilePart@ATL@@YAPB_WPB_WAAPB_W@Z 000b0224 f i uafxcwd:filecore.obj
 0001:0009f300       ?GetFileTitleW@ATL@@YAFPB_WPA_WG@Z 000b0300 f i uafxcwd:filecore.obj
 0001:0009f3d8       ??0_AFX_COLOR_STATE@@QAA@XZ 000b03d8 f   uafxcwd:dlgclr.obj
 0001:0009f464       ?GetMessageMap@CColorDialog@@MBAPBUAFX_MSGMAP@@XZ 000b0464 f   uafxcwd:dlgclr.obj
 0001:0009f494       ?GetThisMessageMap@CColorDialog@@KAPBUAFX_MSGMAP@@XZ 000b0494 f   uafxcwd:dlgclr.obj
 0001:0009f4b8       ??0CColorDialog@@QAA@KKPAVCWnd@@@Z 000b04b8 f   uafxcwd:dlgclr.obj
 0001:0009f6b4       ?DoModal@CColorDialog@@UAAHXZ 000b06b4 f   uafxcwd:dlgclr.obj
 0001:0009f888       ?OnColorOK@CColorDialog@@MAAHXZ 000b0888 f   uafxcwd:dlgclr.obj
 0001:0009f8c4       ?GetSavedCustomColors@CColorDialog@@SAPAKXZ 000b08c4 f   uafxcwd:dlgclr.obj
 0001:0009f8f8       ?OnCtlColor@CColorDialog@@IAAPAUHBRUSH__@@PAVCDC@@PAVCWnd@@I@Z 000b08f8 f   uafxcwd:dlgclr.obj
 0001:0009f92c       ?GetRuntimeClass@CColorDialog@@UBAPAUCRuntimeClass@@XZ 000b092c f   uafxcwd:dlgclr.obj
 0001:0009f958       ??_E_AFX_COLOR_STATE@@UAAPAXI@Z 000b0958 f i uafxcwd:dlgclr.obj
 0001:0009f958       ??_G_AFX_COLOR_STATE@@UAAPAXI@Z 000b0958 f i uafxcwd:dlgclr.obj
 0001:0009f99c       ??1_AFX_COLOR_STATE@@UAA@XZ 000b099c f i uafxcwd:dlgclr.obj
 0001:0009f9b8       ??_ECColorDialog@@UAAPAXI@Z 000b09b8 f i uafxcwd:dlgclr.obj
 0001:0009f9b8       ??_GCColorDialog@@UAAPAXI@Z 000b09b8 f i uafxcwd:dlgclr.obj
 0001:0009f9fc       ??1CColorDialog@@UAA@XZ    000b09fc f i uafxcwd:dlgclr.obj
 0001:0009fa18       ??C?$CProcessLocal@V_AFX_COLOR_STATE@@@@QAAPAV_AFX_COLOR_STATE@@XZ 000b0a18 f i uafxcwd:dlgclr.obj
 0001:0009fa4c       ?GetData@?$CProcessLocal@V_AFX_COLOR_STATE@@@@QAAPAV_AFX_COLOR_STATE@@XZ 000b0a4c f i uafxcwd:dlgclr.obj
 0001:0009fb00       ?CreateObject@?$CProcessLocal@V_AFX_COLOR_STATE@@@@SAPAVCNoTrackObject@@XZ 000b0b00 f i uafxcwd:dlgclr.obj
 0001:0009fb7c       ??1?$CProcessLocal@V_AFX_COLOR_STATE@@@@QAA@XZ 000b0b7c f i uafxcwd:dlgclr.obj
 0001:0009fb98       ??0CDialogBar@@QAA@XZ      000b0b98 f   uafxcwd:bardlg.obj
 0001:0009fc10       ??1CDialogBar@@UAA@XZ      000b0c10 f   uafxcwd:bardlg.obj
 0001:0009fc60       ?PreCreateWindow@CDialogBar@@UAAHAAUtagCREATESTRUCTW@@@Z 000b0c60 f   uafxcwd:bardlg.obj
 0001:0009fd18       ?Create@CDialogBar@@UAAHPAVCWnd@@PB_WII@Z 000b0d18 f   uafxcwd:bardlg.obj
 0001:0009fff8       ?CalcFixedLayout@CDialogBar@@UAA?AVCSize@@HH@Z 000b0ff8 f   uafxcwd:bardlg.obj
 0001:000a00b8       ?OnUpdateCmdUI@CDialogBar@@UAAXPAVCFrameWnd@@H@Z 000b10b8 f   uafxcwd:bardlg.obj
 0001:000a00dc       ?GetMessageMap@CDialogBar@@MBAPBUAFX_MSGMAP@@XZ 000b10dc f   uafxcwd:bardlg.obj
 0001:000a010c       ?GetThisMessageMap@CDialogBar@@KAPBUAFX_MSGMAP@@XZ 000b110c f   uafxcwd:bardlg.obj
 0001:000a0128       ?HandleInitDialog@CDialogBar@@IAAJIJ@Z 000b1128 f   uafxcwd:bardlg.obj
 0001:000a0214       ?SetOccDialogInfo@CDialogBar@@MAAHPAU_AFX_OCC_DIALOG_INFO@@@Z 000b1214 f   uafxcwd:bardlg.obj
 0001:000a024c       ?GetRuntimeClass@CDialogBar@@UBAPAUCRuntimeClass@@XZ 000b124c f   uafxcwd:bardlg.obj
 0001:000a0278       ??_GCDialogBar@@UAAPAXI@Z  000b1278 f i uafxcwd:bardlg.obj
 0001:000a0278       ??_ECDialogBar@@UAAPAXI@Z  000b1278 f i uafxcwd:bardlg.obj
 0001:000a02bc       ??0CFixedAllocNoSync@@QAA@II@Z 000b12bc f   uafxcwd:fixalloc.obj
 0001:000a03a8       ??1CFixedAllocNoSync@@QAA@XZ 000b13a8 f   uafxcwd:fixalloc.obj
 0001:000a03c4       ?FreeAll@CFixedAllocNoSync@@QAAXXZ 000b13c4 f   uafxcwd:fixalloc.obj
 0001:000a0408       ?Alloc@CFixedAllocNoSync@@QAAPAXXZ 000b1408 f   uafxcwd:fixalloc.obj
 0001:000a0584       ?Free@CFixedAllocNoSync@@QAAXPAX@Z 000b1584 f   uafxcwd:fixalloc.obj
 0001:000a05d8       ??0CFixedAlloc@@QAA@II@Z   000b15d8 f   uafxcwd:fixalloc.obj
 0001:000a0620       ??1CFixedAlloc@@QAA@XZ     000b1620 f   uafxcwd:fixalloc.obj
 0001:000a0650       ?FreeAll@CFixedAlloc@@QAAXXZ 000b1650 f   uafxcwd:fixalloc.obj
 0001:000a06a0       ?Alloc@CFixedAlloc@@QAAPAXXZ 000b16a0 f   uafxcwd:fixalloc.obj
 0001:000a0784       ?Free@CFixedAlloc@@QAAXPAX@Z 000b1784 f   uafxcwd:fixalloc.obj
 0001:000a07dc       ?GetMessageMap@CScrollView@@MBAPBUAFX_MSGMAP@@XZ 000b17dc f   uafxcwd:viewscrl.obj
 0001:000a080c       ?GetThisMessageMap@CScrollView@@KAPBUAFX_MSGMAP@@XZ 000b180c f   uafxcwd:viewscrl.obj
 0001:000a0828       ??0CScrollView@@IAA@XZ     000b1828 f   uafxcwd:viewscrl.obj
 0001:000a08c0       ??1CScrollView@@UAA@XZ     000b18c0 f   uafxcwd:viewscrl.obj
 0001:000a08ec       ?OnPrepareDC@CScrollView@@UAAXPAVCDC@@@Z 000b18ec f   uafxcwd:viewscrl.obj
 0001:000a0c40       ?SetScrollSizes@CScrollView@@QAAXHUtagSIZE@@ABU2@1@Z 000b1c40 f   uafxcwd:viewscrl.obj
 0001:000a1050       ?GetScrollPosition@CScrollView@@QBA?AVCPoint@@XZ 000b2050 f   uafxcwd:viewscrl.obj
 0001:000a11ec       ?ScrollToPosition@CScrollView@@QAAXUtagPOINT@@@Z 000b21ec f   uafxcwd:viewscrl.obj
 0001:000a12e4       ?GetDeviceScrollPosition@CScrollView@@QBA?AVCPoint@@XZ 000b22e4 f   uafxcwd:viewscrl.obj
 0001:000a1388       ?GetDeviceScrollSizes@CScrollView@@QBAXAAHAAUtagSIZE@@11@Z 000b2388 f   uafxcwd:viewscrl.obj
 0001:000a1448       ?ScrollToDevicePosition@CScrollView@@IAAXUtagPOINT@@@Z 000b2448 f   uafxcwd:viewscrl.obj
 0001:000a1580       ?GetWheelScrollDistance@CScrollView@@UAA?AVCSize@@V2@HH@Z 000b2580 f   uafxcwd:viewscrl.obj
 0001:000a162c       ?FillOutsideRect@CScrollView@@QAAXPAVCDC@@PAVCBrush@@@Z 000b262c f   uafxcwd:viewscrl.obj
 0001:000a1778       ?ResizeParentToFit@CScrollView@@QAAXH@Z 000b2778 f   uafxcwd:viewscrl.obj
 0001:000a1ad0       ?OnSize@CScrollView@@QAAXIHH@Z 000b2ad0 f   uafxcwd:viewscrl.obj
 0001:000a1b18       ?CenterOnPoint@CScrollView@@IAAXVCPoint@@@Z 000b2b18 f   uafxcwd:viewscrl.obj
 0001:000a1cf4       ?GetScrollBarSizes@CScrollView@@IAAXAAVCSize@@@Z 000b2cf4 f   uafxcwd:viewscrl.obj
 0001:000a1e10       ?GetTrueClientSize@CScrollView@@IAAHAAVCSize@@0@Z 000b2e10 f   uafxcwd:viewscrl.obj
 0001:000a1f90       ?GetScrollBarState@CScrollView@@IAAXVCSize@@AAV2@1AAVCPoint@@H@Z 000b2f90 f   uafxcwd:viewscrl.obj
 0001:000a2228       ?UpdateBars@CScrollView@@IAAXXZ 000b3228 f   uafxcwd:viewscrl.obj
 0001:000a2598       ?CalcWindowRect@CScrollView@@UAAXPAUtagRECT@@I@Z 000b3598 f   uafxcwd:viewscrl.obj
 0001:000a2704       ?OnHScroll@CScrollView@@QAAXIIPAVCScrollBar@@@Z 000b3704 f   uafxcwd:viewscrl.obj
 0001:000a27d0       ?OnVScroll@CScrollView@@QAAXIIPAVCScrollBar@@@Z 000b37d0 f   uafxcwd:viewscrl.obj
 0001:000a28a0       ?OnScroll@CScrollView@@UAAHIIH@Z 000b38a0 f   uafxcwd:viewscrl.obj
 0001:000a2b54       ?OnScrollBy@CScrollView@@UAAHVCSize@@H@Z 000b3b54 f   uafxcwd:viewscrl.obj
 0001:000a2e3c       ?AssertValid@CScrollView@@UBAXXZ 000b3e3c f   uafxcwd:viewscrl.obj
 0001:000a2eb8       ?GetRuntimeClass@CScrollView@@UBAPAUCRuntimeClass@@XZ 000b3eb8 f   uafxcwd:viewscrl.obj
 0001:000a2ee4       ??_ECScrollView@@UAAPAXI@Z 000b3ee4 f i uafxcwd:viewscrl.obj
 0001:000a2ee4       ??_GCScrollView@@UAAPAXI@Z 000b3ee4 f i uafxcwd:viewscrl.obj
 0001:000a2f28       ?ScrollChildren@ATL@@YAXPAUHWND__@@HH@Z 000b3f28 f i uafxcwd:viewscrl.obj
 0001:000a2fe8       ?GetMessageMap@CView@@MBAPBUAFX_MSGMAP@@XZ 000b3fe8 f   uafxcwd:viewcore.obj
 0001:000a3018       ?GetThisMessageMap@CView@@KAPBUAFX_MSGMAP@@XZ 000b4018 f   uafxcwd:viewcore.obj
 0001:000a3034       ??0CView@@IAA@XZ           000b4034 f   uafxcwd:viewcore.obj
 0001:000a3090       ??1CView@@UAA@XZ           000b4090 f   uafxcwd:viewcore.obj
 0001:000a3140       ?PreCreateWindow@CView@@MAAHAAUtagCREATESTRUCTW@@@Z 000b4140 f   uafxcwd:viewcore.obj
 0001:000a3280       ?OnCreate@CView@@IAAHPAUtagCREATESTRUCTW@@@Z 000b4280 f   uafxcwd:viewcore.obj
 0001:000a33c4       ?OnDestroy@CView@@IAAXXZ   000b43c4 f   uafxcwd:viewcore.obj
 0001:000a3434       ?PostNcDestroy@CView@@MAAXXZ 000b4434 f   uafxcwd:viewcore.obj
 0001:000a34a4       ?CalcWindowRect@CView@@UAAXPAUtagRECT@@I@Z 000b44a4 f   uafxcwd:viewcore.obj
 0001:000a3620       ?OnCmdMsg@CView@@UAAHIHPAXPAUAFX_CMDHANDLERINFO@@@Z 000b4620 f   uafxcwd:viewcore.obj
 0001:000a3730       ?OnPaint@CView@@IAAXXZ     000b4730 f   uafxcwd:viewcore.obj
 0001:000a37d4       ?OnInitialUpdate@CView@@UAAXXZ 000b47d4 f   uafxcwd:viewcore.obj
 0001:000a3810       ?OnUpdate@CView@@MAAXPAV1@JPAVCObject@@@Z 000b4810 f   uafxcwd:viewcore.obj
 0001:000a386c       ?OnDraw@CView@@MAAXPAVCDC@@@Z 000b486c f   uafxcwd:viewcore.obj
 0001:000a3880       ?OnActivateView@CView@@MAAXHPAV1@0@Z 000b4880 f   uafxcwd:viewcore.obj
 0001:000a38fc       ?OnActivateFrame@CView@@MAAXIPAVCFrameWnd@@@Z 000b48fc f   uafxcwd:viewcore.obj
 0001:000a3910       ?OnScroll@CView@@UAAHIIH@Z 000b4910 f   uafxcwd:viewcore.obj
 0001:000a3938       ?OnScrollBy@CView@@UAAHVCSize@@H@Z 000b4938 f   uafxcwd:viewcore.obj
 0001:000a3960       ?GetParentSplitter@CView@@SAPAVCSplitterWnd@@PBVCWnd@@H@Z 000b4960 f   uafxcwd:viewcore.obj
 0001:000a3a44       ?GetScrollBarCtrl@CView@@UBAPAVCScrollBar@@H@Z 000b4a44 f   uafxcwd:viewcore.obj
 0001:000a3be0       ?OnUpdateSplitCmd@CView@@IAAXPAVCCmdUI@@@Z 000b4be0 f   uafxcwd:viewcore.obj
 0001:000a3cd4       ?OnSplitCmd@CView@@IAAHI@Z 000b4cd4 f   uafxcwd:viewcore.obj
 0001:000a3d84       ?OnUpdateNextPaneMenu@CView@@IAAXPAVCCmdUI@@@Z 000b4d84 f   uafxcwd:viewcore.obj
 0001:000a3eb0       ?OnNextPaneCmd@CView@@IAAHI@Z 000b4eb0 f   uafxcwd:viewcore.obj
 0001:000a3f9c       ?OnPrepareDC@CView@@UAAXPAVCDC@@@Z 000b4f9c f   uafxcwd:viewcore.obj
 0001:000a3fc8       ?AssertValid@CView@@UBAXXZ 000b4fc8 f   uafxcwd:viewcore.obj
 0001:000a3fe4       ?GetMessageMap@CCtrlView@@MBAPBUAFX_MSGMAP@@XZ 000b4fe4 f   uafxcwd:viewcore.obj
 0001:000a4014       ?GetThisMessageMap@CCtrlView@@KAPBUAFX_MSGMAP@@XZ 000b5014 f   uafxcwd:viewcore.obj
 0001:000a4030       ??1CCtrlView@@UAA@XZ       000b5030 f   uafxcwd:viewcore.obj
 0001:000a4070       ??0CCtrlView@@QAA@PB_WK@Z  000b5070 f   uafxcwd:viewcore.obj
 0001:000a4118       ?PreCreateWindow@CCtrlView@@MAAHAAUtagCREATESTRUCTW@@@Z 000b5118 f   uafxcwd:viewcore.obj
 0001:000a4244       ?OnDraw@CCtrlView@@MAAXPAVCDC@@@Z 000b5244 f   uafxcwd:viewcore.obj
 0001:000a4288       ?OnPaint@CCtrlView@@IAAXXZ 000b5288 f   uafxcwd:viewcore.obj
 0001:000a42a4       ?AssertValid@CCtrlView@@UBAXXZ 000b52a4 f   uafxcwd:viewcore.obj
 0001:000a4308       ?GetRuntimeClass@CSplitterWnd@@UBAPAUCRuntimeClass@@XZ 000b5308 f   uafxcwd:viewcore.obj
 0001:000a4334       ?GetRuntimeClass@CCtrlView@@UBAPAUCRuntimeClass@@XZ 000b5334 f   uafxcwd:viewcore.obj
 0001:000a4360       ??_9CView@@$BNA@AA         000b5360 f i uafxcwd:viewcore.obj
 0001:000a436c       ??0CPushRoutingView@@QAA@PAVCView@@@Z 000b536c f i uafxcwd:viewcore.obj
 0001:000a4418       ??1CPushRoutingView@@QAA@XZ 000b5418 f i uafxcwd:viewcore.obj
 0001:000a44c8       ?Pop@CPushRoutingView@@QAAXXZ 000b54c8 f i uafxcwd:viewcore.obj
 0001:000a45a8       ?AfxGetClassIDFromString@@YAJPB_WPAU_GUID@@@Z 000b55a8 f   uafxcwd:oledisp2.obj
 0001:000a464c       ??0COleDispatchDriver@@QAA@XZ 000b564c f   uafxcwd:oledisp2.obj
 0001:000a4690       ??0COleDispatchDriver@@QAA@PAUIDispatch@@H@Z 000b5690 f   uafxcwd:oledisp2.obj
 0001:000a46d4       ??0COleDispatchDriver@@QAA@ABV0@@Z 000b56d4 f   uafxcwd:oledisp2.obj
 0001:000a4784       ??4COleDispatchDriver@@QAAABV0@ABV0@@Z 000b5784 f   uafxcwd:oledisp2.obj
 0001:000a4858       ?CreateDispatch@COleDispatchDriver@@QAAHABU_GUID@@PAVCOleException@@@Z 000b5858 f   uafxcwd:oledisp2.obj
 0001:000a4aa4       ?CreateDispatch@COleDispatchDriver@@QAAHPB_WPAVCOleException@@@Z 000b5aa4 f   uafxcwd:oledisp2.obj
 0001:000a4b80       ?AttachDispatch@COleDispatchDriver@@QAAXPAUIDispatch@@H@Z 000b5b80 f   uafxcwd:oledisp2.obj
 0001:000a4bf0       ?ReleaseDispatch@COleDispatchDriver@@QAAXXZ 000b5bf0 f   uafxcwd:oledisp2.obj
 0001:000a4c58       ?DetachDispatch@COleDispatchDriver@@QAAPAUIDispatch@@XZ 000b5c58 f   uafxcwd:oledisp2.obj
 0001:000a4ca0       ?InvokeHelperV@COleDispatchDriver@@QAAXJGGPAXPBEPAD@Z 000b5ca0 f   uafxcwd:oledisp2.obj
 0001:000a5d1c       ?InvokeHelper@COleDispatchDriver@@QAAXJGGPAXPBEZZ 000b6d1c f   uafxcwd:oledisp2.obj
 0001:000a5d78       ?GetProperty@COleDispatchDriver@@QBAXJGPAX@Z 000b6d78 f   uafxcwd:oledisp2.obj
 0001:000a5db8       ?SetProperty@COleDispatchDriver@@QAAXJGZZ 000b6db8 f   uafxcwd:oledisp2.obj
 0001:000a5e94       ??0COleDispParams@@QAA@XZ  000b6e94 f i uafxcwd:oledisp2.obj
 0001:000a5ef8       ??1COleDispParams@@QAA@XZ  000b6ef8 f i uafxcwd:oledisp2.obj
 0001:000a5f44       ??0CVariantBoolConverter@@QAA@XZ 000b6f44 f i uafxcwd:oledisp2.obj
 0001:000a5f78       ??1CVariantBoolConverter@@QAA@XZ 000b6f78 f i uafxcwd:oledisp2.obj
 0001:000a5f94       ??0?$CArray@VCVariantBoolPair@@ABV1@@@QAA@XZ 000b6f94 f i uafxcwd:oledisp2.obj
 0001:000a6018       ??0CVariantBoolPair@@QAA@PAHPAFH@Z 000b7018 f i uafxcwd:oledisp2.obj
 0001:000a60f0       ??1CVariantBoolPair@@QAA@XZ 000b70f0 f i uafxcwd:oledisp2.obj
 0001:000a6150       ?AddPair@CVariantBoolConverter@@QAAXABVCVariantBoolPair@@@Z 000b7150 f i uafxcwd:oledisp2.obj
 0001:000a6170       ?CopyVarBoolsIntoBOOLs@CVariantBoolConverter@@QAAXXZ 000b7170 f i uafxcwd:oledisp2.obj
 0001:000a62c4       ?GetCount@?$CArray@VCVariantBoolPair@@ABV1@@@QBAHXZ 000b72c4 f i uafxcwd:oledisp2.obj
 0001:000a62f4       ?Add@?$CArray@VCVariantBoolPair@@ABV1@@@QAAHABVCVariantBoolPair@@@Z 000b72f4 f i uafxcwd:oledisp2.obj
 0001:000a633c       ?SetAtGrow@?$CArray@VCVariantBoolPair@@ABV1@@@QAAXHABVCVariantBoolPair@@@Z 000b733c f i uafxcwd:oledisp2.obj
 0001:000a640c       ?SetSize@?$CArray@VCVariantBoolPair@@ABV1@@@QAAXHH@Z 000b740c f i uafxcwd:oledisp2.obj
 0001:000a6cb0       ??0CVariantBoolPair@@QAA@XZ 000b7cb0 f i uafxcwd:oledisp2.obj
 0001:000a6cf4       ??4CVariantBoolPair@@QAAAAV0@ABV0@@Z 000b7cf4 f i uafxcwd:oledisp2.obj
 0001:000a6d74       ?Detach@CVariantBoolPair@@QBAPAHXZ 000b7d74 f i uafxcwd:oledisp2.obj
 0001:000a6dc8       ??A?$CArray@VCVariantBoolPair@@ABV1@@@QAAAAVCVariantBoolPair@@H@Z 000b7dc8 f i uafxcwd:oledisp2.obj
 0001:000a6e00       ?ElementAt@?$CArray@VCVariantBoolPair@@ABV1@@@QAAAAVCVariantBoolPair@@H@Z 000b7e00 f i uafxcwd:oledisp2.obj
 0001:000a6ebc       ??1?$CArray@VCVariantBoolPair@@ABV1@@@UAA@XZ 000b7ebc f i uafxcwd:oledisp2.obj
 0001:000a6fa0       ?Serialize@?$CArray@VCVariantBoolPair@@ABV1@@@UAAXAAVCArchive@@@Z 000b7fa0 f i uafxcwd:oledisp2.obj
 0001:000a7054       ??$SerializeElements@VCVariantBoolPair@@@@YAXAAVCArchive@@PAVCVariantBoolPair@@H@Z 000b8054 f i uafxcwd:oledisp2.obj
 0001:000a7274       ?AssertValid@?$CArray@VCVariantBoolPair@@ABV1@@@UBAXXZ 000b8274 f i uafxcwd:oledisp2.obj
 0001:000a7440       ??_E?$CArray@VCVariantBoolPair@@ABV1@@@UAAPAXI@Z 000b8440 f i uafxcwd:oledisp2.obj
 0001:000a7440       ??_G?$CArray@VCVariantBoolPair@@ABV1@@@UAAPAXI@Z 000b8440 f i uafxcwd:oledisp2.obj
 0001:000a7484       ??_GCVariantBoolPair@@QAAPAXI@Z 000b8484 f i uafxcwd:oledisp2.obj
 0001:000a74c8       ??0CArchiveStream@@QAA@PAVCArchive@@@Z 000b84c8 f   uafxcwd:arcstrm.obj
 0001:000a7518       ?AddRef@CArchiveStream@@UAAKXZ 000b8518 f   uafxcwd:arcstrm.obj
 0001:000a7540       ?Release@CArchiveStream@@UAAKXZ 000b8540 f   uafxcwd:arcstrm.obj
 0001:000a7568       ?QueryInterface@CArchiveStream@@UAAJABU_GUID@@PAPAX@Z 000b8568 f   uafxcwd:arcstrm.obj
 0001:000a7610       ?Read@CArchiveStream@@UAAJPAXKPAK@Z 000b8610 f   uafxcwd:arcstrm.obj
 0001:000a779c       ?Write@CArchiveStream@@UAAJPBXKPAK@Z 000b879c f   uafxcwd:arcstrm.obj
 0001:000a7924       ?Seek@CArchiveStream@@UAAJT_LARGE_INTEGER@@KPAT_ULARGE_INTEGER@@@Z 000b8924 f   uafxcwd:arcstrm.obj
 0001:000a7a94       ?SetSize@CArchiveStream@@UAAJT_ULARGE_INTEGER@@@Z 000b8a94 f   uafxcwd:arcstrm.obj
 0001:000a7ac0       ?CopyTo@CArchiveStream@@UAAJPAUIStream@@T_ULARGE_INTEGER@@PAT3@2@Z 000b8ac0 f   uafxcwd:arcstrm.obj
 0001:000a7aec       ?Commit@CArchiveStream@@UAAJK@Z 000b8aec f   uafxcwd:arcstrm.obj
 0001:000a7b18       ?Revert@CArchiveStream@@UAAJXZ 000b8b18 f   uafxcwd:arcstrm.obj
 0001:000a7b44       ?LockRegion@CArchiveStream@@UAAJT_ULARGE_INTEGER@@0K@Z 000b8b44 f   uafxcwd:arcstrm.obj
 0001:000a7b70       ?UnlockRegion@CArchiveStream@@UAAJT_ULARGE_INTEGER@@0K@Z 000b8b70 f   uafxcwd:arcstrm.obj
 0001:000a7b9c       ?Stat@CArchiveStream@@UAAJPAUtagSTATSTG@@K@Z 000b8b9c f   uafxcwd:arcstrm.obj
 0001:000a7bc8       ?Clone@CArchiveStream@@UAAJPAPAUIStream@@@Z 000b8bc8 f   uafxcwd:arcstrm.obj
 0001:000a7bf4       ??0IStream@@QAA@XZ         000b8bf4 f i uafxcwd:arcstrm.obj
 0001:000a7c34       ??0ISequentialStream@@QAA@XZ 000b8c34 f i uafxcwd:arcstrm.obj
 0001:000a7c74       ?AfxEditviewTerm@@YAXXZ    000b8c74 f   uafxcwd:viewedit.obj
 0001:000a7c8c       ?GetMessageMap@CEditView@@MBAPBUAFX_MSGMAP@@XZ 000b8c8c f   uafxcwd:viewedit.obj
 0001:000a7cbc       ?GetThisMessageMap@CEditView@@KAPBUAFX_MSGMAP@@XZ 000b8cbc f   uafxcwd:viewedit.obj
 0001:000a7cd8       ??0_AFX_EDIT_STATE@@QAA@XZ 000b8cd8 f   uafxcwd:viewedit.obj
 0001:000a7d4c       ??1_AFX_EDIT_STATE@@UAA@XZ 000b8d4c f   uafxcwd:viewedit.obj
 0001:000a7d90       ??0CEditView@@QAA@XZ       000b8d90 f   uafxcwd:viewedit.obj
 0001:000a7e18       ??1CEditView@@UAA@XZ       000b8e18 f   uafxcwd:viewedit.obj
 0001:000a7eb4       ?PreCreateWindow@CEditView@@MAAHAAUtagCREATESTRUCTW@@@Z 000b8eb4 f   uafxcwd:viewedit.obj
 0001:000a7f00       ?OnCreate@CEditView@@IAAHPAUtagCREATESTRUCTW@@@Z 000b8f00 f   uafxcwd:viewedit.obj
 0001:000a813c       ?OnGetDlgCode@CEditView@@IAAIXZ 000b913c f   uafxcwd:viewedit.obj
 0001:000a8164       ?OnDestroy@CEditView@@IAAXXZ 000b9164 f   uafxcwd:viewedit.obj
 0001:000a8224       ?CalcWindowRect@CEditView@@MAAXPAUtagRECT@@I@Z 000b9224 f   uafxcwd:viewedit.obj
 0001:000a82e4       ?DeleteContents@CEditView@@UAAXXZ 000b92e4 f   uafxcwd:viewedit.obj
 0001:000a836c       ?Serialize@CEditView@@UAAXAAVCArchive@@@Z 000b936c f   uafxcwd:viewedit.obj
 0001:000a848c       ?ReadFromArchive@CEditView@@QAAXAAVCArchive@@I@Z 000b948c f   uafxcwd:viewedit.obj
 0001:000a8650       ?WriteToArchive@CEditView@@QAAXAAVCArchive@@@Z 000b9650 f   uafxcwd:viewedit.obj
 0001:000a8794       ?SerializeRaw@CEditView@@QAAXAAVCArchive@@@Z 000b9794 f   uafxcwd:viewedit.obj
 0001:000a8964       ?_AfxEndOfLine@@YAIPB_WII@Z 000b9964 f   uafxcwd:viewedit.obj
 0001:000a8aac       ?OnUpdateNeedSel@CEditView@@IAAXPAVCCmdUI@@@Z 000b9aac f   uafxcwd:viewedit.obj
 0001:000a8bb8       ?OnUpdateNeedClip@CEditView@@IAAXPAVCCmdUI@@@Z 000b9bb8 f   uafxcwd:viewedit.obj
 0001:000a8ce8       ?OnUpdateNeedText@CEditView@@IAAXPAVCCmdUI@@@Z 000b9ce8 f   uafxcwd:viewedit.obj
 0001:000a8de4       ?OnUpdateNeedFind@CEditView@@IAAXPAVCCmdUI@@@Z 000b9de4 f   uafxcwd:viewedit.obj
 0001:000a8f10       ?OnUpdateEditUndo@CEditView@@IAAXPAVCCmdUI@@@Z 000b9f10 f   uafxcwd:viewedit.obj
 0001:000a8ff8       ?OnEditChange@CEditView@@IAAHXZ 000b9ff8 f   uafxcwd:viewedit.obj
 0001:000a9084       ?OnEditCut@CEditView@@IAAXXZ 000ba084 f   uafxcwd:viewedit.obj
 0001:000a90e0       ?OnEditCopy@CEditView@@IAAXXZ 000ba0e0 f   uafxcwd:viewedit.obj
 0001:000a9140       ?OnEditPaste@CEditView@@IAAXXZ 000ba140 f   uafxcwd:viewedit.obj
 0001:000a9240       ?OnEditClear@CEditView@@IAAXXZ 000ba240 f   uafxcwd:viewedit.obj
 0001:000a929c       ?OnEditUndo@CEditView@@IAAXXZ 000ba29c f   uafxcwd:viewedit.obj
 0001:000a92fc       ?OnEditSelectAll@CEditView@@IAAXXZ 000ba2fc f   uafxcwd:viewedit.obj
 0001:000a9364       ?OnSetFont@CEditView@@IAAJIJ@Z 000ba364 f   uafxcwd:viewedit.obj
 0001:000a93dc       ?LockBuffer@CEditView@@QBAPB_WXZ 000ba3dc f   uafxcwd:viewedit.obj
 0001:000a9668       ?UnlockBuffer@CEditView@@QBAXXZ 000ba668 f   uafxcwd:viewedit.obj
 0001:000a96d8       ?GetBufferLength@CEditView@@QBAIXZ 000ba6d8 f   uafxcwd:viewedit.obj
 0001:000a9780       ?GetSelectedText@CEditView@@QBAXAAV?$CStringT@_WV?$StrTraitMFC@_WV?$ChTraitsOS@_W@ATL@@@@@ATL@@@Z 000ba780 f   uafxcwd:viewedit.obj
 0001:000a98b8       ?OnEditFind@CEditView@@IAAXXZ 000ba8b8 f   uafxcwd:viewedit.obj
 0001:000a9908       ?OnEditReplace@CEditView@@IAAXXZ 000ba908 f   uafxcwd:viewedit.obj
 0001:000a9954       ?OnEditRepeat@CEditView@@IAAXXZ 000ba954 f   uafxcwd:viewedit.obj
 0001:000a9a34       ?OnEditFindReplace@CEditView@@IAAXH@Z 000baa34 f   uafxcwd:viewedit.obj
 0001:000a9ed0       ?OnFindNext@CEditView@@MAAXPB_WHH@Z 000baed0 f   uafxcwd:viewedit.obj
 0001:000a9fc8       ?OnReplaceSel@CEditView@@MAAXPB_WHH0@Z 000bafc8 f   uafxcwd:viewedit.obj
 0001:000aa240       ?OnReplaceAll@CEditView@@MAAXPB_W0H@Z 000bb240 f   uafxcwd:viewedit.obj
 0001:000aa4f8       ?InitializeReplace@CEditView@@IAAHXZ 000bb4f8 f   uafxcwd:viewedit.obj
 0001:000aa6d4       ?OnFindReplaceCmd@CEditView@@IAAJIJ@Z 000bb6d4 f   uafxcwd:viewedit.obj
 0001:000aaafc       ?SameAsSelected@CEditView@@IAAHPB_WH@Z 000bbafc f   uafxcwd:viewedit.obj
 0001:000aac3c       ?FindText@CEditView@@QAAHPB_WHH@Z 000bbc3c f   uafxcwd:viewedit.obj
 0001:000ac144       ?OnTextNotFound@CEditView@@MAAXPB_W@Z 000bd144 f   uafxcwd:viewedit.obj
 0001:000ac2d0       ?OnLButtonUp@CEditView@@IAAXIVCPoint@@@Z 000bd2d0 f   uafxcwd:viewedit.obj
 0001:000ac3a4       ?OnKeyUp@CEditView@@IAAXIII@Z 000bd3a4 f   uafxcwd:viewedit.obj
 0001:000ac4cc       ?OnChar@CEditView@@IAAXIII@Z 000bd4cc f   uafxcwd:viewedit.obj
 0001:000ac5a0       ?DismissFindReplaceBar@CEditView@@QAAXXZ 000bd5a0 f   uafxcwd:viewedit.obj
 0001:000ac640       ?SetTabStops@CEditView@@QAAXH@Z 000bd640 f   uafxcwd:viewedit.obj
 0001:000ac6c4       ?AssertValid@CEditView@@UBAXXZ 000bd6c4 f   uafxcwd:viewedit.obj
 0001:000ac73c       ?CreateObject@CEditView@@SAPAVCObject@@XZ 000bd73c f   uafxcwd:viewedit.obj
 0001:000ac7b8       ?GetRuntimeClass@CEditView@@UBAPAUCRuntimeClass@@XZ 000bd7b8 f   uafxcwd:viewedit.obj
 0001:000ac7e4       ??_G_AFX_EDIT_STATE@@UAAPAXI@Z 000bd7e4 f i uafxcwd:viewedit.obj
 0001:000ac7e4       ??_E_AFX_EDIT_STATE@@UAAPAXI@Z 000bd7e4 f i uafxcwd:viewedit.obj
 0001:000ac828       ??_GCEditView@@UAAPAXI@Z   000bd828 f i uafxcwd:viewedit.obj
 0001:000ac828       ??_ECEditView@@UAAPAXI@Z   000bd828 f i uafxcwd:viewedit.obj
 0001:000ac86c       ??B?$CProcessLocal@V_AFX_EDIT_STATE@@@@QAAPAV_AFX_EDIT_STATE@@XZ 000bd86c f i uafxcwd:viewedit.obj
 0001:000ac8a0       ?GetData@?$CProcessLocal@V_AFX_EDIT_STATE@@@@QAAPAV_AFX_EDIT_STATE@@XZ 000bd8a0 f i uafxcwd:viewedit.obj
 0001:000ac954       ?CreateObject@?$CProcessLocal@V_AFX_EDIT_STATE@@@@SAPAVCNoTrackObject@@XZ 000bd954 f i uafxcwd:viewedit.obj
 0001:000ac9d0       ?IsBarVisible@CFindReplaceDialog@@QAAHXZ 000bd9d0 f i uafxcwd:viewedit.obj
 0001:000aca20       ??1?$CProcessLocal@V_AFX_EDIT_STATE@@@@QAA@XZ 000bda20 f i uafxcwd:viewedit.obj
 0001:000aca44       ??0CDocListDocTemplate@@QAA@IPAUCRuntimeClass@@00PB_W1@Z 000bda44 f   uafxcwd:docdl.obj
 0001:000acce8       ??1CDocListDocTemplate@@UAA@XZ 000bdce8 f   uafxcwd:docdl.obj
 0001:000ace1c       ?CreateNewFrame@CDocListDocTemplate@@UAAPAVCFrameWnd@@PAVCDocument@@PAV2@@Z 000bde1c f   uafxcwd:docdl.obj
 0001:000ad06c       ?RemoveDocument@CDocListDocTemplate@@UAAXPAVCDocument@@@Z 000be06c f   uafxcwd:docdl.obj
 0001:000ad160       ?OpenDocumentFile@CDocListDocTemplate@@UAAPAVCDocument@@PB_WH@Z 000be160 f   uafxcwd:docdl.obj
 0001:000ad85c       ?ShowDocList@CDocListDocTemplate@@UAAXXZ 000be85c f   uafxcwd:docdl.obj
 0001:000ada3c       ?CloseAllDocuments@CDocListDocTemplate@@UAAXH@Z 000bea3c f   uafxcwd:docdl.obj
 0001:000adacc       ?GetRuntimeClass@CDocListDocTemplate@@UBAPAUCRuntimeClass@@XZ 000beacc f   uafxcwd:docdl.obj
 0001:000adaf8       ??_ECDocListDocTemplate@@UAAPAXI@Z 000beaf8 f i uafxcwd:docdl.obj
 0001:000adaf8       ??_GCDocListDocTemplate@@UAAPAXI@Z 000beaf8 f i uafxcwd:docdl.obj
 0001:000adb44       ?GetFileName@CFile@@UBA?AV?$CStringT@_WV?$StrTraitMFC@_WV?$ChTraitsOS@_W@ATL@@@@@ATL@@XZ 000beb44 f   uafxcwd:filest.obj
 0001:000adc38       ?GetFileTitleW@CFile@@UBA?AV?$CStringT@_WV?$StrTraitMFC@_WV?$ChTraitsOS@_W@ATL@@@@@ATL@@XZ 000bec38 f   uafxcwd:filest.obj
 0001:000add24       ?GetFilePath@CFile@@UBA?AV?$CStringT@_WV?$StrTraitMFC@_WV?$ChTraitsOS@_W@ATL@@@@@ATL@@XZ 000bed24 f   uafxcwd:filest.obj
 0001:000addb0       ?GetStatus@CFile@@QBAHAAUCFileStatus@@@Z 000bedb0 f   uafxcwd:filest.obj
 0001:000ae194       ?GetStatus@CFile@@SAHPB_WAAUCFileStatus@@@Z 000bf194 f   uafxcwd:filest.obj
 0001:000ae554       ?AfxTimeToFileTime@@YAXABVCTime@ATL@@PAU_FILETIME@@@Z 000bf554 f   uafxcwd:filest.obj
 0001:000ae6c0       ?SetStatus@CFile@@SAXPB_WABUCFileStatus@@@Z 000bf6c0 f   uafxcwd:filest.obj
 0001:000ae978       ?GetStatus@CMemFile@@QBAHAAUCFileStatus@@@Z 000bf978 f   uafxcwd:filest.obj
 0001:000aea38       ??0CFileStatus@@QAA@XZ     000bfa38 f i uafxcwd:filest.obj
 0001:000aea80       ?AfxBSTR2CString@@YAXPAV?$CStringT@_WV?$StrTraitMFC@_WV?$ChTraitsOS@_W@ATL@@@@@ATL@@PA_W@Z 000bfa80 f   uafxcwd:olecnvrt.obj
 0001:000aeb68       ?GetStandardProp@CCmdTarget@@IAAXPBUAFX_DISPMAP_ENTRY@@PAUtagVARIANT@@PAI@Z 000bfb68 f   uafxcwd:oledisp1.obj
 0001:000aee9c       ?SetStandardProp@CCmdTarget@@IAAJPBUAFX_DISPMAP_ENTRY@@PAUtagDISPPARAMS@@PAI@Z 000bfe9c f   uafxcwd:oledisp1.obj
 0001:000af344       ?GetEntryCount@CCmdTarget@@KAIPBUAFX_DISPMAP@@@Z 000c0344 f   uafxcwd:oledisp1.obj
 0001:000af460       ?MemberIDFromName@CCmdTarget@@KAJPBUAFX_DISPMAP@@PB_W@Z 000c0460 f   uafxcwd:oledisp1.obj
 0001:000af5f8       ?GetDispEntry@CCmdTarget@@IAAPBUAFX_DISPMAP_ENTRY@@J@Z 000c05f8 f   uafxcwd:oledisp1.obj
 0001:000af8a0       ?GetNotSupported@CCmdTarget@@QAAXXZ 000c08a0 f   uafxcwd:oledisp1.obj
 0001:000af8cc       ?SetNotSupported@CCmdTarget@@QAAXXZ 000c08cc f   uafxcwd:oledisp1.obj
 0001:000af8f8       ?EnableAutomation@CCmdTarget@@QAAXXZ 000c08f8 f   uafxcwd:oledisp1.obj
 0001:000af9e0       ?GetIDispatch@CCmdTarget@@QAAPAUIDispatch@@H@Z 000c09e0 f   uafxcwd:oledisp1.obj
 0001:000afa80       ?FromIDispatch@CCmdTarget@@SAPAV1@PAUIDispatch@@@Z 000c0a80 f   uafxcwd:oledisp1.obj
 0001:000afb28       ?IsResultExpected@CCmdTarget@@QAAHXZ 000c0b28 f   uafxcwd:oledisp1.obj
 0001:000afb70       ?Disconnect@COleDispatchImpl@@UAAXXZ 000c0b70 f   uafxcwd:oledisp1.obj
 0001:000afba0       ?GetStackSize@CCmdTarget@@KAIPBEG@Z 000c0ba0 f   uafxcwd:oledisp1.obj
 0001:000afde4       ?PushStackArgs@CCmdTarget@@IAAJPAEPBEPAXGPAUtagDISPPARAMS@@PAIPAUtagVARIANT@@PAVCVariantBoolConverter@@@Z 000c0de4 f   uafxcwd:oledisp1.obj
 0001:000b06f4       ?CallMemberFunc@CCmdTarget@@IAAJPBUAFX_DISPMAP_ENTRY@@GPAUtagVARIANT@@PAUtagDISPPARAMS@@PAI@Z 000c16f4 f   uafxcwd:oledisp1.obj
 0001:000b1124       ?AddRef@COleDispatchImpl@@UAAKXZ 000c2124 f   uafxcwd:oledisp1.obj
 0001:000b1164       ?Release@COleDispatchImpl@@UAAKXZ 000c2164 f   uafxcwd:oledisp1.obj
 0001:000b11a4       ?QueryInterface@COleDispatchImpl@@UAAJABU_GUID@@PAPAX@Z 000c21a4 f   uafxcwd:oledisp1.obj
 0001:000b11ec       ?GetTypeInfoCount@COleDispatchImpl@@UAAJPAI@Z 000c21ec f   uafxcwd:oledisp1.obj
 0001:000b124c       ?GetTypeInfo@COleDispatchImpl@@UAAJIKPAPAUITypeInfo@@@Z 000c224c f   uafxcwd:oledisp1.obj
 0001:000b1378       ?GetIDsOfNames@COleDispatchImpl@@UAAJABU_GUID@@PAPA_WIKPAJ@Z 000c2378 f   uafxcwd:oledisp1.obj
 0001:000b167c       ?Invoke@COleDispatchImpl@@UAAJJABU_GUID@@KGPAUtagDISPPARAMS@@PAUtagVARIANT@@PAUtagEXCEPINFO@@PAI@Z 000c267c f   uafxcwd:oledisp1.obj
 0001:000b2504       ??1COleDispatchException@@UAA@XZ 000c3504 f   uafxcwd:oledisp1.obj
 0001:000b2554       ?Process@COleDispatchException@@SAXPAUtagEXCEPINFO@@PBVCException@@@Z 000c3554 f   uafxcwd:oledisp1.obj
 0001:000b2878       ??0COleDispatchException@@QAA@PB_WIG@Z 000c3878 f   uafxcwd:oledisp1.obj
 0001:000b29ec       ?GetErrorMessage@COleDispatchException@@UBAHPA_WIPAI@Z 000c39ec f   uafxcwd:oledisp1.obj
 0001:000b2aa8       ?AfxThrowOleDispatchException@@YAXGPB_WI@Z 000c3aa8 f   uafxcwd:oledisp1.obj
 0001:000b2b94       ?AfxThrowOleDispatchException@@YAXGII@Z 000c3b94 f   uafxcwd:oledisp1.obj
 0001:000b2ca8       ?GetRuntimeClass@COleDispatchException@@UBAPAUCRuntimeClass@@XZ 000c3ca8 f   uafxcwd:oledisp1.obj
 0001:000b2cd4       ??0COleDispatchImpl@@QAA@XZ 000c3cd4 f i uafxcwd:oledisp1.obj
 0001:000b2d14       ??4COleDispatchImpl@@QAAAAV0@ABV0@@Z 000c3d14 f i uafxcwd:oledisp1.obj
 0001:000b2d48       ??4IDispatch@@QAAAAU0@ABU0@@Z 000c3d48 f i uafxcwd:oledisp1.obj
 0001:000b2d7c       ??4IUnknown@@QAAAAU0@ABU0@@Z 000c3d7c f i uafxcwd:oledisp1.obj
 0001:000b2da4       ??9@YAHABU_GUID@@0@Z       000c3da4 f i uafxcwd:oledisp1.obj
 0001:000b2dfc       ??_GCOleDispatchException@@UAAPAXI@Z 000c3dfc f i uafxcwd:oledisp1.obj
 0001:000b2dfc       ??_ECOleDispatchException@@UAAPAXI@Z 000c3dfc f i uafxcwd:oledisp1.obj
 0001:000b2e40       ?_AtlVerifyStackAvailable@_ATL_SAFE_ALLOCA_IMPL@ATL@@YA_NK@Z 000c3e40 f i uafxcwd:oledisp1.obj
 0001:000b2e84       ??0IDispatch@@QAA@XZ       000c3e84 f i uafxcwd:oledisp1.obj
 0001:000b2ec4       ?CopyBOOLsIntoVarBools@CVariantBoolConverter@@QAAXXZ 000c3ec4 f i uafxcwd:oledisp1.obj
 0001:000b3020       ??0CFindReplaceDialog@@QAA@XZ 000c4020 f   uafxcwd:dlgfr.obj
 0001:000b316c       ?PostNcDestroy@CFindReplaceDialog@@MAAXXZ 000c416c f   uafxcwd:dlgfr.obj
 0001:000b3214       ?Create@CFindReplaceDialog@@UAAHHPB_W0KPAVCWnd@@@Z 000c4214 f   uafxcwd:dlgfr.obj
 0001:000b352c       ?GetNotifier@CFindReplaceDialog@@SAPAV1@J@Z 000c452c f   uafxcwd:dlgfr.obj
 0001:000b35e8       ?GetMessageMap@CFindReplaceDialog@@MBAPBUAFX_MSGMAP@@XZ 000c45e8 f   uafxcwd:dlgfr.obj
 0001:000b3618       ?GetThisMessageMap@CFindReplaceDialog@@KAPBUAFX_MSGMAP@@XZ 000c4618 f   uafxcwd:dlgfr.obj
 0001:000b3634       ?DoDataExchange@CFindReplaceDialog@@MAAXPAVCDataExchange@@@Z 000c4634 f   uafxcwd:dlgfr.obj
 0001:000b3654       ?OnSettingChange@CFindReplaceDialog@@IAAXIPB_W@Z 000c4654 f   uafxcwd:dlgfr.obj
 0001:000b3784       ?OnFind@CFindReplaceDialog@@IAAXXZ 000c4784 f   uafxcwd:dlgfr.obj
 0001:000b3ab0       ?OnInitDialog@CFindReplaceDialog@@UAAHXZ 000c4ab0 f   uafxcwd:dlgfr.obj
 0001:000b3d1c       ?OnOK@CFindReplaceDialog@@MAAXXZ 000c4d1c f   uafxcwd:dlgfr.obj
 0001:000b3ffc       ?OnFindReplaceBar@CFindReplaceDialog@@IAAJIJ@Z 000c4ffc f   uafxcwd:dlgfr.obj
 0001:000b4494       ?OnClose@CFindReplaceDialog@@IAAXXZ 000c5494 f   uafxcwd:dlgfr.obj
 0001:000b4764       ?OnCancel@CFindReplaceDialog@@MAAXXZ 000c5764 f   uafxcwd:dlgfr.obj
 0001:000b4780       ?EndDialog@CFindReplaceDialog@@QAAXH@Z 000c5780 f   uafxcwd:dlgfr.obj
 0001:000b47d4       ?OnReplace@CFindReplaceDialog@@IAAXXZ 000c57d4 f   uafxcwd:dlgfr.obj
 0001:000b49e0       ?OnReplaceAll@CFindReplaceDialog@@IAAXXZ 000c59e0 f   uafxcwd:dlgfr.obj
 0001:000b4bec       ?OnHelp@CFindReplaceDialog@@IAAXXZ 000c5bec f   uafxcwd:dlgfr.obj
 0001:000b4c24       ?OnFindTextChanged@CFindReplaceDialog@@IAAXXZ 000c5c24 f   uafxcwd:dlgfr.obj
 0001:000b4f34       ?ce_FindText@@YAPAUHWND__@@PAUtagFINDREPLACEW@@@Z 000c5f34 f   uafxcwd:dlgfr.obj
 0001:000b5574       ?ce_ReplaceText@@YAPAUHWND__@@PAUtagFINDREPLACEW@@@Z 000c6574 f   uafxcwd:dlgfr.obj
 0001:000b5a10       ??0CFindReplaceBar@@QAA@PAVCFindReplaceDialog@@@Z 000c6a10 f   uafxcwd:dlgfr.obj
 0001:000b5a64       ??1CFindReplaceBar@@UAA@XZ 000c6a64 f   uafxcwd:dlgfr.obj
 0001:000b5a90       ?GetMessageMap@CFindReplaceBar@@MBAPBUAFX_MSGMAP@@XZ 000c6a90 f   uafxcwd:dlgfr.obj
 0001:000b5ac0       ?GetThisMessageMap@CFindReplaceBar@@KAPBUAFX_MSGMAP@@XZ 000c6ac0 f   uafxcwd:dlgfr.obj
 0001:000b5adc       ?OnFind@CFindReplaceBar@@IAAXXZ 000c6adc f   uafxcwd:dlgfr.obj
 0001:000b5b00       ?OnOK@CFindReplaceBar@@IAAXXZ 000c6b00 f   uafxcwd:dlgfr.obj
 0001:000b5b24       ?OnReplace@CFindReplaceBar@@IAAXXZ 000c6b24 f   uafxcwd:dlgfr.obj
 0001:000b5b48       ?OnReplaceAll@CFindReplaceBar@@IAAXXZ 000c6b48 f   uafxcwd:dlgfr.obj
 0001:000b5b6c       ?OnUpdateCmdUI@CFindReplaceBar@@UAAXPAVCFrameWnd@@H@Z 000c6b6c f   uafxcwd:dlgfr.obj
 0001:000b5b90       ?GetRuntimeClass@CFindReplaceDialog@@UBAPAUCRuntimeClass@@XZ 000c6b90 f   uafxcwd:dlgfr.obj
 0001:000b5bbc       ??_GCFindReplaceDialog@@UAAPAXI@Z 000c6bbc f i uafxcwd:dlgfr.obj
 0001:000b5bbc       ??_ECFindReplaceDialog@@UAAPAXI@Z 000c6bbc f i uafxcwd:dlgfr.obj
 0001:000b5c00       ??1CFindReplaceDialog@@UAA@XZ 000c6c00 f i uafxcwd:dlgfr.obj
 0001:000b5c1c       ??_ECFindReplaceBar@@UAAPAXI@Z 000c6c1c f i uafxcwd:dlgfr.obj
 0001:000b5c1c       ??_GCFindReplaceBar@@UAAPAXI@Z 000c6c1c f i uafxcwd:dlgfr.obj
 0001:000b5c60       ??0CSingleDocTemplate@@QAA@IPAUCRuntimeClass@@00@Z 000c6c60 f   uafxcwd:docsingl.obj
 0001:000b5cd0       ??1CSingleDocTemplate@@UAA@XZ 000c6cd0 f   uafxcwd:docsingl.obj
 0001:000b5d70       ?GetFirstDocPosition@CSingleDocTemplate@@UBAPAU__POSITION@@XZ 000c6d70 f   uafxcwd:docsingl.obj
 0001:000b5dc0       ?GetNextDoc@CSingleDocTemplate@@UBAPAVCDocument@@AAPAU__POSITION@@@Z 000c6dc0 f   uafxcwd:docsingl.obj
 0001:000b5e54       ?AddDocument@CSingleDocTemplate@@UAAXPAVCDocument@@@Z 000c6e54 f   uafxcwd:docsingl.obj
 0001:000b5ed8       ?RemoveDocument@CSingleDocTemplate@@UAAXPAVCDocument@@@Z 000c6ed8 f   uafxcwd:docsingl.obj
 0001:000b5f68       ?OpenDocumentFile@CSingleDocTemplate@@UAAPAVCDocument@@PB_WH@Z 000c6f68 f   uafxcwd:docsingl.obj
 0001:000b6638       ?SetDefaultTitle@CSingleDocTemplate@@UAAXPAVCDocument@@@Z 000c7638 f   uafxcwd:docsingl.obj
 0001:000b673c       ?AssertValid@CSingleDocTemplate@@UBAXXZ 000c773c f   uafxcwd:docsingl.obj
 0001:000b6788       ?GetRuntimeClass@CSingleDocTemplate@@UBAPAUCRuntimeClass@@XZ 000c7788 f   uafxcwd:docsingl.obj
 0001:000b67b4       ??_GCSingleDocTemplate@@UAAPAXI@Z 000c77b4 f i uafxcwd:docsingl.obj
 0001:000b67b4       ??_ECSingleDocTemplate@@UAAPAXI@Z 000c77b4 f i uafxcwd:docsingl.obj
 0001:000b67f8       _AfxDispatchCall           000c77f8 f   uafxcwd:olecall.obj
 0001:000b6814       ?EnableTypeLib@CCmdTarget@@QAAXXZ 000c7814 f   uafxcwd:oletyplb.obj
 0001:000b68b4       ?GetTypeInfoOfGuid@CCmdTarget@@QAAJKABU_GUID@@PAPAUITypeInfo@@@Z 000c78b4 f   uafxcwd:oletyplb.obj
 0001:000b6ae4       ?AfxGetTypeLibCache@@YAPAVCTypeLibCache@@PBU_GUID@@@Z 000c7ae4 f   uafxcwd:oletyplb.obj
 0001:000b6dac       ?Lock@CTypeLibCache@@QAAXXZ 000c7dac f   uafxcwd:oletyplb.obj
 0001:000b6e30       ?Lookup@CTypeLibCache@@QAAHKPAPAUITypeLib@@@Z 000c7e30 f   uafxcwd:oletyplb.obj
 0001:000b6f18       ?Cache@CTypeLibCache@@QAAXKPAUITypeLib@@@Z 000c7f18 f   uafxcwd:oletyplb.obj
 0001:000b703c       ?LookupTypeInfo@CTypeLibCache@@QAAHKABU_GUID@@PAPAUITypeInfo@@@Z 000c803c f   uafxcwd:oletyplb.obj
 0001:000b7190       ?CacheTypeInfo@CTypeLibCache@@QAAXKABU_GUID@@PAUITypeInfo@@@Z 000c8190 f   uafxcwd:oletyplb.obj
 0001:000b7268       ??0CTypeLibCacheMap@@QAA@XZ 000c8268 f i uafxcwd:oletyplb.obj
 0001:000b72b0       ??_GCTypeLibCacheMap@@UAAPAXI@Z 000c82b0 f i uafxcwd:oletyplb.obj
 0001:000b72b0       ??_ECTypeLibCacheMap@@UAAPAXI@Z 000c82b0 f i uafxcwd:oletyplb.obj
 0001:000b72f4       ??1CTypeLibCacheMap@@UAA@XZ 000c82f4 f i uafxcwd:oletyplb.obj
 0001:000b7310       ?IsEqualGUID@@YAHABU_GUID@@0@Z 000c8310 f i uafxcwd:oletyplb.obj
 0001:000b736c       DeviceIoControl            000c836c f   coredll:COREDLL.dll
 0001:000b737c       SetLastError               000c837c f   coredll:COREDLL.dll
 0001:000b738c       GetLastError               000c838c f   coredll:COREDLL.dll
 0001:000b739c       SipShowIM                  000c839c f   coredll:COREDLL.dll
 0001:000b73ac       CloseHandle                000c83ac f   coredll:COREDLL.dll
 0001:000b73bc       FindClosePartition         000c83bc f   coredll:COREDLL.dll
 0001:000b73cc       FindNextPartition          000c83cc f   coredll:COREDLL.dll
 0001:000b73dc       FindFirstPartition         000c83dc f   coredll:COREDLL.dll
 0001:000b73ec       OpenStore                  000c83ec f   coredll:COREDLL.dll
 0001:000b73fc       FindCloseStore             000c83fc f   coredll:COREDLL.dll
 0001:000b740c       FindNextStore              000c840c f   coredll:COREDLL.dll
 0001:000b741c       FindFirstStore             000c841c f   coredll:COREDLL.dll
 0001:000b742c       CeGetVolumeInfoW           000c842c f   coredll:COREDLL.dll
 0001:000b743c       GetStoreInfo               000c843c f   coredll:COREDLL.dll
 0001:000b744c       GetPartitionInfo           000c844c f   coredll:COREDLL.dll
 0001:000b745c       FreeLibrary                000c845c f   coredll:COREDLL.dll
 0001:000b746c       GetProcAddressW            000c846c f   coredll:COREDLL.dll
 0001:000b747c       LoadLibraryW               000c847c f   coredll:COREDLL.dll
 0001:000b748c       MountPartition             000c848c f   coredll:COREDLL.dll
 0001:000b749c       DismountPartition          000c849c f   coredll:COREDLL.dll
 0001:000b74ac       OpenPartition              000c84ac f   coredll:COREDLL.dll
 0001:000b74bc       InterlockedDecrement       000c84bc f   coredll:COREDLL.dll
 0001:000b74cc       FindResourceW              000c84cc f   coredll:COREDLL.dll
 0001:000b74dc       SizeofResource             000c84dc f   coredll:COREDLL.dll
 0001:000b74ec       LoadResource               000c84ec f   coredll:COREDLL.dll
 0001:000b74fc       InterlockedIncrement       000c84fc f   coredll:COREDLL.dll
 0001:000b750c       NKDbgPrintfW               000c850c f   coredll:COREDLL.dll
 0001:000b751c       MultiByteToWideChar        000c851c f   coredll:COREDLL.dll
 0001:000b752c       WideCharToMultiByte        000c852c f   coredll:COREDLL.dll
 0001:000b753c       WriteFile                  000c853c f   coredll:COREDLL.dll
 0001:000b754c       SetEndOfFile               000c854c f   coredll:COREDLL.dll
 0001:000b755c       CreateFileW                000c855c f   coredll:COREDLL.dll
 0001:000b756c       GetModuleFileNameW         000c856c f   coredll:COREDLL.dll
 0001:000b757c       PostQuitMessage            000c857c f   coredll:COREDLL.dll
 0001:000b758c       PeekMessageW               000c858c f   coredll:COREDLL.dll
 0001:000b759c       UnregisterClassW           000c859c f   coredll:COREDLL.dll
 0001:000b75ac       DeleteCriticalSection      000c85ac f   coredll:COREDLL.dll
 0001:000b75bc       RaiseException             000c85bc f   coredll:COREDLL.dll
 0001:000b75cc       RegCloseKey                000c85cc f   coredll:COREDLL.dll
 0001:000b75dc       RegQueryValueExW           000c85dc f   coredll:COREDLL.dll
 0001:000b75ec       RegOpenKeyExW              000c85ec f   coredll:COREDLL.dll
 0001:000b75fc       ConvertDefaultLocale       000c85fc f   coredll:COREDLL.dll
 0001:000b760c       GetModuleHandleW           000c860c f   coredll:COREDLL.dll
 0001:000b761c       GetLocaleInfoW             000c861c f   coredll:COREDLL.dll
 0001:000b762c       LocalFree                  000c862c f   coredll:COREDLL.dll
 0001:000b763c       GlobalDeleteAtom           000c863c f   coredll:COREDLL.dll
 0001:000b764c       GetVersionExW              000c864c f   coredll:COREDLL.dll
 0001:000b765c       InterlockedExchange        000c865c f   coredll:COREDLL.dll
 0001:000b766c       MapDialogRect              000c866c f   coredll:COREDLL.dll
 0001:000b767c       IsWindow                   000c867c f   coredll:COREDLL.dll
 0001:000b768c       SendMessageW               000c868c f   coredll:COREDLL.dll
 0001:000b769c       GetFocus                   000c869c f   coredll:COREDLL.dll
 0001:000b76ac       SetMenuItemInfoW           000c86ac f   coredll:COREDLL.dll
 0001:000b76bc       WaitForSingleObject        000c86bc f   coredll:COREDLL.dll
 0001:000b76cc       DispatchMessageW           000c86cc f   coredll:COREDLL.dll
 0001:000b76dc       TranslateMessage           000c86dc f   coredll:COREDLL.dll
 0001:000b76ec       GetMessageW                000c86ec f   coredll:COREDLL.dll
 0001:000b76fc       EventModify                000c86fc f   coredll:COREDLL.dll
 0001:000b770c       ValidateRect               000c870c f   coredll:COREDLL.dll
 0001:000b771c       ExitThread                 000c871c f   coredll:COREDLL.dll
 0001:000b772c       GetCursorPos               000c872c f   coredll:COREDLL.dll
 0001:000b773c       SuspendThread              000c873c f   coredll:COREDLL.dll
 0001:000b774c       CreateThread               000c874c f   coredll:COREDLL.dll
 0001:000b775c       CreateEventW               000c875c f   coredll:COREDLL.dll
 0001:000b776c       GetKeyState                000c876c f   coredll:COREDLL.dll
 0001:000b777c       RegEnumKeyExW              000c877c f   coredll:COREDLL.dll
 0001:000b778c       RegDeleteKeyW              000c878c f   coredll:COREDLL.dll
 0001:000b779c       SetCursor                  000c879c f   coredll:COREDLL.dll
 0001:000b77ac       MessageBoxW                000c87ac f   coredll:COREDLL.dll
 0001:000b77bc       EnableWindow               000c87bc f   coredll:COREDLL.dll
 0001:000b77cc       IsWindowEnabled            000c87cc f   coredll:COREDLL.dll
 0001:000b77dc       GetParent                  000c87dc f   coredll:COREDLL.dll
 0001:000b77ec       GetWindowLongW             000c87ec f   coredll:COREDLL.dll
 0001:000b77fc       GetActiveWindow            000c87fc f   coredll:COREDLL.dll
 0001:000b780c       GetDlgItem                 000c880c f   coredll:COREDLL.dll
 0001:000b781c       SetFocus                   000c881c f   coredll:COREDLL.dll
 0001:000b782c       GetAsyncKeyState           000c882c f   coredll:COREDLL.dll
 0001:000b783c       SetActiveWindow            000c883c f   coredll:COREDLL.dll
 0001:000b784c       GetCapture                 000c884c f   coredll:COREDLL.dll
 0001:000b785c       SetWindowLongW             000c885c f   coredll:COREDLL.dll
 0001:000b786c       GetSystemMetrics           000c886c f   coredll:COREDLL.dll
 0001:000b787c       RegCreateKeyExW            000c887c f   coredll:COREDLL.dll
 0001:000b788c       RegSetValueExW             000c888c f   coredll:COREDLL.dll
 0001:000b789c       RegDeleteValueW            000c889c f   coredll:COREDLL.dll
 0001:000b78ac       PostMessageW               000c88ac f   coredll:COREDLL.dll
 0001:000b78bc       DrawMenuBar                000c88bc f   coredll:COREDLL.dll
 0001:000b78cc       SetWindowRgn               000c88cc f   coredll:COREDLL.dll
 0001:000b78dc       GetWindowRgn               000c88dc f   coredll:COREDLL.dll
 0001:000b78ec       BringWindowToTop           000c88ec f   coredll:COREDLL.dll
 0001:000b78fc       GetWindowRect              000c88fc f   coredll:COREDLL.dll
 0001:000b790c       GetClientRect              000c890c f   coredll:COREDLL.dll
 0001:000b791c       MapWindowPoints            000c891c f   coredll:COREDLL.dll
 0001:000b792c       ClientToScreen             000c892c f   coredll:COREDLL.dll
 0001:000b793c       ScreenToClient             000c893c f   coredll:COREDLL.dll
 0001:000b794c       BeginPaint                 000c894c f   coredll:COREDLL.dll
 0001:000b795c       EndPaint                   000c895c f   coredll:COREDLL.dll
 0001:000b796c       GetDC                      000c896c f   coredll:COREDLL.dll
 0001:000b797c       GetWindowDC                000c897c f   coredll:COREDLL.dll
 0001:000b798c       ReleaseDC                  000c898c f   coredll:COREDLL.dll
 0001:000b799c       UpdateWindow               000c899c f   coredll:COREDLL.dll
 0001:000b79ac       GetUpdateRect              000c89ac f   coredll:COREDLL.dll
 0001:000b79bc       GetUpdateRgn               000c89bc f   coredll:COREDLL.dll
 0001:000b79cc       InvalidateRect             000c89cc f   coredll:COREDLL.dll
 0001:000b79dc       InvalidateRgn              000c89dc f   coredll:COREDLL.dll
 0001:000b79ec       ValidateRgn                000c89ec f   coredll:COREDLL.dll
 0001:000b79fc       IsWindowVisible            000c89fc f   coredll:COREDLL.dll
 0001:000b7a0c       GetDCEx                    000c8a0c f   coredll:COREDLL.dll
 0001:000b7a1c       SetTimer                   000c8a1c f   coredll:COREDLL.dll
 0001:000b7a2c       KillTimer                  000c8a2c f   coredll:COREDLL.dll
 0001:000b7a3c       SetCapture                 000c8a3c f   coredll:COREDLL.dll
 0001:000b7a4c       GetDesktopWindow           000c8a4c f   coredll:COREDLL.dll
 0001:000b7a5c       GetNextDlgGroupItem        000c8a5c f   coredll:COREDLL.dll
 0001:000b7a6c       GetNextDlgTabItem          000c8a6c f   coredll:COREDLL.dll
 0001:000b7a7c       ChildWindowFromPoint       000c8a7c f   coredll:COREDLL.dll
 0001:000b7a8c       FindWindowW                000c8a8c f   coredll:COREDLL.dll
 0001:000b7a9c       GetWindow                  000c8a9c f   coredll:COREDLL.dll
 0001:000b7aac       IsChild                    000c8aac f   coredll:COREDLL.dll
 0001:000b7abc       SetParent                  000c8abc f   coredll:COREDLL.dll
 0001:000b7acc       WindowFromPoint            000c8acc f   coredll:COREDLL.dll
 0001:000b7adc       OpenClipboard              000c8adc f   coredll:COREDLL.dll
 0001:000b7aec       GetOpenClipboardWindow     000c8aec f   coredll:COREDLL.dll
 0001:000b7afc       GetClipboardOwner          000c8afc f   coredll:COREDLL.dll
 0001:000b7b0c       CreateCaret                000c8b0c f   coredll:COREDLL.dll
 0001:000b7b1c       GetCaretPos                000c8b1c f   coredll:COREDLL.dll
 0001:000b7b2c       SetCaretPos                000c8b2c f   coredll:COREDLL.dll
 0001:000b7b3c       HideCaret                  000c8b3c f   coredll:COREDLL.dll
 0001:000b7b4c       ShowCaret                  000c8b4c f   coredll:COREDLL.dll
 0001:000b7b5c       SetForegroundWindow        000c8b5c f   coredll:COREDLL.dll
 0001:000b7b6c       GetForegroundWindow        000c8b6c f   coredll:COREDLL.dll
 0001:000b7b7c       SendNotifyMessageW         000c8b7c f   coredll:COREDLL.dll
 0001:000b7b8c       GetScrollInfo              000c8b8c f   coredll:COREDLL.dll
 0001:000b7b9c       SetScrollPos               000c8b9c f   coredll:COREDLL.dll
 0001:000b7bac       SetScrollRange             000c8bac f   coredll:COREDLL.dll
 0001:000b7bbc       ShowWindow                 000c8bbc f   coredll:COREDLL.dll
 0001:000b7bcc       SetThreadPriority          000c8bcc f   coredll:COREDLL.dll
 0001:000b7bdc       GetThreadPriority          000c8bdc f   coredll:COREDLL.dll
 0001:000b7bec       ResumeThread               000c8bec f   coredll:COREDLL.dll
 0001:000b7bfc       PostThreadMessageW         000c8bfc f   coredll:COREDLL.dll
 0001:000b7c0c       LoadCursorW                000c8c0c f   coredll:COREDLL.dll
 0001:000b7c1c       LoadIconW                  000c8c1c f   coredll:COREDLL.dll
 0001:000b7c2c       GetObjectW                 000c8c2c f   coredll:COREDLL.dll
 0001:000b7c3c       GetStockObject             000c8c3c f   coredll:COREDLL.dll
 0001:000b7c4c       GetObjectType              000c8c4c f   coredll:COREDLL.dll
 0001:000b7c5c       CreatePen                  000c8c5c f   coredll:COREDLL.dll
 0001:000b7c6c       CreatePenIndirect          000c8c6c f   coredll:COREDLL.dll
 0001:000b7c7c       CreateSolidBrush           000c8c7c f   coredll:COREDLL.dll
 0001:000b7c8c       CreatePatternBrush         000c8c8c f   coredll:COREDLL.dll
 0001:000b7c9c       CreateDIBPatternBrushPt    000c8c9c f   coredll:COREDLL.dll
 0001:000b7cac       GetSysColorBrush           000c8cac f   coredll:COREDLL.dll
 0001:000b7cbc       CreateFontIndirectW        000c8cbc f   coredll:COREDLL.dll
 0001:000b7ccc       CreateBitmap               000c8ccc f   coredll:COREDLL.dll
 0001:000b7cdc       LoadBitmapW                000c8cdc f   coredll:COREDLL.dll
 0001:000b7cec       CreateCompatibleBitmap     000c8cec f   coredll:COREDLL.dll
 0001:000b7cfc       CreatePalette              000c8cfc f   coredll:COREDLL.dll
 0001:000b7d0c       GetPaletteEntries          000c8d0c f   coredll:COREDLL.dll
 0001:000b7d1c       SetPaletteEntries          000c8d1c f   coredll:COREDLL.dll
 0001:000b7d2c       GetNearestPaletteIndex     000c8d2c f   coredll:COREDLL.dll
 0001:000b7d3c       CreateRectRgn              000c8d3c f   coredll:COREDLL.dll
 0001:000b7d4c       CreateRectRgnIndirect      000c8d4c f   coredll:COREDLL.dll
 0001:000b7d5c       ExtCreateRegion            000c8d5c f   coredll:COREDLL.dll
 0001:000b7d6c       GetRegionData              000c8d6c f   coredll:COREDLL.dll
 0001:000b7d7c       SetRectRgn                 000c8d7c f   coredll:COREDLL.dll
 0001:000b7d8c       CombineRgn                 000c8d8c f   coredll:COREDLL.dll
 0001:000b7d9c       EqualRgn                   000c8d9c f   coredll:COREDLL.dll
 0001:000b7dac       OffsetRgn                  000c8dac f   coredll:COREDLL.dll
 0001:000b7dbc       GetRgnBox                  000c8dbc f   coredll:COREDLL.dll
 0001:000b7dcc       PtInRegion                 000c8dcc f   coredll:COREDLL.dll
 0001:000b7ddc       RectInRegion               000c8ddc f   coredll:COREDLL.dll
 0001:000b7dec       CreateDCW                  000c8dec f   coredll:COREDLL.dll
 0001:000b7dfc       CreateCompatibleDC         000c8dfc f   coredll:COREDLL.dll
 0001:000b7e0c       GetDeviceCaps              000c8e0c f   coredll:COREDLL.dll
 0001:000b7e1c       SetBrushOrgEx              000c8e1c f   coredll:COREDLL.dll
 0001:000b7e2c       SelectObject               000c8e2c f   coredll:COREDLL.dll
 0001:000b7e3c       GetNearestColor            000c8e3c f   coredll:COREDLL.dll
 0001:000b7e4c       RealizePalette             000c8e4c f   coredll:COREDLL.dll
 0001:000b7e5c       GetBkColor                 000c8e5c f   coredll:COREDLL.dll
 0001:000b7e6c       GetBkMode                  000c8e6c f   coredll:COREDLL.dll
 0001:000b7e7c       GetTextColor               000c8e7c f   coredll:COREDLL.dll
 0001:000b7e8c       FillRgn                    000c8e8c f   coredll:COREDLL.dll
 0001:000b7e9c       RectVisible                000c8e9c f   coredll:COREDLL.dll
 0001:000b7eac       GetCurrentPositionEx       000c8eac f   coredll:COREDLL.dll
 0001:000b7ebc       Polyline                   000c8ebc f   coredll:COREDLL.dll
 0001:000b7ecc       GetCurrentObject           000c8ecc f   coredll:COREDLL.dll
 0001:000b7edc       FillRect                   000c8edc f   coredll:COREDLL.dll
 0001:000b7eec       InvertRect                 000c8eec f   coredll:COREDLL.dll
 0001:000b7efc       DrawEdge                   000c8efc f   coredll:COREDLL.dll
 0001:000b7f0c       DrawFrameControl           000c8f0c f   coredll:COREDLL.dll
 0001:000b7f1c       DrawFocusRect              000c8f1c f   coredll:COREDLL.dll
 0001:000b7f2c       Ellipse                    000c8f2c f   coredll:COREDLL.dll
 0001:000b7f3c       Polygon                    000c8f3c f   coredll:COREDLL.dll
 0001:000b7f4c       Rectangle                  000c8f4c f   coredll:COREDLL.dll
 0001:000b7f5c       RoundRect                  000c8f5c f   coredll:COREDLL.dll
 0001:000b7f6c       PatBlt                     000c8f6c f   coredll:COREDLL.dll
 0001:000b7f7c       BitBlt                     000c8f7c f   coredll:COREDLL.dll
 0001:000b7f8c       StretchBlt                 000c8f8c f   coredll:COREDLL.dll
 0001:000b7f9c       GetPixel                   000c8f9c f   coredll:COREDLL.dll
 0001:000b7fac       SetPixel                   000c8fac f   coredll:COREDLL.dll
 0001:000b7fbc       ExtTextOutW                000c8fbc f   coredll:COREDLL.dll
 0001:000b7fcc       DrawIconEx                 000c8fcc f   coredll:COREDLL.dll
 0001:000b7fdc       DrawTextW                  000c8fdc f   coredll:COREDLL.dll
 0001:000b7fec       GetTextExtentExPointW      000c8fec f   coredll:COREDLL.dll
 0001:000b7ffc       GetTextAlign               000c8ffc f   coredll:COREDLL.dll
 0001:000b800c       GetTextFaceW               000c900c f   coredll:COREDLL.dll
 0001:000b801c       GetTextMetricsW            000c901c f   coredll:COREDLL.dll
 0001:000b802c       ScrollDC                   000c902c f   coredll:COREDLL.dll
 0001:000b803c       GetCharABCWidths           000c903c f   coredll:COREDLL.dll
 0001:000b804c       MaskBlt                    000c904c f   coredll:COREDLL.dll
 0001:000b805c       CreateMenu                 000c905c f   coredll:COREDLL.dll
 0001:000b806c       CreatePopupMenu            000c906c f   coredll:COREDLL.dll
 0001:000b807c       GetMenuItemInfoW           000c907c f   coredll:COREDLL.dll
 0001:000b808c       SetRect                    000c908c f   coredll:COREDLL.dll
 0001:000b809c       DeleteMenu                 000c909c f   coredll:COREDLL.dll
 0001:000b80ac       AppendMenuW                000c90ac f   coredll:COREDLL.dll
 0001:000b80bc       CheckMenuItem              000c90bc f   coredll:COREDLL.dll
 0001:000b80cc       EnableMenuItem             000c90cc f   coredll:COREDLL.dll
 0001:000b80dc       GetSubMenu                 000c90dc f   coredll:COREDLL.dll
 0001:000b80ec       InsertMenuW                000c90ec f   coredll:COREDLL.dll
 0001:000b80fc       RemoveMenu                 000c90fc f   coredll:COREDLL.dll
 0001:000b810c       LoadMenuW                  000c910c f   coredll:COREDLL.dll
 0001:000b811c       CheckMenuRadioItem         000c911c f   coredll:COREDLL.dll
 0001:000b812c       SetWindowPos               000c912c f   coredll:COREDLL.dll
 0001:000b813c       GetMessagePos              000c913c f   coredll:COREDLL.dll
 0001:000b814c       DefWindowProcW             000c914c f   coredll:COREDLL.dll
 0001:000b815c       CreateWindowExW            000c915c f   coredll:COREDLL.dll
 0001:000b816c       GetClassInfoW              000c916c f   coredll:COREDLL.dll
 0001:000b817c       DestroyWindow              000c917c f   coredll:COREDLL.dll
 0001:000b818c       CallWindowProcW            000c918c f   coredll:COREDLL.dll
 0001:000b819c       GetWindowTextW             000c919c f   coredll:COREDLL.dll
 0001:000b81ac       GetWindowTextLengthW       000c91ac f   coredll:COREDLL.dll
 0001:000b81bc       TrackPopupMenuEx           000c91bc f   coredll:COREDLL.dll
 0001:000b81cc       RegisterClassW             000c91cc f   coredll:COREDLL.dll
 0001:000b81dc       GetDlgCtrlID               000c91dc f   coredll:COREDLL.dll
 0001:000b81ec       SetScrollInfo              000c91ec f   coredll:COREDLL.dll
 0001:000b81fc       ScrollWindowEx             000c91fc f   coredll:COREDLL.dll
 0001:000b820c       CopyRect                   000c920c f   coredll:COREDLL.dll
 0001:000b821c       EqualRect                  000c921c f   coredll:COREDLL.dll
 0001:000b822c       AdjustWindowRectEx         000c922c f   coredll:COREDLL.dll
 0001:000b823c       SetTextColor               000c923c f   coredll:COREDLL.dll
 0001:000b824c       GetSysColor                000c924c f   coredll:COREDLL.dll
 0001:000b825c       SetBkColor                 000c925c f   coredll:COREDLL.dll
 0001:000b826c       GetProcessIndexFromID      000c926c f   coredll:COREDLL.dll
 0001:000b827c       CheckRadioButton           000c927c f   coredll:COREDLL.dll
 0001:000b828c       GetDlgItemInt              000c928c f   coredll:COREDLL.dll
 0001:000b829c       GetDlgItemTextW            000c929c f   coredll:COREDLL.dll
 0001:000b82ac       SendDlgItemMessageW        000c92ac f   coredll:COREDLL.dll
 0001:000b82bc       SetDlgItemInt              000c92bc f   coredll:COREDLL.dll
 0001:000b82cc       SetDlgItemTextW            000c92cc f   coredll:COREDLL.dll
 0001:000b82dc       IsDialogMessageW           000c92dc f   coredll:COREDLL.dll
 0001:000b82ec       SetWindowTextW             000c92ec f   coredll:COREDLL.dll
 0001:000b82fc       MoveWindow                 000c92fc f   coredll:COREDLL.dll
 0001:000b830c       OffsetRect                 000c930c f   coredll:COREDLL.dll
 0001:000b831c       GetClassNameW              000c931c f   coredll:COREDLL.dll
 0001:000b832c       DefDlgProcW                000c932c f   coredll:COREDLL.dll
 0001:000b833c       CreateDialogIndirectParamW 000c933c f   coredll:COREDLL.dll
 0001:000b834c       EndDialog                  000c934c f   coredll:COREDLL.dll
 0001:000b835c       EndDeferWindowPos          000c935c f   coredll:COREDLL.dll
 0001:000b836c       DeferWindowPos             000c936c f   coredll:COREDLL.dll
 0001:000b837c       BeginDeferWindowPos        000c937c f   coredll:COREDLL.dll
 0001:000b838c       DeleteObject               000c938c f   coredll:COREDLL.dll
 0001:000b839c       DestroyIcon                000c939c f   coredll:COREDLL.dll
 0001:000b83ac       wsprintfW                  000c93ac f   coredll:COREDLL.dll
 0001:000b83bc       FormatMessageW             000c93bc f   coredll:COREDLL.dll
 0001:000b83cc       LocalAlloc                 000c93cc f   coredll:COREDLL.dll
 0001:000b83dc       LocalSize                  000c93dc f   coredll:COREDLL.dll
 0001:000b83ec       CopyFileW                  000c93ec f   coredll:COREDLL.dll
 0001:000b83fc       GetSaveFileNameW           000c93fc f   coredll:COREDLL.dll
 0001:000b840c       GetOpenFileNameW           000c940c f   coredll:COREDLL.dll
 0001:000b841c       lstrcmpiW                  000c941c f   coredll:COREDLL.dll
 0001:000b842c       SystemParametersInfoW      000c942c f   coredll:COREDLL.dll
 0001:000b843c       DeleteDC                   000c943c f   coredll:COREDLL.dll
 0001:000b844c       SaveDC                     000c944c f   coredll:COREDLL.dll
 0001:000b845c       RestoreDC                  000c945c f   coredll:COREDLL.dll
 0001:000b846c       SelectPalette              000c946c f   coredll:COREDLL.dll
 0001:000b847c       SetBkMode                  000c947c f   coredll:COREDLL.dll
 0001:000b848c       SetROP2                    000c948c f   coredll:COREDLL.dll
 0001:000b849c       GetClipBox                 000c949c f   coredll:COREDLL.dll
 0001:000b84ac       SelectClipRgn              000c94ac f   coredll:COREDLL.dll
 0001:000b84bc       ExcludeClipRect            000c94bc f   coredll:COREDLL.dll
 0001:000b84cc       IntersectClipRect          000c94cc f   coredll:COREDLL.dll
 0001:000b84dc       MoveToEx                   000c94dc f   coredll:COREDLL.dll
 0001:000b84ec       LineTo                     000c94ec f   coredll:COREDLL.dll
 0001:000b84fc       SetTextAlign               000c94fc f   coredll:COREDLL.dll
 0001:000b850c       GetClipRgn                 000c950c f   coredll:COREDLL.dll
 0001:000b851c       InitializeCriticalSection  000c951c f   coredll:COREDLL.dll
 0001:000b852c       LeaveCriticalSection       000c952c f   coredll:COREDLL.dll
 0001:000b853c       LocalReAlloc               000c953c f   coredll:COREDLL.dll
 0001:000b854c       EnterCriticalSection       000c954c f   coredll:COREDLL.dll
 0001:000b855c       TlsCall                    000c955c f   coredll:COREDLL.dll
 0001:000b856c       TlsSetValue                000c956c f   coredll:COREDLL.dll
 0001:000b857c       TlsGetValue                000c957c f   coredll:COREDLL.dll
 0001:000b858c       RegisterWindowMessageW     000c958c f   coredll:COREDLL.dll
 0001:000b859c       ImageList_Add              000c959c f   coredll:COREDLL.dll
 0001:000b85ac       ImageList_GetImageCount    000c95ac f   coredll:COREDLL.dll
 0001:000b85bc       SetRectEmpty               000c95bc f   coredll:COREDLL.dll
 0001:000b85cc       ReleaseCapture             000c95cc f   coredll:COREDLL.dll
 0001:000b85dc       lstrcmpW                   000c95dc f   coredll:COREDLL.dll
 0001:000b85ec       CompareStringW             000c95ec f   coredll:COREDLL.dll
 0001:000b85fc       GetClipboardFormatNameW    000c95fc f   coredll:COREDLL.dll
 0001:000b860c       ExtractIconExW             000c960c f   coredll:COREDLL.dll
 0001:000b861c       GetDialogBaseUnits         000c961c f   coredll:COREDLL.dll
 0001:000b862c       EnumFontFamiliesW          000c962c f   coredll:COREDLL.dll
 0001:000b863c       DestroyMenu                000c963c f   coredll:COREDLL.dll
 0001:000b864c       LoadAcceleratorsW          000c964c f   coredll:COREDLL.dll
 0001:000b865c       TranslateAcceleratorW      000c965c f   coredll:COREDLL.dll
 0001:000b866c       GetWindowThreadProcessId   000c966c f   coredll:COREDLL.dll
 0001:000b867c       FileTimeToSystemTime       000c967c f   coredll:COREDLL.dll
 0001:000b868c       SystemTimeToFileTime       000c968c f   coredll:COREDLL.dll
 0001:000b869c       GetSystemDefaultLCID       000c969c f   coredll:COREDLL.dll
 0001:000b86ac       GetFileAttributesW         000c96ac f   coredll:COREDLL.dll
 0001:000b86bc       SHGetSpecialFolderPath     000c96bc f   coredll:COREDLL.dll
 0001:000b86cc       ReadFile                   000c96cc f   coredll:COREDLL.dll
 0001:000b86dc       SetFilePointer             000c96dc f   coredll:COREDLL.dll
 0001:000b86ec       FlushFileBuffers           000c96ec f   coredll:COREDLL.dll
 0001:000b86fc       GetFileSize                000c96fc f   coredll:COREDLL.dll
 0001:000b870c       MoveFileW                  000c970c f   coredll:COREDLL.dll
 0001:000b871c       DeleteFileW                000c971c f   coredll:COREDLL.dll
 0001:000b872c       IsClipboardFormatAvailable 000c972c f   coredll:COREDLL.dll
 0001:000b873c       MessageBeep                000c973c f   coredll:COREDLL.dll
 0001:000b874c       GetFileTime                000c974c f   coredll:COREDLL.dll
 0001:000b875c       FindClose                  000c975c f   coredll:COREDLL.dll
 0001:000b876c       FindFirstFileW             000c976c f   coredll:COREDLL.dll
 0001:000b877c       LocalFileTimeToFileTime    000c977c f   coredll:COREDLL.dll
 0001:000b878c       SetFileTime                000c978c f   coredll:COREDLL.dll
 0001:000b879c       SetFileAttributesW         000c979c f   coredll:COREDLL.dll
 0001:000b87ac       CommandBar_Show            000c97ac f   commctrl:commctrl.dll
 0001:000b87bc       CommandBar_Height          000c97bc f   commctrl:commctrl.dll
 0001:000b87cc       CommandBar_AddAdornments   000c97cc f   commctrl:commctrl.dll
 0001:000b87dc       CommandBar_AddBitmap       000c97dc f   commctrl:commctrl.dll
 0001:000b87ec       CommandBar_DrawMenuBar     000c97ec f   commctrl:commctrl.dll
 0001:000b87fc       CommandBar_InsertComboBox  000c97fc f   commctrl:commctrl.dll
 0001:000b880c       CommandBar_GetMenu         000c980c f   commctrl:commctrl.dll
 0001:000b881c       CommandBar_InsertMenubarEx 000c981c f   commctrl:commctrl.dll
 0001:000b882c       Parse_Cmdline              000c982c f   atlosapis:argvw.obj
 0001:000b8a54       CommandLineToArgvW         000c9a54 f   atlosapis:argvw.obj
 0001:000b8c14       WinMainCRTStartup          000c9c14 f   corelibc:pegwmain.obj
 0001:000b8c48       ??3@YAXPAX@Z               000c9c48 f   corelibc:COREDLL.dll
 0001:000b8c58       memset                     000c9c58 f   corelibc:COREDLL.dll
 0001:000b8c68       __security_init_cookie     000c9c68 f   corelibc:seccinit.obj
 0001:000b8cc4       __CxxFrameHandler3         000c9cc4 f   corelibc:COREDLL.dll
 0001:000b8cd4       __GSHandlerCheck_EH        000c9cd4 f   corelibc:gshandlereh.obj
 0001:000b8d50       __security_check_cookie    000c9d50 f   corelibc:armsecgs.obj
 0001:000b8d64       __gsfailure                000c9d64 f   corelibc:armsecgs.obj
 0001:000b8da8       _onexit                    000c9da8 f   corelibc:onexit.obj
 0001:000b8e78       atexit                     000c9e78 f   corelibc:onexit.obj
 0001:000b8e98       __GSHandlerCheckCommon     000c9e98 f   corelibc:gshandler.obj
 0001:000b8ed4       __GSHandlerCheck           000c9ed4 f   corelibc:gshandler.obj
 0001:000b8ef8       swprintf                   000c9ef8 f   corelibc:COREDLL.dll
 0001:000b8f08       __rt_udiv                  000c9f08 f   corelibc:COREDLL.dll
 0001:000b8f18       ??2@YAPAXI@Z               000c9f18 f   corelibc:COREDLL.dll
 0001:000b8f28       memcpy                     000c9f28 f   corelibc:COREDLL.dll
 0001:000b8f38       wcsstr                     000c9f38 f   corelibc:COREDLL.dll
 0001:000b8f48       strstr                     000c9f48 f   corelibc:COREDLL.dll
 0001:000b8f58       wcscmp                     000c9f58 f   corelibc:COREDLL.dll
 0001:000b8f68       strlen                     000c9f68 f   corelibc:COREDLL.dll
 0001:000b8f78       ?_Xlen@std@@YAXXZ          000c9f78 f   corelibc:COREDLL.dll
 0001:000b8f88       _vsnwprintf                000c9f88 f   corelibc:COREDLL.dll
 0001:000b8f98       wcslen                     000c9f98 f   corelibc:COREDLL.dll
 0001:000b8fa8       wcscpy_s                   000c9fa8 f   corelibc:COREDLL.dll
 0001:000b8fb8       memcpy_s                   000c9fb8 f   corelibc:COREDLL.dll
 0001:000b8fc8       memmove_s                  000c9fc8 f   corelibc:COREDLL.dll
 0001:000b8fd8       wcsncpy                    000c9fd8 f   corelibc:COREDLL.dll
 0001:000b8fe8       _snwprintf                 000c9fe8 f   corelibc:COREDLL.dll
 0001:000b8ff8       __i64tod                   000c9ff8 f   corelibc:COREDLL.dll
 0001:000b9008       __ged                      000ca008 f   corelibc:COREDLL.dll
 0001:000b9018       __divd                     000ca018 f   corelibc:COREDLL.dll
 0001:000b9028       fclose                     000ca028 f   corelibc:COREDLL.dll
 0001:000b9038       fwrite                     000ca038 f   corelibc:COREDLL.dll
 0001:000b9048       fopen                      000ca048 f   corelibc:COREDLL.dll
 0001:000b9058       memcmp                     000ca058 f   corelibc:COREDLL.dll
 0001:000b9068       _wcsupr                    000ca068 f   corelibc:COREDLL.dll
 0001:000b9078       wcscpy                     000ca078 f   corelibc:COREDLL.dll
 0001:000b9088       __rt_sdiv                  000ca088 f   corelibc:COREDLL.dll
 0001:000b9098       wcsncmp                    000ca098 f   corelibc:COREDLL.dll
 0001:000b90a8       free                       000ca0a8 f   corelibc:COREDLL.dll
 0001:000b90b8       swscanf                    000ca0b8 f   corelibc:COREDLL.dll
 0001:000b90c8       _wcsdup                    000ca0c8 f   corelibc:COREDLL.dll
 0001:000b90d8       ??_7type_info@@6B@         000ca0d8 f   corelibc:COREDLL.dll
 0001:000b90e8       _wcsicmp                   000ca0e8 f   corelibc:COREDLL.dll
 0001:000b90f8       _purecall                  000ca0f8 f   corelibc:COREDLL.dll
 0001:000b9108       malloc                     000ca108 f   corelibc:COREDLL.dll
 0001:000b9118       realloc                    000ca118 f   corelibc:COREDLL.dll
 0001:000b9128       abs                        000ca128 f   corelibc:COREDLL.dll
 0001:000b9138       wcsncpy_s                  000ca138 f   corelibc:COREDLL.dll
 0001:000b9148       _wcsnicmp                  000ca148 f   corelibc:COREDLL.dll
 0001:000b9158       __CxxThrowException        000ca158 f   corelibc:COREDLL.dll
 0001:000b9168       __rt_sdiv64by64            000ca168 f   corelibc:COREDLL.dll
 0001:000b9178       wcschr                     000ca178 f   corelibc:COREDLL.dll
 0001:000b9188       ??_M@YAXPAXIHP6AX0@Z@Z     000ca188 f   corelibc:COREDLL.dll
 0001:000b9198       strcmp                     000ca198 f   corelibc:COREDLL.dll
 0001:000b91a8       calloc                     000ca1a8 f   corelibc:COREDLL.dll
 0001:000b91b8       ??_L@YAXPAXIHP6AX0@Z1@Z    000ca1b8 f   corelibc:COREDLL.dll
 0001:000b91c8       _wtol                      000ca1c8 f   corelibc:COREDLL.dll
 0001:000b91d8       _msize                     000ca1d8 f   corelibc:COREDLL.dll
 0001:000b91e8       wcsrchr                    000ca1e8 f   corelibc:COREDLL.dll
 0001:000b91f8       __eqs                      000ca1f8 f   corelibc:COREDLL.dll
 0001:000b9208       __eqd                      000ca208 f   corelibc:COREDLL.dll
 0001:000b9218       __divs                     000ca218 f   corelibc:COREDLL.dll
 0001:000b9228       __stou                     000ca228 f   corelibc:COREDLL.dll
 0001:000b9238       __dtou                     000ca238 f   corelibc:COREDLL.dll
 0001:000b9248       __itod                     000ca248 f   corelibc:COREDLL.dll
 0001:000b9258       __muld                     000ca258 f   corelibc:COREDLL.dll
 0001:000b9268       __dtoi                     000ca268 f   corelibc:COREDLL.dll
 0001:000b9278       wcscat_s                   000ca278 f   corelibc:COREDLL.dll
 0001:000b9288       _itow_s                    000ca288 f   corelibc:COREDLL.dll
 0001:000b9298       __C_specific_handler       000ca298 f   corelibc:COREDLL.dll
 0001:000b92a8       __dtos                     000ca2a8 f   corelibc:COREDLL.dll
 0001:000b92b8       __rt_udiv64by64            000ca2b8 f   corelibc:COREDLL.dll
 0001:000b92c8       _XcptFilter                000ca2c8 f   corelibc:COREDLL.dll
 0001:000b93a0       exit                       000ca3a0 f   corelibc:cexit.obj
 0001:000b93b8       _exit                      000ca3b8 f   corelibc:cexit.obj
 0001:000b93f8       _cexit                     000ca3f8 f   corelibc:cexit.obj
 0001:000b9414       _c_exit                    000ca414 f   corelibc:cexit.obj
 0001:000b9444       _initterm                  000ca444 f   corelibc:crt0dat.obj
 0001:000b9478       _cinit                     000ca478 f   corelibc:crt0dat.obj
 0001:000b94ac       __security_gen_cookie2     000ca4ac f   corelibc:COREDLL.dll
 0001:000b94bc       __report_gsfailure         000ca4bc f   corelibc:COREDLL.dll
 0001:000b94d4       _CrtSetReportHookT2        000ca4d4 f   LIBCMTD:dbgrpt.obj
 0001:000b99a0       _CrtDbgReportW             000ca9a0 f   LIBCMTD:dbgrpt.obj
 0001:000b9a18       _CrtDbgReportTV            000caa18 f i LIBCMTD:dbgrpt.obj
 0001:000b9a74       __crtMessageWindowW        000caa74 f   LIBCMTD:dbgrpt.obj
 0001:000ba14c       _invoke_watson_if_error    000cb14c f i LIBCMTD:dbgrpt.obj
 0001:000ba1a0       _wsplitpath_s              000cb1a0 f   LIBCMTD:wsplitpath_s.obj
 0001:000bab14       _wmakepath_s               000cbb14 f   LIBCMTD:wmakepath_s.obj
 0001:000bb088       _mtinitlocks               000cc088 f   LIBCMTD:mlock.obj
 0001:000bb1a0       _mtdeletelocks             000cc1a0 f   LIBCMTD:mlock.obj
 0001:000bb324       _mtinitlocknum             000cc324 f   LIBCMTD:mlock.obj
 0001:000bb48c       _lock                      000cc48c f   LIBCMTD:mlock.obj
 0001:000bb588       _unlock                    000cc588 f   LIBCMTD:mlock.obj
 0001:000bb5c8       _lockerr_exit              000cc5c8 f   LIBCMTD:mlock.obj
 0001:000bb5f0       _CrtDbgBreak               000cc5f0 f   LIBCMTD:dbgrptt.obj
 0001:000bb5f8       _CrtSetReportMode          000cc5f8 f   LIBCMTD:dbgrptt.obj
 0001:000bb820       _CrtSetReportFile          000cc820 f   LIBCMTD:dbgrptt.obj
 0001:000bb9bc       _CrtSetReportHook          000cc9bc f   LIBCMTD:dbgrptt.obj
 0001:000bba00       _CrtGetReportHook          000cca00 f   LIBCMTD:dbgrptt.obj
 0001:000bba28       _VCrtDbgReportW            000cca28 f   LIBCMTD:dbgrptt.obj
 0001:000bc5e0       _invalid_parameter         000cd5e0 f   LIBCMTD:invarginternal.obj
 0001:000bc624       __crtMessageBoxW           000cd624 f   LIBCMTD:crtmbox.obj
 0001:000bc888       _invoke_watson             000cd888 f   LIBCMTD:invarg.obj
 0001:000bc8bc       _initp_misc_initcrit       000cd8bc f   LIBCMTD:initcrit.obj
 0001:000bc8e8       __crtInitCritSecAndSpinCount 000cd8e8 f   LIBCMTD:initcrit.obj
 0001:000bca18       _amsg_exit                 000cda18 f   LIBCMTD:crt0dat.obj
 0001:000bca44       __crtExitProcess           000cda44 f   LIBCMTD:crt0dat.obj
 0001:000bca8c       strcpy_s                   000cda8c f   LIBCMTD:strcpy_s.obj
 0001:000bcee0       _encode_pointer            000cdee0 f   LIBCMTD:tidtable.obj
 0001:000bcf08       _encoded_null              000cdf08 f   LIBCMTD:tidtable.obj
 0001:000bcf40       _decode_pointer            000cdf40 f   LIBCMTD:tidtable.obj
 0001:000bcf68       ??0CAtlAllocator@@QAA@XZ   000cdf68 f i atlsd:Externs.obj
 0001:000bcff8       ??0CTraceSnapshot@@QAA@XZ  000cdff8 f i atlsd:Externs.obj
 0001:000bd054       ??0?$CSimpleArray@UCModuleInfo@CTraceSnapshot@@V?$CSimpleArrayEqualHelper@UCModuleInfo@CTraceSnapshot@@@ATL@@@ATL@@QAA@XZ 000ce054 f i atlsd:Externs.obj
 0001:000bd0a8       ??0?$CSimpleArray@KV?$CSimpleArrayEqualHelper@K@ATL@@@ATL@@QAA@XZ 000ce0a8 f i atlsd:Externs.obj
 0001:000bd26c       ??0CAtlException@ATL@@QAA@J@Z 000ce26c f i atlsd:Externs.obj
 0001:000bd2a0       ??0CTrace@ATL@@AAA@P6AHHPB_WH00ZZ@Z 000ce2a0 f i atlsd:Externs.obj
 0001:000bd328       ?_AtlGetThisModuleHandle@ATL@@YAPAUHINSTANCE__@@XZ 000ce328 f i atlsd:Externs.obj
 0001:000bd388       ??1CAtlAllocator@@QAA@XZ   000ce388 f i atlsd:Externs.obj
 0001:000bd3c8       ??1CTraceSnapshot@@QAA@XZ  000ce3c8 f i atlsd:Externs.obj
 0001:000bd408       ??1?$CSimpleArray@UCModuleInfo@CTraceSnapshot@@V?$CSimpleArrayEqualHelper@UCModuleInfo@CTraceSnapshot@@@ATL@@@ATL@@QAA@XZ 000ce408 f i atlsd:Externs.obj
 0001:000bd430       ??1?$CSimpleArray@KV?$CSimpleArrayEqualHelper@K@ATL@@@ATL@@QAA@XZ 000ce430 f i atlsd:Externs.obj
 0001:000bd458       ?RemoveAll@?$CSimpleArray@UCModuleInfo@CTraceSnapshot@@V?$CSimpleArrayEqualHelper@UCModuleInfo@CTraceSnapshot@@@ATL@@@ATL@@QAAXXZ 000ce458 f i atlsd:Externs.obj
 0001:000bd4fc       ?RemoveAll@?$CSimpleArray@KV?$CSimpleArrayEqualHelper@K@ATL@@@ATL@@QAAXXZ 000ce4fc f i atlsd:Externs.obj
 0001:000bd5a0       ??1CTrace@ATL@@AAA@XZ      000ce5a0 f i atlsd:Externs.obj
 0001:000bd5d0       ?NotifyTool@ATL@@YAXXZ     000ce5d0 f   atlsd:AtlDebugAPI.obj
 0001:000bd648       AtlTraceRegister           000ce648 f   atlsd:AtlDebugAPI.obj
 0001:000bd744       AtlTraceUnregister         000ce744 f   atlsd:AtlDebugAPI.obj
 0001:000bd7a4       AtlTraceRegisterCategoryU  000ce7a4 f   atlsd:AtlDebugAPI.obj
 0001:000bd830       AtlTraceModifyProcess      000ce830 f   atlsd:AtlDebugAPI.obj
 0001:000bd9b0       AtlTraceModifyModule       000ce9b0 f   atlsd:AtlDebugAPI.obj
 0001:000bdb50       AtlTraceModifyCategory     000ceb50 f   atlsd:AtlDebugAPI.obj
 0001:000bdc90       AtlTraceGetProcess         000cec90 f   atlsd:AtlDebugAPI.obj
 0001:000bde30       AtlTraceGetModule          000cee30 f   atlsd:AtlDebugAPI.obj
 0001:000be020       AtlTraceGetCategory        000cf020 f   atlsd:AtlDebugAPI.obj
 0001:000be1c4       AtlTraceGetUpdateEventNameU 000cf1c4 f   atlsd:AtlDebugAPI.obj
 0001:000be218       AtlTraceGetUpdateEventNameU_s 000cf218 f   atlsd:AtlDebugAPI.obj
 0001:000be270       AtlTraceVU                 000cf270 f   atlsd:AtlDebugAPI.obj
 0001:000be580       AtlTraceOpenProcess        000cf580 f   atlsd:AtlDebugAPI.obj
 0001:000be5dc       AtlTraceCloseProcess       000cf5dc f   atlsd:AtlDebugAPI.obj
 0001:000be718       AtlTraceSnapshotProcess    000cf718 f   atlsd:AtlDebugAPI.obj
 0001:000be7f0       AtlTraceGetProcessInfo     000cf7f0 f   atlsd:AtlDebugAPI.obj
 0001:000beb20       AtlTraceGetModuleInfo      000cfb20 f   atlsd:AtlDebugAPI.obj
 0001:000bee14       AtlTraceGetCategoryInfo    000cfe14 f   atlsd:AtlDebugAPI.obj
 0001:000bf4cc       ?GetProcess@CAtlAllocator@@QBAPAVCAtlTraceProcess@@XZ 000d04cc f i atlsd:AtlDebugAPI.obj
 0001:000bf4fc       ?Name@CAtlTraceCategory@@QBAPB_WXZ 000d04fc f i atlsd:AtlDebugAPI.obj
 0001:000bf528       ?Path@CAtlTraceModuleInfo@@QBAPB_WXZ 000d0528 f i atlsd:AtlDebugAPI.obj
 0001:000bf554       ?Name@CAtlTraceModuleInfo@@QBAPB_WXZ 000d0554 f i atlsd:AtlDebugAPI.obj
 0001:000bf580       ?Id@CAtlTraceProcess@@QBAKXZ 000d0580 f i atlsd:AtlDebugAPI.obj
 0001:000bf5b4       ?CrtDbgReport@CAtlTraceModule@@QBAP6AHHPB_WH00ZZXZ 000d05b4 f i atlsd:AtlDebugAPI.obj
 0001:000bf5e8       ?GetSize@?$CSimpleArray@UCModuleInfo@CTraceSnapshot@@V?$CSimpleArrayEqualHelper@UCModuleInfo@CTraceSnapshot@@@ATL@@@ATL@@QBAHXZ 000d05e8 f i atlsd:AtlDebugAPI.obj
 0001:000bf618       ??A?$CSimpleArray@UCModuleInfo@CTraceSnapshot@@V?$CSimpleArrayEqualHelper@UCModuleInfo@CTraceSnapshot@@@ATL@@@ATL@@QAAAAUCModuleInfo@CTraceSnapshot@@H@Z 000d0618 f i atlsd:AtlDebugAPI.obj
 0001:000bf6fc       ?AtlCrtErrorCheck@ATL@@YAHH@Z 000d06fc f i atlsd:AtlDebugAPI.obj
 0001:000bf7c8       ?AtlAdvise@ATL@@YAJPAUIUnknown@@0ABU_GUID@@PAK@Z 000d07c8 f   atlsd:atlfuncs.obj
 0001:000bf984       ?AtlUnadvise@ATL@@YAJPAUIUnknown@@ABU_GUID@@K@Z 000d0984 f   atlsd:atlfuncs.obj
 0001:000bfb3c       ?AtlFreeMarshalStream@ATL@@YAJPAUIStream@@@Z 000d0b3c f   atlsd:atlfuncs.obj
 0001:000bfbf4       ?AtlMarshalPtrInProc@ATL@@YAJPAUIUnknown@@ABU_GUID@@PAPAUIStream@@@Z 000d0bf4 f   atlsd:atlfuncs.obj
 0001:000bfd38       ?AtlUnmarshalPtr@ATL@@YAJPAUIStream@@ABU_GUID@@PAPAUIUnknown@@@Z 000d0d38 f   atlsd:atlfuncs.obj
 0001:000bfe58       ?AtlComModuleGetClassObject@ATL@@YAJPAU_ATL_COM_MODULE70@1@ABU_GUID@@1PAPAX@Z 000d0e58 f   atlsd:atlfuncs.obj
 0001:000c01d0       ?AtlComModuleRegisterClassObjects@ATL@@YAJPAU_ATL_COM_MODULE70@1@KK@Z 000d11d0 f   atlsd:atlfuncs.obj
 0001:000c02f0       ?AtlComModuleRevokeClassObjects@ATL@@YAJPAU_ATL_COM_MODULE70@1@@Z 000d12f0 f   atlsd:atlfuncs.obj
 0001:000c0408       ?AtlWaitWithMessageLoop@ATL@@YAHPAX@Z 000d1408 f   atlsd:atlfuncs.obj
 0001:000c05a0       ?AtlInternalQueryInterface@ATL@@YAJPAXPBU_ATL_INTMAP_ENTRY@1@ABU_GUID@@PAPAX@Z 000d15a0 f   atlsd:atlfuncs.obj
 0001:000c0928       ?AtlGetVersion@ATL@@YAKPAX@Z 000d1928 f   atlsd:atlfuncs.obj
 0001:000c0950       ?AtlWinModuleAddCreateWndData@ATL@@YAXPAU_ATL_WIN_MODULE70@1@PAU_AtlCreateWndData@1@PAX@Z 000d1950 f   atlsd:atlfuncs.obj
 0001:000c0b8c       ?AtlWinModuleExtractCreateWndData@ATL@@YAPAXPAU_ATL_WIN_MODULE70@1@@Z 000d1b8c f   atlsd:atlfuncs.obj
 0001:000c0dd8       ?AtlWinModuleInit@ATL@@YAJPAU_ATL_WIN_MODULE70@1@@Z 000d1dd8 f   atlsd:atlfuncs.obj
 0001:000c0f28       ?AtlModuleAddTermFunc@ATL@@YAJPAU_ATL_MODULE70@1@P6AXK@ZK@Z 000d1f28 f   atlsd:atlfuncs.obj
 0001:000c1134       ?AtlCallTermFunc@ATL@@YAXPAU_ATL_MODULE70@1@@Z 000d2134 f   atlsd:atlfuncs.obj
 0001:000c11fc       ??1?$CComPtr@UIConnectionPointContainer@@@ATL@@QAA@XZ 000d21fc f i atlsd:atlfuncs.obj
 0001:000c1224       ??1?$CComPtr@UIConnectionPoint@@@ATL@@QAA@XZ 000d2224 f i atlsd:atlfuncs.obj
 0001:000c124c       ?IsWindowUnicode@ATL@@YAHPAUHWND__@@@Z 000d224c f i atlsd:atlfuncs.obj
 0001:000c1274       ??0?$CComPtr@UIConnectionPointContainer@@@ATL@@QAA@XZ 000d2274 f i atlsd:atlfuncs.obj
 0001:000c12b4       ??1?$CComPtrBase@UIConnectionPointContainer@@@ATL@@QAA@XZ 000d22b4 f i atlsd:atlfuncs.obj
 0001:000c12fc       ??I?$CComPtrBase@UIConnectionPointContainer@@@ATL@@QAAPAPAUIConnectionPointContainer@@XZ 000d22fc f i atlsd:atlfuncs.obj
 0001:000c1378       ??C?$CComPtrBase@UIConnectionPointContainer@@@ATL@@QBAPAV?$_NoAddRefReleaseOnCComPtr@UIConnectionPointContainer@@@1@XZ 000d2378 f i atlsd:atlfuncs.obj
 0001:000c13f8       ??0?$CComPtr@UIConnectionPoint@@@ATL@@QAA@XZ 000d23f8 f i atlsd:atlfuncs.obj
 0001:000c1438       ??1?$CComPtrBase@UIConnectionPoint@@@ATL@@QAA@XZ 000d2438 f i atlsd:atlfuncs.obj
 0001:000c1480       ??I?$CComPtrBase@UIConnectionPoint@@@ATL@@QAAPAPAUIConnectionPoint@@XZ 000d2480 f i atlsd:atlfuncs.obj
 0001:000c14fc       ??C?$CComPtrBase@UIConnectionPoint@@@ATL@@QBAPAV?$_NoAddRefReleaseOnCComPtr@UIConnectionPoint@@@1@XZ 000d24fc f i atlsd:atlfuncs.obj
 0001:000c157c       ??0?$CComPtrBase@UIConnectionPointContainer@@@ATL@@IAA@XZ 000d257c f i atlsd:atlfuncs.obj
 0001:000c15b0       ??0?$CComPtrBase@UIConnectionPoint@@@ATL@@IAA@XZ 000d25b0 f i atlsd:atlfuncs.obj
 0001:000c15e4       ?InlineIsEqualGUID@ATL@@YAHABU_GUID@@0@Z 000d25e4 f i atlsd:atlfuncs.obj
 0001:000c16a0       ?Init@CComCriticalSection@ATL@@QAAJXZ 000d26a0 f i atlsd:atlfuncs.obj
 0001:000c1744       ?RevokeClassObject@_ATL_OBJMAP_ENTRY30@ATL@@QAAJXZ 000d2744 f i atlsd:atlfuncs.obj
 0001:000c17ac       ?RegisterClassObject@_ATL_OBJMAP_ENTRY30@ATL@@QAAJKK@Z 000d27ac f i atlsd:atlfuncs.obj
 0001:000c18a4       ?InlineIsEqualUnknown@ATL@@YAHABU_GUID@@@Z 000d28a4 f i atlsd:atlfuncs.obj
 0001:000c192c       ??0?$CComCritSecLock@VCComCriticalSection@ATL@@@ATL@@QAA@AAVCComCriticalSection@1@_N@Z 000d292c f i atlsd:atlfuncs.obj
 0001:000c19bc       ??1?$CComCritSecLock@VCComCriticalSection@ATL@@@ATL@@QAA@XZ 000d29bc f i atlsd:atlfuncs.obj
 0001:000c19f8       ?Unlock@?$CComCritSecLock@VCComCriticalSection@ATL@@@ATL@@QAAXXZ 000d29f8 f i atlsd:atlfuncs.obj
 0001:000c1a98       ?Unlock@CComCriticalSection@ATL@@QAAJXZ 000d2a98 f i atlsd:atlfuncs.obj
 0001:000c1ad4       ?Lock@?$CComCritSecLock@VCComCriticalSection@ATL@@@ATL@@QAAJXZ 000d2ad4 f i atlsd:atlfuncs.obj
 0001:000c1ba4       ?Lock@CComCriticalSection@ATL@@QAAJXZ 000d2ba4 f i atlsd:atlfuncs.obj
 0001:000c1be0       AtlRawDllMain              000d2be0 f   atlsd:atlbase.obj
 0001:000c1ce0       ?CoDisconnectObject@ATL@@YAJPAUIUnknown@@K@Z 000d2ce0 f   atlsd:atlbase.obj
 0001:000c1e34       ?CoInitialize@ATL@@YAJPAX@Z 000d2e34 f   atlsd:atlbase.obj
 0001:000c1ee8       ?CoRevokeClassObject@ATL@@YAJK@Z 000d2ee8 f   atlsd:atlbase.obj
 0001:000c1f9c       ?CoRegisterClassObject@ATL@@YAJABU_GUID@@PAUIUnknown@@KKPAK@Z 000d2f9c f   atlsd:atlbase.obj
 0001:000c2064       ?CoMarshalInterface@ATL@@YAJPAUIStream@@ABU_GUID@@PAUIUnknown@@KPAXK@Z 000d3064 f   atlsd:atlbase.obj
 0001:000c2134       ?CoUnmarshalInterface@ATL@@YAJPAUIStream@@ABU_GUID@@PAPAX@Z 000d3134 f   atlsd:atlbase.obj
 0001:000c21f0       ?CoReleaseMarshalData@ATL@@YAJPAUIStream@@@Z 000d31f0 f   atlsd:atlbase.obj
 0001:000c22a4       ?OleSaveToStream@ATL@@YAJPAUIPersistStream@@PAUIStream@@@Z 000d32a4 f   atlsd:atlbase.obj
 0001:000c245c       ?OleLoadFromStream@ATL@@YAJPAUIStream@@ABU_GUID@@PAPAX@Z 000d345c f   atlsd:atlbase.obj
 0001:000c2788       ??0CAtlBaseModule@ATL@@QAA@XZ 000d3788 f   atlsd:atlbase.obj
 0001:000c2914       ??1CAtlBaseModule@ATL@@QAA@XZ 000d3914 f   atlsd:atlbase.obj
 0001:000c2954       ?AddResourceInstance@CAtlBaseModule@ATL@@QAA_NPAUHINSTANCE__@@@Z 000d3954 f   atlsd:atlbase.obj
 0001:000c2af0       ?RemoveResourceInstance@CAtlBaseModule@ATL@@QAA_NPAUHINSTANCE__@@@Z 000d3af0 f   atlsd:atlbase.obj
 0001:000c2d04       ?GetHInstanceAt@CAtlBaseModule@ATL@@QAAPAUHINSTANCE__@@H@Z 000d3d04 f   atlsd:atlbase.obj
 0001:000c2f38       ??0_ATL_BASE_MODULE70@ATL@@QAA@XZ 000d3f38 f i atlsd:atlbase.obj
 0001:000c2f98       ??1_ATL_BASE_MODULE70@ATL@@QAA@XZ 000d3f98 f i atlsd:atlbase.obj
 0001:000c2fdc       ??0?$CSimpleArray@PAUHINSTANCE__@@V?$CSimpleArrayEqualHelper@PAUHINSTANCE__@@@ATL@@@ATL@@QAA@XZ 000d3fdc f i atlsd:atlbase.obj
 0001:000c3030       ?GetSize@?$CSimpleArray@PAUHINSTANCE__@@V?$CSimpleArrayEqualHelper@PAUHINSTANCE__@@@ATL@@@ATL@@QBAHXZ 000d4030 f i atlsd:atlbase.obj
 0001:000c3060       ?Add@?$CSimpleArray@PAUHINSTANCE__@@V?$CSimpleArrayEqualHelper@PAUHINSTANCE__@@@ATL@@@ATL@@QAAHABQAUHINSTANCE__@@@Z 000d4060 f i atlsd:atlbase.obj
 0001:000c31b0       ?RemoveAt@?$CSimpleArray@PAUHINSTANCE__@@V?$CSimpleArrayEqualHelper@PAUHINSTANCE__@@@ATL@@@ATL@@QAAHH@Z 000d41b0 f i atlsd:atlbase.obj
 0001:000c3328       ??A?$CSimpleArray@PAUHINSTANCE__@@V?$CSimpleArrayEqualHelper@PAUHINSTANCE__@@@ATL@@@ATL@@QAAAAPAUHINSTANCE__@@H@Z 000d4328 f i atlsd:atlbase.obj
 0001:000c340c       ?InternalSetAtIndex@?$CSimpleArray@PAUHINSTANCE__@@V?$CSimpleArrayEqualHelper@PAUHINSTANCE__@@@ATL@@@ATL@@QAAXHABQAUHINSTANCE__@@@Z 000d440c f i atlsd:atlbase.obj
 0001:000c349c       ??0Wrapper@?$CSimpleArray@PAUHINSTANCE__@@V?$CSimpleArrayEqualHelper@PAUHINSTANCE__@@@ATL@@@ATL@@QAA@ABQAUHINSTANCE__@@@Z 000d449c f i atlsd:atlbase.obj
 0001:000c34d4       ??1?$CSimpleArray@PAUHINSTANCE__@@V?$CSimpleArrayEqualHelper@PAUHINSTANCE__@@@ATL@@@ATL@@QAA@XZ 000d44d4 f i atlsd:atlbase.obj
 0001:000c34fc       ??$?2PAUHINSTANCE__@@@Wrapper@?$CSimpleArray@PAUHINSTANCE__@@V?$CSimpleArrayEqualHelper@PAUHINSTANCE__@@@ATL@@@ATL@@SAPAXIPAPAUHINSTANCE__@@@Z 000d44fc f i atlsd:atlbase.obj
 0001:000c3524       ?RemoveAll@?$CSimpleArray@PAUHINSTANCE__@@V?$CSimpleArrayEqualHelper@PAUHINSTANCE__@@@ATL@@@ATL@@QAAXXZ 000d4524 f i atlsd:atlbase.obj
 0001:000c35c8       ??1?$CComPtr@UIUnknown@@@ATL@@QAA@XZ 000d45c8 f i atlsd:atlbase.obj
 0001:000c35f0       ??1?$CComPtr@UIPersistStream@@@ATL@@QAA@XZ 000d45f0 f i atlsd:atlbase.obj
 0001:000c3618       ??0?$CComPtr@UIUnknown@@@ATL@@QAA@XZ 000d4618 f i atlsd:atlbase.obj
 0001:000c3658       ??1?$CComPtrBase@UIUnknown@@@ATL@@QAA@XZ 000d4658 f i atlsd:atlbase.obj
 0001:000c36a0       ??I?$CComPtrBase@UIUnknown@@@ATL@@QAAPAPAUIUnknown@@XZ 000d46a0 f i atlsd:atlbase.obj
 0001:000c371c       ??C?$CComPtrBase@UIUnknown@@@ATL@@QBAPAV?$_NoAddRefReleaseOnCComPtr@UIUnknown@@@1@XZ 000d471c f i atlsd:atlbase.obj
 0001:000c379c       ??0?$CComPtr@UIPersistStream@@@ATL@@QAA@XZ 000d479c f i atlsd:atlbase.obj
 0001:000c37dc       ??1?$CComPtrBase@UIPersistStream@@@ATL@@QAA@XZ 000d47dc f i atlsd:atlbase.obj
 0001:000c3824       ??I?$CComPtrBase@UIPersistStream@@@ATL@@QAAPAPAUIPersistStream@@XZ 000d4824 f i atlsd:atlbase.obj
 0001:000c38a0       ??C?$CComPtrBase@UIPersistStream@@@ATL@@QBAPAV?$_NoAddRefReleaseOnCComPtr@UIPersistStream@@@1@XZ 000d48a0 f i atlsd:atlbase.obj
 0001:000c3920       ??0?$CComPtrBase@UIUnknown@@@ATL@@IAA@XZ 000d4920 f i atlsd:atlbase.obj
 0001:000c3954       ??0?$CComPtrBase@UIPersistStream@@@ATL@@IAA@XZ 000d4954 f i atlsd:atlbase.obj
 0001:000c3988       ??0CSize@@QAA@XZ           000d4988 f   atlsd:atltypes.obj
 0001:000c39b0       ??0CSize@@QAA@HH@Z         000d49b0 f   atlsd:atltypes.obj
 0001:000c39f4       ??0CSize@@QAA@UtagSIZE@@@Z 000d49f4 f   atlsd:atltypes.obj
 0001:000c3a2c       ??0CSize@@QAA@UtagPOINT@@@Z 000d4a2c f   atlsd:atltypes.obj
 0001:000c3a64       ??0CSize@@QAA@K@Z          000d4a64 f   atlsd:atltypes.obj
 0001:000c3abc       ??8CSize@@QBAHUtagSIZE@@@Z 000d4abc f   atlsd:atltypes.obj
 0001:000c3b24       ??9CSize@@QBAHUtagSIZE@@@Z 000d4b24 f   atlsd:atltypes.obj
 0001:000c3b8c       ??YCSize@@QAAXUtagSIZE@@@Z 000d4b8c f   atlsd:atltypes.obj
 0001:000c3bd8       ??ZCSize@@QAAXUtagSIZE@@@Z 000d4bd8 f   atlsd:atltypes.obj
 0001:000c3c24       ?SetSize@CSize@@QAAXHH@Z   000d4c24 f   atlsd:atltypes.obj
 0001:000c3c54       ??HCSize@@QBA?AV0@UtagSIZE@@@Z 000d4c54 f   atlsd:atltypes.obj
 0001:000c3cb4       ??GCSize@@QBA?AV0@UtagSIZE@@@Z 000d4cb4 f   atlsd:atltypes.obj
 0001:000c3d14       ??GCSize@@QBA?AV0@XZ       000d4d14 f   atlsd:atltypes.obj
 0001:000c3d6c       ??HCSize@@QBA?AVCPoint@@UtagPOINT@@@Z 000d4d6c f   atlsd:atltypes.obj
 0001:000c3dcc       ??GCSize@@QBA?AVCPoint@@UtagPOINT@@@Z 000d4dcc f   atlsd:atltypes.obj
 0001:000c3e2c       ??HCSize@@QBA?AVCRect@@PBUtagRECT@@@Z 000d4e2c f   atlsd:atltypes.obj
 0001:000c3ea0       ??GCSize@@QBA?AVCRect@@PBUtagRECT@@@Z 000d4ea0 f   atlsd:atltypes.obj
 0001:000c3f14       ??0CPoint@@QAA@XZ          000d4f14 f   atlsd:atltypes.obj
 0001:000c3f3c       ??0CPoint@@QAA@HH@Z        000d4f3c f   atlsd:atltypes.obj
 0001:000c3f80       ??0CPoint@@QAA@UtagPOINT@@@Z 000d4f80 f   atlsd:atltypes.obj
 0001:000c3fb8       ??0CPoint@@QAA@UtagSIZE@@@Z 000d4fb8 f   atlsd:atltypes.obj
 0001:000c3ff0       ??0CPoint@@QAA@J@Z         000d4ff0 f   atlsd:atltypes.obj
 0001:000c4048       ?Offset@CPoint@@QAAXHH@Z   000d5048 f   atlsd:atltypes.obj
 0001:000c4094       ?Offset@CPoint@@QAAXUtagPOINT@@@Z 000d5094 f   atlsd:atltypes.obj
 0001:000c40e0       ?Offset@CPoint@@QAAXUtagSIZE@@@Z 000d50e0 f   atlsd:atltypes.obj
 0001:000c412c       ?SetPoint@CPoint@@QAAXHH@Z 000d512c f   atlsd:atltypes.obj
 0001:000c415c       ??8CPoint@@QBAHUtagPOINT@@@Z 000d515c f   atlsd:atltypes.obj
 0001:000c41c4       ??9CPoint@@QBAHUtagPOINT@@@Z 000d51c4 f   atlsd:atltypes.obj
 0001:000c422c       ??YCPoint@@QAAXUtagSIZE@@@Z 000d522c f   atlsd:atltypes.obj
 0001:000c4278       ??ZCPoint@@QAAXUtagSIZE@@@Z 000d5278 f   atlsd:atltypes.obj
 0001:000c42c4       ??YCPoint@@QAAXUtagPOINT@@@Z 000d52c4 f   atlsd:atltypes.obj
 0001:000c4310       ??ZCPoint@@QAAXUtagPOINT@@@Z 000d5310 f   atlsd:atltypes.obj
 0001:000c435c       ??HCPoint@@QBA?AV0@UtagSIZE@@@Z 000d535c f   atlsd:atltypes.obj
 0001:000c43bc       ??GCPoint@@QBA?AV0@UtagSIZE@@@Z 000d53bc f   atlsd:atltypes.obj
 0001:000c441c       ??GCPoint@@QBA?AV0@XZ      000d541c f   atlsd:atltypes.obj
 0001:000c4474       ??HCPoint@@QBA?AV0@UtagPOINT@@@Z 000d5474 f   atlsd:atltypes.obj
 0001:000c44d4       ??GCPoint@@QBA?AVCSize@@UtagPOINT@@@Z 000d54d4 f   atlsd:atltypes.obj
 0001:000c4534       ??HCPoint@@QBA?AVCRect@@PBUtagRECT@@@Z 000d5534 f   atlsd:atltypes.obj
 0001:000c45a8       ??GCPoint@@QBA?AVCRect@@PBUtagRECT@@@Z 000d55a8 f   atlsd:atltypes.obj
 0001:000c461c       ??0CRect@@QAA@XZ           000d561c f   atlsd:atltypes.obj
 0001:000c4644       ??0CRect@@QAA@HHHH@Z       000d5644 f   atlsd:atltypes.obj
 0001:000c46a8       ??0CRect@@QAA@ABUtagRECT@@@Z 000d56a8 f   atlsd:atltypes.obj
 0001:000c46e8       ??0CRect@@QAA@PBUtagRECT@@@Z 000d56e8 f   atlsd:atltypes.obj
 0001:000c4728       ??0CRect@@QAA@UtagPOINT@@UtagSIZE@@@Z 000d5728 f   atlsd:atltypes.obj
 0001:000c479c       ??0CRect@@QAA@UtagPOINT@@0@Z 000d579c f   atlsd:atltypes.obj
 0001:000c4800       ?Width@CRect@@QBAHXZ       000d5800 f   atlsd:atltypes.obj
 0001:000c483c       ?Height@CRect@@QBAHXZ      000d583c f   atlsd:atltypes.obj
 0001:000c487c       ?Size@CRect@@QBA?AVCSize@@XZ 000d587c f   atlsd:atltypes.obj
 0001:000c48ec       ?TopLeft@CRect@@QAAAAVCPoint@@XZ 000d58ec f   atlsd:atltypes.obj
 0001:000c4914       ?BottomRight@CRect@@QAAAAVCPoint@@XZ 000d5914 f   atlsd:atltypes.obj
 0001:000c4940       ?TopLeft@CRect@@QBAABVCPoint@@XZ 000d5940 f   atlsd:atltypes.obj
 0001:000c4968       ?BottomRight@CRect@@QBAABVCPoint@@XZ 000d5968 f   atlsd:atltypes.obj
 0001:000c4994       ?CenterPoint@CRect@@QBA?AVCPoint@@XZ 000d5994 f   atlsd:atltypes.obj
 0001:000c4a3c       ?SwapLeftRight@CRect@@QAAXXZ 000d5a3c f   atlsd:atltypes.obj
 0001:000c4a64       ?SwapLeftRight@CRect@@SAXPAUtagRECT@@@Z 000d5a64 f   atlsd:atltypes.obj
 0001:000c4ab0       ??BCRect@@QAAPAUtagRECT@@XZ 000d5ab0 f   atlsd:atltypes.obj
 0001:000c4ad8       ??BCRect@@QBAPBUtagRECT@@XZ 000d5ad8 f   atlsd:atltypes.obj
 0001:000c4b00       ?IsRectEmpty@CRect@@QBAHXZ 000d5b00 f   atlsd:atltypes.obj
 0001:000c4b40       ?IsRectNull@CRect@@QBAHXZ  000d5b40 f   atlsd:atltypes.obj
 0001:000c4bc8       ?PtInRect@CRect@@QBAHUtagPOINT@@@Z 000d5bc8 f   atlsd:atltypes.obj
 0001:000c4c10       ?SetRect@CRect@@QAAXHHHH@Z 000d5c10 f   atlsd:atltypes.obj
 0001:000c4c54       ?SetRect@CRect@@QAAXUtagPOINT@@0@Z 000d5c54 f   atlsd:atltypes.obj
 0001:000c4c98       ?SetRectEmpty@CRect@@QAAXXZ 000d5c98 f   atlsd:atltypes.obj
 0001:000c4cc0       ?CopyRect@CRect@@QAAXPBUtagRECT@@@Z 000d5cc0 f   atlsd:atltypes.obj
 0001:000c4cec       ?EqualRect@CRect@@QBAHPBUtagRECT@@@Z 000d5cec f   atlsd:atltypes.obj
 0001:000c4d30       ?InflateRect@CRect@@QAAXHH@Z 000d5d30 f   atlsd:atltypes.obj
 0001:000c4d60       ?InflateRect@CRect@@QAAXUtagSIZE@@@Z 000d5d60 f   atlsd:atltypes.obj
 0001:000c4d90       ?DeflateRect@CRect@@QAAXHH@Z 000d5d90 f   atlsd:atltypes.obj
 0001:000c4dc8       ?DeflateRect@CRect@@QAAXUtagSIZE@@@Z 000d5dc8 f   atlsd:atltypes.obj
 0001:000c4e00       ?OffsetRect@CRect@@QAAXHH@Z 000d5e00 f   atlsd:atltypes.obj
 0001:000c4e30       ?OffsetRect@CRect@@QAAXUtagPOINT@@@Z 000d5e30 f   atlsd:atltypes.obj
 0001:000c4e60       ?OffsetRect@CRect@@QAAXUtagSIZE@@@Z 000d5e60 f   atlsd:atltypes.obj
 0001:000c4e90       ?MoveToY@CRect@@QAAXH@Z    000d5e90 f   atlsd:atltypes.obj
 0001:000c4eec       ?MoveToX@CRect@@QAAXH@Z    000d5eec f   atlsd:atltypes.obj
 0001:000c4f44       ?MoveToXY@CRect@@QAAXHH@Z  000d5f44 f   atlsd:atltypes.obj
 0001:000c4f88       ?MoveToXY@CRect@@QAAXUtagPOINT@@@Z 000d5f88 f   atlsd:atltypes.obj
 0001:000c4fcc       ?IntersectRect@CRect@@QAAHPBUtagRECT@@0@Z 000d5fcc f   atlsd:atltypes.obj
 0001:000c5014       ?UnionRect@CRect@@QAAHPBUtagRECT@@0@Z 000d6014 f   atlsd:atltypes.obj
 0001:000c505c       ??4CRect@@QAAXABUtagRECT@@@Z 000d605c f   atlsd:atltypes.obj
 0001:000c5088       ??8CRect@@QBAHABUtagRECT@@@Z 000d6088 f   atlsd:atltypes.obj
 0001:000c50cc       ??9CRect@@QBAHABUtagRECT@@@Z 000d60cc f   atlsd:atltypes.obj
 0001:000c5130       ??YCRect@@QAAXUtagPOINT@@@Z 000d6130 f   atlsd:atltypes.obj
 0001:000c5160       ??YCRect@@QAAXUtagSIZE@@@Z 000d6160 f   atlsd:atltypes.obj
 0001:000c5190       ??YCRect@@QAAXPBUtagRECT@@@Z 000d6190 f   atlsd:atltypes.obj
 0001:000c51bc       ??ZCRect@@QAAXUtagPOINT@@@Z 000d61bc f   atlsd:atltypes.obj
 0001:000c51f4       ??ZCRect@@QAAXUtagSIZE@@@Z 000d61f4 f   atlsd:atltypes.obj
 0001:000c522c       ??ZCRect@@QAAXPBUtagRECT@@@Z 000d622c f   atlsd:atltypes.obj
 0001:000c5258       ??_4CRect@@QAAXABUtagRECT@@@Z 000d6258 f   atlsd:atltypes.obj
 0001:000c5288       ??_5CRect@@QAAXABUtagRECT@@@Z 000d6288 f   atlsd:atltypes.obj
 0001:000c52b8       ??HCRect@@QBA?AV0@UtagPOINT@@@Z 000d62b8 f   atlsd:atltypes.obj
 0001:000c531c       ??GCRect@@QBA?AV0@UtagPOINT@@@Z 000d631c f   atlsd:atltypes.obj
 0001:000c5388       ??HCRect@@QBA?AV0@UtagSIZE@@@Z 000d6388 f   atlsd:atltypes.obj
 0001:000c53ec       ??GCRect@@QBA?AV0@UtagSIZE@@@Z 000d63ec f   atlsd:atltypes.obj
 0001:000c5458       ??HCRect@@QBA?AV0@PBUtagRECT@@@Z 000d6458 f   atlsd:atltypes.obj
 0001:000c54c0       ??GCRect@@QBA?AV0@PBUtagRECT@@@Z 000d64c0 f   atlsd:atltypes.obj
 0001:000c5528       ??ICRect@@QBA?AV0@ABUtagRECT@@@Z 000d6528 f   atlsd:atltypes.obj
 0001:000c5590       ??UCRect@@QBA?AV0@ABUtagRECT@@@Z 000d6590 f   atlsd:atltypes.obj
 0001:000c55f8       ?SubtractRect@CRect@@QAAHPBUtagRECT@@0@Z 000d65f8 f   atlsd:atltypes.obj
 0001:000c5640       ?NormalizeRect@CRect@@QAAXXZ 000d6640 f   atlsd:atltypes.obj
 0001:000c5700       ?InflateRect@CRect@@QAAXPBUtagRECT@@@Z 000d6700 f   atlsd:atltypes.obj
 0001:000c57a8       ?InflateRect@CRect@@QAAXHHHH@Z 000d67a8 f   atlsd:atltypes.obj
 0001:000c5834       ?DeflateRect@CRect@@QAAXPBUtagRECT@@@Z 000d6834 f   atlsd:atltypes.obj
 0001:000c58dc       ?DeflateRect@CRect@@QAAXHHHH@Z 000d68dc f   atlsd:atltypes.obj
 0001:000c5968       ?MulDiv@CRect@@QBA?AV1@HH@Z 000d6968 f   atlsd:atltypes.obj
 0001:000c5a48       ??0COleDateTimeSpan@ATL@@QAA@XZ 000d6a48 f   atlsd:ATLComTime.obj
 0001:000c5a98       ??0COleDateTimeSpan@ATL@@QAA@N@Z 000d6a98 f   atlsd:ATLComTime.obj
 0001:000c5afc       ??0COleDateTimeSpan@ATL@@QAA@JHHH@Z 000d6afc f   atlsd:ATLComTime.obj
 0001:000c5b4c       ?SetStatus@COleDateTimeSpan@ATL@@QAAXW4DateTimeSpanStatus@12@@Z 000d6b4c f   atlsd:ATLComTime.obj
 0001:000c5b70       ?GetStatus@COleDateTimeSpan@ATL@@QBA?AW4DateTimeSpanStatus@12@XZ 000d6b70 f   atlsd:ATLComTime.obj
 0001:000c5ba0       ?GetTotalDays@COleDateTimeSpan@ATL@@QBANXZ 000d6ba0 f   atlsd:ATLComTime.obj
 0001:000c5d08       ?GetTotalHours@COleDateTimeSpan@ATL@@QBANXZ 000d6d08 f   atlsd:ATLComTime.obj
 0001:000c5e90       ?GetTotalMinutes@COleDateTimeSpan@ATL@@QBANXZ 000d6e90 f   atlsd:ATLComTime.obj
 0001:000c6018       ?GetTotalSeconds@COleDateTimeSpan@ATL@@QBANXZ 000d7018 f   atlsd:ATLComTime.obj
 0001:000c61a0       ?GetDays@COleDateTimeSpan@ATL@@QBAJXZ 000d71a0 f   atlsd:ATLComTime.obj
 0001:000c6264       ?GetHours@COleDateTimeSpan@ATL@@QBAJXZ 000d7264 f   atlsd:ATLComTime.obj
 0001:000c62dc       ?GetMinutes@COleDateTimeSpan@ATL@@QBAJXZ 000d72dc f   atlsd:ATLComTime.obj
 0001:000c6354       ?GetSeconds@COleDateTimeSpan@ATL@@QBAJXZ 000d7354 f   atlsd:ATLComTime.obj
 0001:000c63cc       ??4COleDateTimeSpan@ATL@@QAAAAV01@N@Z 000d73cc f   atlsd:ATLComTime.obj
 0001:000c6430       ??8COleDateTimeSpan@ATL@@QBA_NABV01@@Z 000d7430 f   atlsd:ATLComTime.obj
 0001:000c6558       ??9COleDateTimeSpan@ATL@@QBA_NABV01@@Z 000d7558 f   atlsd:ATLComTime.obj
 0001:000c65c0       ??MCOleDateTimeSpan@ATL@@QBA_NABV01@@Z 000d75c0 f   atlsd:ATLComTime.obj
 0001:000c6768       ??OCOleDateTimeSpan@ATL@@QBA_NABV01@@Z 000d7768 f   atlsd:ATLComTime.obj
 0001:000c6910       ??NCOleDateTimeSpan@ATL@@QBA_NABV01@@Z 000d7910 f   atlsd:ATLComTime.obj
 0001:000c69a0       ??PCOleDateTimeSpan@ATL@@QBA_NABV01@@Z 000d79a0 f   atlsd:ATLComTime.obj
 0001:000c6a30       ??HCOleDateTimeSpan@ATL@@QBA?AV01@ABV01@@Z 000d7a30 f   atlsd:ATLComTime.obj
 0001:000c6bb4       ??GCOleDateTimeSpan@ATL@@QBA?AV01@ABV01@@Z 000d7bb4 f   atlsd:ATLComTime.obj
 0001:000c6d38       ??YCOleDateTimeSpan@ATL@@QAAAAV01@V01@@Z 000d7d38 f   atlsd:ATLComTime.obj
 0001:000c6e6c       ??ZCOleDateTimeSpan@ATL@@QAAAAV01@V01@@Z 000d7e6c f   atlsd:ATLComTime.obj
 0001:000c6fa0       ??GCOleDateTimeSpan@ATL@@QBA?AV01@XZ 000d7fa0 f   atlsd:ATLComTime.obj
 0001:000c7008       ??BCOleDateTimeSpan@ATL@@QBANXZ 000d8008 f   atlsd:ATLComTime.obj
 0001:000c7044       ?SetDateTimeSpan@COleDateTimeSpan@ATL@@QAAXJHHH@Z 000d8044 f   atlsd:ATLComTime.obj
 0001:000c71b4       ?CheckRange@COleDateTimeSpan@ATL@@QAAXXZ 000d81b4 f   atlsd:ATLComTime.obj
 0001:000c7248       ?GetCurrentTime@COleDateTime@ATL@@SA?AV12@XZ 000d8248 f   atlsd:ATLComTime.obj
 0001:000c72a8       ??0COleDateTime@ATL@@QAA@XZ 000d82a8 f   atlsd:ATLComTime.obj
 0001:000c72f8       ??0COleDateTime@ATL@@QAA@ABUtagVARIANT@@@Z 000d82f8 f   atlsd:ATLComTime.obj
 0001:000c7360       ??0COleDateTime@ATL@@QAA@N@Z 000d8360 f   atlsd:ATLComTime.obj
 0001:000c73b0       ??0COleDateTime@ATL@@QAA@_J@Z 000d83b0 f   atlsd:ATLComTime.obj
 0001:000c7418       ??0COleDateTime@ATL@@QAA@ABU_SYSTEMTIME@@@Z 000d8418 f   atlsd:ATLComTime.obj
 0001:000c7480       ??0COleDateTime@ATL@@QAA@ABU_FILETIME@@@Z 000d8480 f   atlsd:ATLComTime.obj
 0001:000c74e8       ??0COleDateTime@ATL@@QAA@HHHHHH@Z 000d84e8 f   atlsd:ATLComTime.obj
 0001:000c7548       ?SetStatus@COleDateTime@ATL@@QAAXW4DateTimeStatus@12@@Z 000d8548 f   atlsd:ATLComTime.obj
 0001:000c756c       ?GetStatus@COleDateTime@ATL@@QBA?AW4DateTimeStatus@12@XZ 000d856c f   atlsd:ATLComTime.obj
 0001:000c759c       ?GetAsSystemTime@COleDateTime@ATL@@QBA_NAAU_SYSTEMTIME@@@Z 000d859c f   atlsd:ATLComTime.obj
 0001:000c7634       ?GetAsUDATE@COleDateTime@ATL@@QBA_NAAUUDATE@@@Z 000d8634 f   atlsd:ATLComTime.obj
 0001:000c76ac       ?GetYear@COleDateTime@ATL@@QBAHXZ 000d86ac f   atlsd:ATLComTime.obj
 0001:000c7710       ?GetMonth@COleDateTime@ATL@@QBAHXZ 000d8710 f   atlsd:ATLComTime.obj
 0001:000c7774       ?GetDay@COleDateTime@ATL@@QBAHXZ 000d8774 f   atlsd:ATLComTime.obj
 0001:000c77d8       ?GetHour@COleDateTime@ATL@@QBAHXZ 000d87d8 f   atlsd:ATLComTime.obj
 0001:000c783c       ?GetMinute@COleDateTime@ATL@@QBAHXZ 000d883c f   atlsd:ATLComTime.obj
 0001:000c78a0       ?GetSecond@COleDateTime@ATL@@QBAHXZ 000d88a0 f   atlsd:ATLComTime.obj
 0001:000c7904       ?GetDayOfWeek@COleDateTime@ATL@@QBAHXZ 000d8904 f   atlsd:ATLComTime.obj
 0001:000c796c       ?GetDayOfYear@COleDateTime@ATL@@QBAHXZ 000d896c f   atlsd:ATLComTime.obj
 0001:000c79d0       ??4COleDateTime@ATL@@QAAAAV01@ABUtagVARIANT@@@Z 000d89d0 f   atlsd:ATLComTime.obj
 0001:000c7abc       ??4COleDateTime@ATL@@QAAAAV01@N@Z 000d8abc f   atlsd:ATLComTime.obj
 0001:000c7b0c       ??4COleDateTime@ATL@@QAAAAV01@AB_J@Z 000d8b0c f   atlsd:ATLComTime.obj
 0001:000c7bcc       ??4COleDateTime@ATL@@QAAAAV01@ABU_SYSTEMTIME@@@Z 000d8bcc f   atlsd:ATLComTime.obj
 0001:000c7c40       ??4COleDateTime@ATL@@QAAAAV01@ABU_FILETIME@@@Z 000d8c40 f   atlsd:ATLComTime.obj
 0001:000c7d04       ?ConvertSystemTimeToVariantTime@COleDateTime@ATL@@IAAHABU_SYSTEMTIME@@@Z 000d8d04 f   atlsd:ATLComTime.obj
 0001:000c7d48       ??4COleDateTime@ATL@@QAAAAV01@ABUUDATE@@@Z 000d8d48 f   atlsd:ATLComTime.obj
 0001:000c7dc0       ??8COleDateTime@ATL@@QBA_NABV01@@Z 000d8dc0 f   atlsd:ATLComTime.obj
 0001:000c7ee8       ??9COleDateTime@ATL@@QBA_NABV01@@Z 000d8ee8 f   atlsd:ATLComTime.obj
 0001:000c7f50       ??MCOleDateTime@ATL@@QBA_NABV01@@Z 000d8f50 f   atlsd:ATLComTime.obj
 0001:000c813c       ??OCOleDateTime@ATL@@QBA_NABV01@@Z 000d913c f   atlsd:ATLComTime.obj
 0001:000c8324       ??NCOleDateTime@ATL@@QBA_NABV01@@Z 000d9324 f   atlsd:ATLComTime.obj
 0001:000c83b4       ??PCOleDateTime@ATL@@QBA_NABV01@@Z 000d93b4 f   atlsd:ATLComTime.obj
 0001:000c8444       ??HCOleDateTime@ATL@@QBA?AV01@VCOleDateTimeSpan@1@@Z 000d9444 f   atlsd:ATLComTime.obj
 0001:000c85d8       ??GCOleDateTime@ATL@@QBA?AV01@VCOleDateTimeSpan@1@@Z 000d95d8 f   atlsd:ATLComTime.obj
 0001:000c876c       ??YCOleDateTime@ATL@@QAAAAV01@VCOleDateTimeSpan@1@@Z 000d976c f   atlsd:ATLComTime.obj
 0001:000c8900       ??ZCOleDateTime@ATL@@QAAAAV01@VCOleDateTimeSpan@1@@Z 000d9900 f   atlsd:ATLComTime.obj
 0001:000c8a94       ??GCOleDateTime@ATL@@QBA?AVCOleDateTimeSpan@1@ABV01@@Z 000d9a94 f   atlsd:ATLComTime.obj
 0001:000c8c18       ??BCOleDateTime@ATL@@QBANXZ 000d9c18 f   atlsd:ATLComTime.obj
 0001:000c8cc0       ?SetDateTime@COleDateTime@ATL@@QAAHHHHHHH@Z 000d9cc0 f   atlsd:ATLComTime.obj
 0001:000c8db8       ?SetDate@COleDateTime@ATL@@QAAHHHH@Z 000d9db8 f   atlsd:ATLComTime.obj
 0001:000c8e1c       ?SetTime@COleDateTime@ATL@@QAAHHHH@Z 000d9e1c f   atlsd:ATLComTime.obj
 0001:000c8e84       ?DoubleFromDate@COleDateTime@ATL@@KANN@Z 000d9e84 f   atlsd:ATLComTime.obj
 0001:000c8f64       ?DateFromDouble@COleDateTime@ATL@@KANN@Z 000d9f64 f   atlsd:ATLComTime.obj
 0001:000c9048       ?CheckRange@COleDateTime@ATL@@IAAXXZ 000da048 f   atlsd:ATLComTime.obj
 0001:000c90e4       ?AtlConvertSystemTimeToVariantTime@ATL@@YAHABU_SYSTEMTIME@@PAN@Z 000da0e4 f i atlsd:ATLComTime.obj
 0001:000c9314       ??0CTimeSpan@ATL@@QAA@XZ   000da314 f   atlsd:atltime.obj
 0001:000c9354       ??0CTimeSpan@ATL@@QAA@_J@Z 000da354 f   atlsd:atltime.obj
 0001:000c9394       ??0CTimeSpan@ATL@@QAA@JHHH@Z 000da394 f   atlsd:atltime.obj
 0001:000c9468       ?GetDays@CTimeSpan@ATL@@QBA_JXZ 000da468 f   atlsd:atltime.obj
 0001:000c94c4       ?GetTotalHours@CTimeSpan@ATL@@QBA_JXZ 000da4c4 f   atlsd:atltime.obj
 0001:000c951c       ?GetHours@CTimeSpan@ATL@@QBAJXZ 000da51c f   atlsd:atltime.obj
 0001:000c958c       ?GetTotalMinutes@CTimeSpan@ATL@@QBA_JXZ 000da58c f   atlsd:atltime.obj
 0001:000c95e4       ?GetMinutes@CTimeSpan@ATL@@QBAJXZ 000da5e4 f   atlsd:atltime.obj
 0001:000c9654       ?GetTotalSeconds@CTimeSpan@ATL@@QBA_JXZ 000da654 f   atlsd:atltime.obj
 0001:000c9690       ?GetSeconds@CTimeSpan@ATL@@QBAJXZ 000da690 f   atlsd:atltime.obj
 0001:000c9700       ?GetTimeSpan@CTimeSpan@ATL@@QBA_JXZ 000da700 f   atlsd:atltime.obj
 0001:000c973c       ??HCTimeSpan@ATL@@QBA?AV01@V01@@Z 000da73c f   atlsd:atltime.obj
 0001:000c9798       ??GCTimeSpan@ATL@@QBA?AV01@V01@@Z 000da798 f   atlsd:atltime.obj
 0001:000c97f4       ??YCTimeSpan@ATL@@QAAAAV01@V01@@Z 000da7f4 f   atlsd:atltime.obj
 0001:000c984c       ??ZCTimeSpan@ATL@@QAAAAV01@V01@@Z 000da84c f   atlsd:atltime.obj
 0001:000c98a4       ??8CTimeSpan@ATL@@QBA_NV01@@Z 000da8a4 f   atlsd:atltime.obj
 0001:000c993c       ??9CTimeSpan@ATL@@QBA_NV01@@Z 000da93c f   atlsd:atltime.obj
 0001:000c99d4       ??MCTimeSpan@ATL@@QBA_NV01@@Z 000da9d4 f   atlsd:atltime.obj
 0001:000c9a70       ??OCTimeSpan@ATL@@QBA_NV01@@Z 000daa70 f   atlsd:atltime.obj
 0001:000c9b0c       ??NCTimeSpan@ATL@@QBA_NV01@@Z 000dab0c f   atlsd:atltime.obj
 0001:000c9ba8       ??PCTimeSpan@ATL@@QBA_NV01@@Z 000daba8 f   atlsd:atltime.obj
 0001:000c9c44       ?GetCurrentTime@CTime@ATL@@SA?AV12@XZ 000dac44 f   atlsd:atltime.obj
 0001:000c9ca4       ?IsValidFILETIME@CTime@ATL@@SAHABU_FILETIME@@@Z 000daca4 f   atlsd:atltime.obj
 0001:000c9d34       ??0CTime@ATL@@QAA@XZ       000dad34 f   atlsd:atltime.obj
 0001:000c9d74       ??0CTime@ATL@@QAA@_J@Z     000dad74 f   atlsd:atltime.obj
 0001:000c9db4       ??0CTime@ATL@@QAA@HHHHHHH@Z 000dadb4 f   atlsd:atltime.obj
 0001:000ca2c8       ??0CTime@ATL@@QAA@GGH@Z    000db2c8 f   atlsd:atltime.obj
 0001:000ca464       ??0CTime@ATL@@QAA@ABU_SYSTEMTIME@@H@Z 000db464 f   atlsd:atltime.obj
 0001:000ca564       ??0CTime@ATL@@QAA@ABU_FILETIME@@H@Z 000db564 f   atlsd:atltime.obj
 0001:000ca668       ??4CTime@ATL@@QAAAAV01@_J@Z 000db668 f   atlsd:atltime.obj
 0001:000ca6a8       ??YCTime@ATL@@QAAAAV01@VCTimeSpan@1@@Z 000db6a8 f   atlsd:atltime.obj
 0001:000ca71c       ??ZCTime@ATL@@QAAAAV01@VCTimeSpan@1@@Z 000db71c f   atlsd:atltime.obj
 0001:000ca790       ??GCTime@ATL@@QBA?AVCTimeSpan@1@V01@@Z 000db790 f   atlsd:atltime.obj
 0001:000ca7ec       ??GCTime@ATL@@QBA?AV01@VCTimeSpan@1@@Z 000db7ec f   atlsd:atltime.obj
 0001:000ca864       ??HCTime@ATL@@QBA?AV01@VCTimeSpan@1@@Z 000db864 f   atlsd:atltime.obj
 0001:000ca8dc       ??8CTime@ATL@@QBA_NV01@@Z  000db8dc f   atlsd:atltime.obj
 0001:000ca974       ??9CTime@ATL@@QBA_NV01@@Z  000db974 f   atlsd:atltime.obj
 0001:000caa0c       ??MCTime@ATL@@QBA_NV01@@Z  000dba0c f   atlsd:atltime.obj
 0001:000caaa8       ??OCTime@ATL@@QBA_NV01@@Z  000dbaa8 f   atlsd:atltime.obj
 0001:000cab44       ??NCTime@ATL@@QBA_NV01@@Z  000dbb44 f   atlsd:atltime.obj
 0001:000cabe0       ??PCTime@ATL@@QBA_NV01@@Z  000dbbe0 f   atlsd:atltime.obj
 0001:000cac7c       ?GetGmtTm@CTime@ATL@@QBAPAUtm@@PAU3@@Z 000dbc7c f   atlsd:atltime.obj
 0001:000cada8       ?GetLocalTm@CTime@ATL@@QBAPAUtm@@PAU3@@Z 000dbda8 f   atlsd:atltime.obj
 0001:000caed4       ?GetAsSystemTime@CTime@ATL@@QBA_NAAU_SYSTEMTIME@@@Z 000dbed4 f   atlsd:atltime.obj
 0001:000cb02c       ?GetTime@CTime@ATL@@QBA_JXZ 000dc02c f   atlsd:atltime.obj
 0001:000cb068       ?GetYear@CTime@ATL@@QBAHXZ 000dc068 f   atlsd:atltime.obj
 0001:000cb0e4       ?GetMonth@CTime@ATL@@QBAHXZ 000dc0e4 f   atlsd:atltime.obj
 0001:000cb15c       ?GetDay@CTime@ATL@@QBAHXZ  000dc15c f   atlsd:atltime.obj
 0001:000cb1d0       ?GetHour@CTime@ATL@@QBAHXZ 000dc1d0 f   atlsd:atltime.obj
 0001:000cb244       ?GetMinute@CTime@ATL@@QBAHXZ 000dc244 f   atlsd:atltime.obj
 0001:000cb2b8       ?GetSecond@CTime@ATL@@QBAHXZ 000dc2b8 f   atlsd:atltime.obj
 0001:000cb328       ?GetDayOfWeek@CTime@ATL@@QBAHXZ 000dc328 f   atlsd:atltime.obj
 0001:000cb3a0       ??0CFileTimeSpan@ATL@@QAA@XZ 000dc3a0 f   atlsd:atltime.obj
 0001:000cb3e0       ??0CFileTimeSpan@ATL@@QAA@ABV01@@Z 000dc3e0 f   atlsd:atltime.obj
 0001:000cb428       ??0CFileTimeSpan@ATL@@QAA@_J@Z 000dc428 f   atlsd:atltime.obj
 0001:000cb468       ??4CFileTimeSpan@ATL@@QAAAAV01@ABV01@@Z 000dc468 f   atlsd:atltime.obj
 0001:000cb4b0       ??YCFileTimeSpan@ATL@@QAAAAV01@V01@@Z 000dc4b0 f   atlsd:atltime.obj
 0001:000cb510       ??ZCFileTimeSpan@ATL@@QAAAAV01@V01@@Z 000dc510 f   atlsd:atltime.obj
 0001:000cb570       ??HCFileTimeSpan@ATL@@QBA?AV01@V01@@Z 000dc570 f   atlsd:atltime.obj
 0001:000cb5d4       ??GCFileTimeSpan@ATL@@QBA?AV01@V01@@Z 000dc5d4 f   atlsd:atltime.obj
 0001:000cb638       ??8CFileTimeSpan@ATL@@QBA_NV01@@Z 000dc638 f   atlsd:atltime.obj
 0001:000cb6c8       ??9CFileTimeSpan@ATL@@QBA_NV01@@Z 000dc6c8 f   atlsd:atltime.obj
 0001:000cb758       ??MCFileTimeSpan@ATL@@QBA_NV01@@Z 000dc758 f   atlsd:atltime.obj
 0001:000cb7ec       ??OCFileTimeSpan@ATL@@QBA_NV01@@Z 000dc7ec f   atlsd:atltime.obj
 0001:000cb880       ??NCFileTimeSpan@ATL@@QBA_NV01@@Z 000dc880 f   atlsd:atltime.obj
 0001:000cb914       ??PCFileTimeSpan@ATL@@QBA_NV01@@Z 000dc914 f   atlsd:atltime.obj
 0001:000cb9a8       ?GetTimeSpan@CFileTimeSpan@ATL@@QBA_JXZ 000dc9a8 f   atlsd:atltime.obj
 0001:000cb9e4       ?SetTimeSpan@CFileTimeSpan@ATL@@QAAX_J@Z 000dc9e4 f   atlsd:atltime.obj
 0001:000cba10       ??0CFileTime@ATL@@QAA@XZ   000dca10 f   atlsd:atltime.obj
 0001:000cba54       ??0CFileTime@ATL@@QAA@ABU_FILETIME@@@Z 000dca54 f   atlsd:atltime.obj
 0001:000cbaa4       ??0CFileTime@ATL@@QAA@_K@Z 000dcaa4 f   atlsd:atltime.obj
 0001:000cbae8       ??4CFileTime@ATL@@QAAAAV01@ABU_FILETIME@@@Z 000dcae8 f   atlsd:atltime.obj
 0001:000cbb38       ?GetCurrentTime@CFileTime@ATL@@SA?AV12@XZ 000dcb38 f   atlsd:atltime.obj
 0001:000cbbb0       ??YCFileTime@ATL@@QAAAAV01@VCFileTimeSpan@1@@Z 000dcbb0 f   atlsd:atltime.obj
 0001:000cbc3c       ??ZCFileTime@ATL@@QAAAAV01@VCFileTimeSpan@1@@Z 000dcc3c f   atlsd:atltime.obj
 0001:000cbcc8       ??HCFileTime@ATL@@QBA?AV01@VCFileTimeSpan@1@@Z 000dccc8 f   atlsd:atltime.obj
 0001:000cbd54       ??GCFileTime@ATL@@QBA?AV01@VCFileTimeSpan@1@@Z 000dcd54 f   atlsd:atltime.obj
 0001:000cbde0       ??GCFileTime@ATL@@QBA?AVCFileTimeSpan@1@V01@@Z 000dcde0 f   atlsd:atltime.obj
 0001:000cbe68       ??8CFileTime@ATL@@QBA_NV01@@Z 000dce68 f   atlsd:atltime.obj
 0001:000cbf2c       ??9CFileTime@ATL@@QBA_NV01@@Z 000dcf2c f   atlsd:atltime.obj
 0001:000cbff0       ??MCFileTime@ATL@@QBA_NV01@@Z 000dcff0 f   atlsd:atltime.obj
 0001:000cc0b8       ??OCFileTime@ATL@@QBA_NV01@@Z 000dd0b8 f   atlsd:atltime.obj
 0001:000cc180       ??NCFileTime@ATL@@QBA_NV01@@Z 000dd180 f   atlsd:atltime.obj
 0001:000cc248       ??PCFileTime@ATL@@QBA_NV01@@Z 000dd248 f   atlsd:atltime.obj
 0001:000cc310       ?GetTime@CFileTime@ATL@@QBA_KXZ 000dd310 f   atlsd:atltime.obj
 0001:000cc350       ?SetTime@CFileTime@ATL@@QAAX_K@Z 000dd350 f   atlsd:atltime.obj
 0001:000cc380       ?UTCToLocal@CFileTime@ATL@@QBA?AV12@XZ 000dd380 f   atlsd:atltime.obj
 0001:000cc3e4       ?LocalToUTC@CFileTime@ATL@@QBA?AV12@XZ 000dd3e4 f   atlsd:atltime.obj
 0001:000cc450       ?Init@CAtlAllocator@@QAA_NPB_WK@Z 000dd450 f   atlsd:Allocate.obj
 0001:000cc928       ?Close@CAtlAllocator@@QAAX_N@Z 000dd928 f   atlsd:Allocate.obj
 0001:000cc9f8       ?GetModule@CAtlAllocator@@QBAPAVCAtlTraceModule@@H@Z 000dd9f8 f   atlsd:Allocate.obj
 0001:000ccb0c       ?GetCategory@CAtlAllocator@@QBAPAVCAtlTraceCategory@@H@Z 000ddb0c f   atlsd:Allocate.obj
 0001:000ccc54       ?GetCategoryCount@CAtlAllocator@@QBAHH@Z 000ddc54 f   atlsd:Allocate.obj
 0001:000ccd2c       ?GetCategoryCount@CAtlAllocator@@QBAHABVCAtlTraceModule@@@Z 000ddd2c f   atlsd:Allocate.obj
 0001:000ccdc8       ?GetModuleCount@CAtlAllocator@@QBAHXZ 000dddc8 f   atlsd:Allocate.obj
 0001:000cce68       ?FindModule@CAtlAllocator@@QBA_NPB_WPAI@Z 000dde68 f   atlsd:Allocate.obj
 0001:000ccf5c       ?AddModule@CAtlAllocator@@QAAHPAUHINSTANCE__@@@Z 000ddf5c f   atlsd:Allocate.obj
 0001:000cd2a4       ?AddCategory@CAtlAllocator@@QAAHHPB_W@Z 000de2a4 f   atlsd:Allocate.obj
 0001:000cd6ac       ?RemoveModule@CAtlAllocator@@QAA_NH@Z 000de6ac f   atlsd:Allocate.obj
 0001:000cd7e0       ?CleanUp@CAtlAllocator@@QAAXXZ 000de7e0 f   atlsd:Allocate.obj
 0001:000cd80c       ?TakeSnapshot@CAtlAllocator@@QAAXXZ 000de80c f   atlsd:Allocate.obj
 0001:000cdb48       ?ReleaseSnapshot@CAtlAllocator@@QAAXXZ 000deb48 f   atlsd:Allocate.obj
 0001:000cdce8       ?IncRef@CAtlTraceProcess@@QAAIXZ 000dece8 f i atlsd:Allocate.obj
 0001:000cdd40       ?Base@CAtlTraceProcess@@QBAPAXXZ 000ded40 f i atlsd:Allocate.obj
 0001:000cdd74       ?DecRef@CAtlTraceProcess@@QAAIXZ 000ded74 f i atlsd:Allocate.obj
 0001:000cddcc       ?ModuleCount@CAtlTraceProcess@@QBAHXZ 000dedcc f i atlsd:Allocate.obj
 0001:000cde00       ?MaxSize@CAtlTraceProcess@@QBAKXZ 000dee00 f i atlsd:Allocate.obj
 0001:000cde30       ?CategoryCount@CAtlTraceProcess@@QBAHXZ 000dee30 f i atlsd:Allocate.obj
 0001:000cde60       ?TryAllocate@CAtlTraceSettings@@QAA_NXZ 000dee60 f i atlsd:Allocate.obj
 0001:000cdee4       ?MarkValid@CAtlTraceSettings@@QAAXJ@Z 000deee4 f i atlsd:Allocate.obj
 0001:000cdf60       ?IncModuleCount@CAtlTraceProcess@@QAAXI@Z 000def60 f i atlsd:Allocate.obj
 0001:000cdf9c       ?TryAddRef@CAtlTraceSettings@@QAA_NXZ 000def9c f i atlsd:Allocate.obj
 0001:000ce02c       ?Release@CAtlTraceSettings@@QAAXXZ 000df02c f i atlsd:Allocate.obj
 0001:000ce088       ?IncCategoryCount@CAtlTraceProcess@@QAAXI@Z 000df088 f i atlsd:Allocate.obj
 0001:000ce0bc       ?Add@?$CSimpleArray@UCModuleInfo@CTraceSnapshot@@V?$CSimpleArrayEqualHelper@UCModuleInfo@CTraceSnapshot@@@ATL@@@ATL@@QAAHABUCModuleInfo@CTraceSnapshot@@@Z 000df0bc f i atlsd:Allocate.obj
 0001:000ce214       ?GetSize@?$CSimpleArray@KV?$CSimpleArrayEqualHelper@K@ATL@@@ATL@@QBAHXZ 000df214 f i atlsd:Allocate.obj
 0001:000ce244       ?Add@?$CSimpleArray@KV?$CSimpleArrayEqualHelper@K@ATL@@@ATL@@QAAHABK@Z 000df244 f i atlsd:Allocate.obj
 0001:000ce394       ?RemoveAt@?$CSimpleArray@KV?$CSimpleArrayEqualHelper@K@ATL@@@ATL@@QAAHH@Z 000df394 f i atlsd:Allocate.obj
 0001:000ce50c       ??A?$CSimpleArray@KV?$CSimpleArrayEqualHelper@K@ATL@@@ATL@@QAAAAKH@Z 000df50c f i atlsd:Allocate.obj
 0001:000ce5f0       ?InternalSetAtIndex@?$CSimpleArray@UCModuleInfo@CTraceSnapshot@@V?$CSimpleArrayEqualHelper@UCModuleInfo@CTraceSnapshot@@@ATL@@@ATL@@QAAXHABUCModuleInfo@CTraceSnapshot@@@Z 000df5f0 f i atlsd:Allocate.obj
 0001:000ce680       ?InternalSetAtIndex@?$CSimpleArray@KV?$CSimpleArrayEqualHelper@K@ATL@@@ATL@@QAAXHABK@Z 000df680 f i atlsd:Allocate.obj
 0001:000ce710       ??0Wrapper@?$CSimpleArray@UCModuleInfo@CTraceSnapshot@@V?$CSimpleArrayEqualHelper@UCModuleInfo@CTraceSnapshot@@@ATL@@@ATL@@QAA@ABUCModuleInfo@CTraceSnapshot@@@Z 000df710 f i atlsd:Allocate.obj
 0001:000ce748       ??0Wrapper@?$CSimpleArray@KV?$CSimpleArrayEqualHelper@K@ATL@@@ATL@@QAA@ABK@Z 000df748 f i atlsd:Allocate.obj
 0001:000ce780       ??$?2UCModuleInfo@CTraceSnapshot@@@Wrapper@?$CSimpleArray@UCModuleInfo@CTraceSnapshot@@V?$CSimpleArrayEqualHelper@UCModuleInfo@CTraceSnapshot@@@ATL@@@ATL@@SAPAXIPAUCModuleInfo@CTraceSnapshot@@@Z 000df780 f i atlsd:Allocate.obj
 0001:000ce7a8       ??$?2K@Wrapper@?$CSimpleArray@KV?$CSimpleArrayEqualHelper@K@ATL@@@ATL@@SAPAXIPAK@Z 000df7a8 f i atlsd:Allocate.obj
 0001:000ce7d0       ??0CAtlTraceModuleInfo@@QAA@XZ 000df7d0 f   atlsd:AtlTraceModuleManager.obj
 0001:000ce844       ?Reset@CAtlTraceModuleInfo@@QAAXPAUHINSTANCE__@@@Z 000df844 f   atlsd:AtlTraceModuleManager.obj
 0001:000ce9e0       ??0CAtlTraceCategory@@QAA@XZ 000df9e0 f   atlsd:AtlTraceModuleManager.obj
 0001:000cea4c       ?Reset@CAtlTraceCategory@@QAAXPB_WJ@Z 000dfa4c f   atlsd:AtlTraceModuleManager.obj
 0001:000ceacc       ??0CAtlTraceModule@@QAA@XZ 000dfacc f   atlsd:AtlTraceModuleManager.obj
 0001:000ceb38       ?CrtDbgReport@CAtlTraceModule@@QAAXP6AHHPB_WH00ZZ@Z 000dfb38 f   atlsd:AtlTraceModuleManager.obj
 0001:000ceb8c       ??0CAtlTraceProcess@@QAA@K@Z 000dfb8c f   atlsd:AtlTraceModuleManager.obj
 0001:000ced04       ?GetNextCookie@CAtlTraceProcess@@QAAJXZ 000dfd04 f   atlsd:AtlTraceModuleManager.obj
 0001:000ced4c       ??0CAtlTraceSettings@@QAA@XZ 000dfd4c f i atlsd:AtlTraceModuleManager.obj
 0001:000cedb0       _time64                    000dfdb0 f   LIBCMT:time64.obj
 0001:000cf2ac       _mktime64                  000e02ac f   LIBCMT:mktime64.obj
 0001:000cf2cc       _mkgmtime64                000e02cc f   LIBCMT:mktime64.obj
 0001:000cf2ec       _gmtime64_s                000e02ec f   LIBCMT:gmtime64.obj
 0001:000cf6d8       _localtime64_s             000e06d8 f   LIBCMT:loctim64.obj
 0001:000cfbbc       _get_daylight              000e0bbc f   LIBCMT:timeset.obj
 0001:000cfc18       _get_dstbias               000e0c18 f   LIBCMT:timeset.obj
 0001:000cfc74       _get_timezone              000e0c74 f   LIBCMT:timeset.obj
 0001:000cfcd0       __daylight                 000e0cd0 f   LIBCMT:timeset.obj
 0001:000cfcdc       __dstbias                  000e0cdc f   LIBCMT:timeset.obj
 0001:000cfce8       __timezone                 000e0ce8 f   LIBCMT:timeset.obj
 0001:000cfcf4       __tzname                   000e0cf4 f   LIBCMT:timeset.obj
 0001:000cfd00       _set_daylight              000e0d00 f i LIBCMT:tzset.obj
 0001:000cfd24       _set_dstbias               000e0d24 f i LIBCMT:tzset.obj
 0001:000cfd48       _set_timezone              000e0d48 f i LIBCMT:tzset.obj
 0001:000d0680       __tzset                    000e1680 f   LIBCMT:tzset.obj
 0001:000d0714       _tzset                     000e1714 f   LIBCMT:tzset.obj
 0001:000d077c       _isindst                   000e177c f   LIBCMT:tzset.obj
 0001:000d07e8       _Getdays_l                 000e17e8 f   LIBCMT:strftime.obj
 0001:000d0974       _Getdays                   000e1974 f   LIBCMT:strftime.obj
 0001:000d0994       _Getmonths_l               000e1994 f   LIBCMT:strftime.obj
 0001:000d0b20       _Getmonths                 000e1b20 f   LIBCMT:strftime.obj
 0001:000d0b40       _Gettnames_l               000e1b40 f   LIBCMT:strftime.obj
 0001:000d102c       _Gettnames                 000e202c f   LIBCMT:strftime.obj
 0001:000d2594       _Strftime_l                000e3594 f   LIBCMT:strftime.obj
 0001:000d27cc       CoTaskMemAlloc             000e37cc f   ole32:ole32.dll
 0001:000d27dc       CoTaskMemFree              000e37dc f   ole32:ole32.dll
 0001:000d27ec       StringFromCLSID            000e37ec f   ole32:ole32.dll
 0001:000d27fc       CoCreateInstance           000e37fc f   ole32:ole32.dll
 0001:000d280c       StringFromGUID2            000e380c f   ole32:ole32.dll
 0001:000d281c       CLSIDFromString            000e381c f   ole32:ole32.dll
 0001:000d282c       CLSIDFromProgID            000e382c f   ole32:ole32.dll
 0001:000d283c       OleRun                     000e383c f   ole32:ole32.dll
 0001:000d284c       CreateStreamOnHGlobal      000e384c f   ole32:ole32.dll
 0001:000d285c       WriteClassStm              000e385c f   ole32:ole32.dll
 0001:000d286c       ReadClassStm               000e386c f   ole32:ole32.dll
 0001:000d287c       SysStringLen               000e387c f   oleaut32:OLEAUT32.dll
 0001:000d288c       SysAllocStringByteLen      000e388c f   oleaut32:OLEAUT32.dll
 0001:000d289c       SysStringByteLen           000e389c f   oleaut32:OLEAUT32.dll
 0001:000d28ac       SysFreeString              000e38ac f   oleaut32:OLEAUT32.dll
 0001:000d28bc       VariantClear               000e38bc f   oleaut32:OLEAUT32.dll
 0001:000d28cc       SafeArrayGetDim            000e38cc f   oleaut32:OLEAUT32.dll
 0001:000d28dc       SafeArrayGetElemsize       000e38dc f   oleaut32:OLEAUT32.dll
 0001:000d28ec       SafeArrayUnaccessData      000e38ec f   oleaut32:OLEAUT32.dll
 0001:000d28fc       SafeArrayAccessData        000e38fc f   oleaut32:OLEAUT32.dll
 0001:000d290c       SafeArrayGetUBound         000e390c f   oleaut32:OLEAUT32.dll
 0001:000d291c       SafeArrayGetLBound         000e391c f   oleaut32:OLEAUT32.dll
 0001:000d292c       SafeArrayRedim             000e392c f   oleaut32:OLEAUT32.dll
 0001:000d293c       SafeArrayCreate            000e393c f   oleaut32:OLEAUT32.dll
 0001:000d294c       VariantCopy                000e394c f   oleaut32:OLEAUT32.dll
 0001:000d295c       VariantChangeType          000e395c f   oleaut32:OLEAUT32.dll
 0001:000d296c       SysReAllocStringLen        000e396c f   oleaut32:OLEAUT32.dll
 0001:000d297c       SafeArrayCopy              000e397c f   oleaut32:OLEAUT32.dll
 0001:000d298c       SafeArrayAllocData         000e398c f   oleaut32:OLEAUT32.dll
 0001:000d299c       SafeArrayAllocDescriptor   000e399c f   oleaut32:OLEAUT32.dll
 0001:000d29ac       SafeArrayGetElement        000e39ac f   oleaut32:OLEAUT32.dll
 0001:000d29bc       SafeArrayPtrOfIndex        000e39bc f   oleaut32:OLEAUT32.dll
 0001:000d29cc       SafeArrayPutElement        000e39cc f   oleaut32:OLEAUT32.dll
 0001:000d29dc       SafeArrayLock              000e39dc f   oleaut32:OLEAUT32.dll
 0001:000d29ec       SafeArrayUnlock            000e39ec f   oleaut32:OLEAUT32.dll
 0001:000d29fc       SafeArrayDestroy           000e39fc f   oleaut32:OLEAUT32.dll
 0001:000d2a0c       SafeArrayDestroyData       000e3a0c f   oleaut32:OLEAUT32.dll
 0001:000d2a1c       SafeArrayDestroyDescriptor 000e3a1c f   oleaut32:OLEAUT32.dll
 0001:000d2a2c       VarBstrFromDec             000e3a2c f   oleaut32:OLEAUT32.dll
 0001:000d2a3c       VarDecFromStr              000e3a3c f   oleaut32:OLEAUT32.dll
 0001:000d2a4c       SysAllocStringLen          000e3a4c f   oleaut32:OLEAUT32.dll
 0001:000d2a5c       VarDateFromStr             000e3a5c f   oleaut32:OLEAUT32.dll
 0001:000d2a6c       VarBstrFromDate            000e3a6c f   oleaut32:OLEAUT32.dll
 0001:000d2a7c       SysAllocString             000e3a7c f   oleaut32:OLEAUT32.dll
 0001:000d2a8c       LoadTypeLib                000e3a8c f   oleaut32:OLEAUT32.dll
 0001:000d2a9c       VariantTimeToSystemTime    000e3a9c f   oleaut32:OLEAUT32.dll
 0001:000d2aac       VarUdateFromDate           000e3aac f   oleaut32:OLEAUT32.dll
 0001:000d2abc       VarDateFromUdate           000e3abc f   oleaut32:OLEAUT32.dll
 0001:000d2acc       SystemTimeToVariantTime    000e3acc f   oleaut32:OLEAUT32.dll
 0001:000d2adc       WinMain                    000e3adc f   uafxcwd:appmodul.obj
 0001:000d2b1c       ?AfxInitialize@@YAHHK@Z    000e3b1c f   uafxcwd:appmodul.obj
 0001:000d2b98       ?_AfxTermAppState@@YAXXZ   000e3b98 f   uafxcwd:appmodul.obj
 0001:000d2bb8       ?_AfxFindModuleInfoProc@@YAHPAUHWND__@@J@Z 000e3bb8 f   uafxcwd:winmain.obj
 0001:000d2ca4       ?AfxWinMain@@YAHPAUHINSTANCE__@@0PA_WH@Z 000e3ca4 f   uafxcwd:winmain.obj
 0001:000d3170       TerminateProcess           000e4170 f   coredll:COREDLL.dll
 0001:000d3180       OutputDebugStringW         000e4180 f   coredll:COREDLL.dll
 0001:000d3190       OpenEventW                 000e4190 f   coredll:COREDLL.dll
 0001:000d31a0       MsgWaitForMultipleObjectsEx 000e41a0 f   coredll:COREDLL.dll
 0001:000d31b0       IsRectEmpty                000e41b0 f   coredll:COREDLL.dll
 0001:000d31c0       PtInRect                   000e41c0 f   coredll:COREDLL.dll
 0001:000d31d0       InflateRect                000e41d0 f   coredll:COREDLL.dll
 0001:000d31e0       IntersectRect              000e41e0 f   coredll:COREDLL.dll
 0001:000d31f0       UnionRect                  000e41f0 f   coredll:COREDLL.dll
 0001:000d3200       SubtractRect               000e4200 f   coredll:COREDLL.dll
 0001:000d3210       FileTimeToLocalFileTime    000e4210 f   coredll:COREDLL.dll
 0001:000d3220       GetSystemTime              000e4220 f   coredll:COREDLL.dll
 0001:000d3230       VirtualAlloc               000e4230 f   coredll:COREDLL.dll
 0001:000d3240       UnmapViewOfFile            000e4240 f   coredll:COREDLL.dll
 0001:000d3250       GetSystemInfo              000e4250 f   coredll:COREDLL.dll
 0001:000d3260       MapViewOfFile              000e4260 f   coredll:COREDLL.dll
 0001:000d3270       CreateFileMappingW         000e4270 f   coredll:COREDLL.dll
 0001:000d3280       GetTimeZoneInformation     000e4280 f   coredll:COREDLL.dll
 0001:000d3290       GetTimeFormatW             000e4290 f   coredll:COREDLL.dll
 0001:000d32a0       GetDateFormatW             000e42a0 f   coredll:COREDLL.dll
 0001:000d32b0       ReleaseMutex               000e42b0 f   coredll:COREDLL.dll
 0001:000d32c0       Sleep                      000e42c0 f   coredll:COREDLL.dll
 0001:000d32d0       EnumWindows                000e42d0 f   coredll:COREDLL.dll
 0001:000d32e0       CreateMutexW               000e42e0 f   coredll:COREDLL.dll
 0001:000d32f0       wcstombs                   000e42f0 f   corelibc:COREDLL.dll
 0001:000d3300       __ltd                      000e4300 f   corelibc:COREDLL.dll
 0001:000d3310       __negd                     000e4310 f   corelibc:COREDLL.dll
 0001:000d3320       __addd                     000e4320 f   corelibc:COREDLL.dll
 0001:000d3330       __gtd                      000e4330 f   corelibc:COREDLL.dll
 0001:000d3340       __subd                     000e4340 f   corelibc:COREDLL.dll
 0001:000d3350       ceil                       000e4350 f   corelibc:COREDLL.dll
 0001:000d3360       floor                      000e4360 f   corelibc:COREDLL.dll
 0001:000d3370       __rt_srem64by64            000e4370 f   corelibc:COREDLL.dll
 0001:000d3380       _stricmp                   000e4380 f   corelibc:COREDLL.dll
 0001:000d3390       mbstowcs                   000e4390 f   corelibc:COREDLL.dll
 0002:00000000       __xc_a                     000e7000     corelibc:crt0init.obj
 0002:000000fc       __xc_z                     000e70fc     corelibc:crt0init.obj
 0002:00000100       __xi_a                     000e7100     corelibc:crt0init.obj
 0002:00000104       __xi_z                     000e7104     corelibc:crt0init.obj
 0002:00000108       __xp_a                     000e7108     corelibc:crt0init.obj
 0002:0000010c       __xp_z                     000e710c     corelibc:crt0init.obj
 0002:00000110       __xt_a                     000e7110     corelibc:crt0init.obj
 0002:00000114       __xt_z                     000e7114     corelibc:crt0init.obj
 0002:00000c6c       ??_7CEDiskInterface@@6B@   000e7c6c     disk.obj
 0002:00001730       ??_7CEDiskApp@@6B@         000e8730     EDisk.obj
 0002:00002270       ??_7CEDiskDlg@@6B@         000e9270     EDiskDlg.obj
 0002:00003468       ?classCEFat@CEFat@@2UCRuntimeClass@@B 000ea468     EFat.obj
 0002:00003488       ??_7CEFat@@6B@             000ea488     EFat.obj
 0002:000035f0       ?npos@?$basic_string@DU?$char_traits@D@std@@V?$allocator@D@2@@std@@2IB 000ea5f0     EFat.obj
 0002:000035f4       ?_C@?1??_Nullstr@?$basic_string@DU?$char_traits@D@std@@V?$allocator@D@2@@std@@CAPBDXZ@4DB 000ea5f4     EFat.obj
 0002:00003670       ??_C@_1JG@LEEMKLPF@?$AAD?$AA?3?$AA?2?$AAP?$AAr?$AAo?$AAg?$AAr?$AAa?$AAm?$AA?5?$AAF?$AAi?$AAl?$AAe?$AAs?$AA?2?$AAM?$AAi?$AAc?$AAr?$AAo?$AAs?$AAo?$AAf?$AAt?$AA?5?$AAV?$AAi?$AAs?$AAu?$AAa@ 000ea670     EFat.obj
 0002:00003708       ??_C@_1DM@KPGCKOJB@?$AAA?$AAt?$AAl?$AAI?$AAs?$AAV?$AAa?$AAl?$AAi?$AAd?$AAS?$AAt?$AAr?$AAi?$AAn?$AAg?$AA?$CI?$AA?5?$AAp?$AAs?$AAz?$AAF?$AAo?$AAr?$AAm?$AAa?$AAt?$AA?5?$AA?$CJ?$AA?$AA@ 000ea708     EFat.obj
 0002:00003744       ??_C@_1CK@DFMKPFAK@?$AAA?$AAt?$AAl?$AAT?$AAh?$AAr?$AAo?$AAw?$AA?3?$AA?5?$AAh?$AAr?$AA?5?$AA?$DN?$AA?5?$AA0?$AAx?$AA?$CF?$AAx?$AA?6?$AA?$AA@ 000ea744     EFat.obj
 0002:00003770       ??_C@_0EM@NFBKHCNP@D?3?2Program?5Files?2Microsoft?5Visua@ 000ea770     EFat.obj
 0002:000037bc       ??_C@_1CA@HIDLIOEE@?$AAn?$AAL?$AAe?$AAn?$AAg?$AAt?$AAh?$AA?5?$AA?$DM?$AA?$DN?$AA?5?$AA1?$AA0?$AA2?$AA4?$AA?$AA@ 000ea7bc     EFat.obj
 0002:000037e0       ??_C@_1JC@ODBHHPCJ@?$AAD?$AA?3?$AA?2?$AAP?$AAr?$AAo?$AAg?$AAr?$AAa?$AAm?$AA?5?$AAF?$AAi?$AAl?$AAe?$AAs?$AA?2?$AAM?$AAi?$AAc?$AAr?$AAo?$AAs?$AAo?$AAf?$AAt?$AA?5?$AAV?$AAi?$AAs?$AAu?$AAa@ 000ea7e0     EFat.obj
 0002:00003874       ??_C@_1BK@OGOKLNEF@?$AAn?$AAL?$AAe?$AAn?$AAg?$AAt?$AAh?$AA?5?$AA?$DO?$AA?$DN?$AA?5?$AA0?$AA?$AA@ 000ea874     EFat.obj
 0002:00003890       ??_C@_1BM@GBBOFEAE@?$AA_?$AA_?$AAa?$AAt?$AAl?$AA_?$AAc?$AAo?$AAn?$AAd?$AAV?$AAa?$AAl?$AA?$AA@ 000ea890     EFat.obj
 0002:000038b0       ??_C@_1JK@HLICEDIO@?$AAD?$AA?3?$AA?2?$AAP?$AAr?$AAo?$AAg?$AAr?$AAa?$AAm?$AA?5?$AAF?$AAi?$AAl?$AAe?$AAs?$AA?2?$AAM?$AAi?$AAc?$AAr?$AAo?$AAs?$AAo?$AAf?$AAt?$AA?5?$AAV?$AAi?$AAs?$AAu?$AAa@ 000ea8b0     EFat.obj
 0002:0000394c       ??_C@_1BG@GPELCNED@?$AAn?$AAR?$AAe?$AAf?$AAs?$AA?5?$AA?$CB?$AA?$DN?$AA?5?$AA0?$AA?$AA@ 000ea94c     EFat.obj
 0002:00003968       ??_C@_1EG@PELIOAAG@?$AAn?$AAL?$AAe?$AAn?$AAg?$AAt?$AAh?$AA?5?$AA?$DM?$AA?$DN?$AA?5?$AAG?$AAe?$AAt?$AAD?$AAa?$AAt?$AAa?$AA?$CI?$AA?$CJ?$AA?9?$AA?$DO?$AAn?$AAA?$AAl?$AAl?$AAo?$AAc?$AAL?$AAe?$AAn?$AAg@ 000ea968     EFat.obj
 0002:000039b0       ??_C@_1CA@FILBIMGF@?$AAn?$AAN?$AAe?$AAw?$AAL?$AAe?$AAn?$AAg?$AAt?$AAh?$AA?5?$AA?$DO?$AA?$DN?$AA?5?$AA0?$AA?$AA@ 000ea9b0     EFat.obj
 0002:000039d0       ??_C@_1EC@BCBEFJPM@?$AAp?$AAO?$AAl?$AAd?$AAD?$AAa?$AAt?$AAa?$AA?9?$AA?$DO?$AAn?$AAA?$AAl?$AAl?$AAo?$AAc?$AAL?$AAe?$AAn?$AAg?$AAt?$AAh?$AA?5?$AA?$DM?$AA?5?$AAn?$AAL?$AAe?$AAn?$AAg?$AAt?$AAh@ 000ea9d0     EFat.obj
 0002:00004738       ?classCEFile@CEFile@@2UCRuntimeClass@@B 000eb738     EFile.obj
 0002:00004758       ??_7CEFile@@6B@            000eb758     EFile.obj
 0002:00004890       ??_C@_1BI@CICKBKPD@?$AAi?$AAS?$AAt?$AAa?$AAr?$AAt?$AA?5?$AA?$DO?$AA?$DN?$AA?5?$AA0?$AA?$AA@ 000eb890     EFile.obj
 0002:000048e0       ??_C@_1FC@BMOLDHIO@?$AAW?$AAa?$AAr?$AAn?$AAi?$AAn?$AAg?$AA?3?$AA?5?$AAi?$AAm?$AAp?$AAl?$AAi?$AAc?$AAi?$AAt?$AA?5?$AAL?$AAo?$AAa?$AAd?$AAS?$AAt?$AAr?$AAi?$AAn?$AAg?$AA?$CI?$AA?$CF?$AAu?$AA?$CJ@ 000eb8e0     EFile.obj
 0002:00004938       ??_C@_0EL@KNBBKLNN@D?3?2Program?5Files?2Microsoft?5Visua@ 000eb938     EFile.obj
 0002:00004984       ??_C@_1BE@BLGCOAPB@?$AAn?$AAR?$AAe?$AAf?$AAs?$AA?5?$AA?$DO?$AA?5?$AA0?$AA?$AA@ 000eb984     EFile.obj
 0002:00004998       ??_C@_1JE@MMKAINOJ@?$AAD?$AA?3?$AA?2?$AAP?$AAr?$AAo?$AAg?$AAr?$AAa?$AAm?$AA?5?$AAF?$AAi?$AAl?$AAe?$AAs?$AA?2?$AAM?$AAi?$AAc?$AAr?$AAo?$AAs?$AAo?$AAf?$AAt?$AA?5?$AAV?$AAi?$AAs?$AAu?$AAa@ 000eb998     EFile.obj
 0002:00004a2c       ??_C@_1O@JFMKDNFA@?$AAp?$AA?5?$AA?$CB?$AA?$DN?$AA?5?$AA0?$AA?$AA@ 000eba2c     EFile.obj
 0002:000064cc       ?_Min@?$AtlLimits@H@ATL@@2HB 000ed4cc     stdafx.obj
 0002:000064d0       ?_Max@?$AtlLimits@H@ATL@@2HB 000ed4d0     stdafx.obj
 0002:000064d4       ?_Min@?$AtlLimits@I@ATL@@2IB 000ed4d4     stdafx.obj
 0002:000064d8       ?_Max@?$AtlLimits@I@ATL@@2IB 000ed4d8     stdafx.obj
 0002:000064dc       ?_Min@?$AtlLimits@J@ATL@@2JB 000ed4dc     stdafx.obj
 0002:000064e0       ?_Max@?$AtlLimits@J@ATL@@2JB 000ed4e0     stdafx.obj
 0002:000064e4       ?_Min@?$AtlLimits@K@ATL@@2KB 000ed4e4     stdafx.obj
 0002:000064e8       ?_Max@?$AtlLimits@K@ATL@@2KB 000ed4e8     stdafx.obj
 0002:000064f0       ?_Min@?$AtlLimits@_J@ATL@@2_JB 000ed4f0     stdafx.obj
 0002:000064f8       ?_Max@?$AtlLimits@_J@ATL@@2_JB 000ed4f8     stdafx.obj
 0002:00006500       ?_Min@?$AtlLimits@_K@ATL@@2_KB 000ed500     stdafx.obj
 0002:00006508       ?_Max@?$AtlLimits@_K@ATL@@2_KB 000ed508     stdafx.obj
 0002:00006510       ?VT@?$CVarTypeInfo@D@ATL@@2GB 000ed510     stdafx.obj
 0002:00006514       ?pmField@?$CVarTypeInfo@D@ATL@@2QQtagVARIANT@@DQ3@ 000ed514     stdafx.obj
 0002:00006518       ?VT@?$CVarTypeInfo@E@ATL@@2GB 000ed518     stdafx.obj
 0002:0000651c       ?pmField@?$CVarTypeInfo@E@ATL@@2QQtagVARIANT@@EQ3@ 000ed51c     stdafx.obj
 0002:00006520       ?VT@?$CVarTypeInfo@PAD@ATL@@2GB 000ed520     stdafx.obj
 0002:00006524       ?pmField@?$CVarTypeInfo@PAD@ATL@@2QQtagVARIANT@@PADQ3@ 000ed524     stdafx.obj
 0002:00006528       ?VT@?$CVarTypeInfo@PAE@ATL@@2GB 000ed528     stdafx.obj
 0002:0000652c       ?pmField@?$CVarTypeInfo@PAE@ATL@@2QQtagVARIANT@@PAEQ3@ 000ed52c     stdafx.obj
 0002:00006530       ?VT@?$CVarTypeInfo@F@ATL@@2GB 000ed530     stdafx.obj
 0002:00006534       ?pmField@?$CVarTypeInfo@F@ATL@@2QQtagVARIANT@@FQ3@ 000ed534     stdafx.obj
 0002:00006538       ?VT@?$CVarTypeInfo@PAF@ATL@@2GB 000ed538     stdafx.obj
 0002:0000653c       ?pmField@?$CVarTypeInfo@PAF@ATL@@2QQtagVARIANT@@PAFQ3@ 000ed53c     stdafx.obj
 0002:00006540       ?VT@?$CVarTypeInfo@G@ATL@@2GB 000ed540     stdafx.obj
 0002:00006544       ?pmField@?$CVarTypeInfo@G@ATL@@2QQtagVARIANT@@GQ3@ 000ed544     stdafx.obj
 0002:00006548       ?VT@?$CVarTypeInfo@PAG@ATL@@2GB 000ed548     stdafx.obj
 0002:0000654c       ?pmField@?$CVarTypeInfo@PAG@ATL@@2QQtagVARIANT@@PAGQ3@ 000ed54c     stdafx.obj
 0002:00006550       ?VT@?$CVarTypeInfo@H@ATL@@2GB 000ed550     stdafx.obj
 0002:00006554       ?pmField@?$CVarTypeInfo@H@ATL@@2QQtagVARIANT@@HQ3@ 000ed554     stdafx.obj
 0002:00006558       ?VT@?$CVarTypeInfo@PAH@ATL@@2GB 000ed558     stdafx.obj
 0002:0000655c       ?pmField@?$CVarTypeInfo@PAH@ATL@@2QQtagVARIANT@@PAHQ3@ 000ed55c     stdafx.obj
 0002:00006560       ?VT@?$CVarTypeInfo@I@ATL@@2GB 000ed560     stdafx.obj
 0002:00006564       ?pmField@?$CVarTypeInfo@I@ATL@@2QQtagVARIANT@@IQ3@ 000ed564     stdafx.obj
 0002:00006568       ?VT@?$CVarTypeInfo@PAI@ATL@@2GB 000ed568     stdafx.obj
 0002:0000656c       ?pmField@?$CVarTypeInfo@PAI@ATL@@2QQtagVARIANT@@PAIQ3@ 000ed56c     stdafx.obj
 0002:00006570       ?VT@?$CVarTypeInfo@J@ATL@@2GB 000ed570     stdafx.obj
 0002:00006574       ?pmField@?$CVarTypeInfo@J@ATL@@2QQtagVARIANT@@JQ3@ 000ed574     stdafx.obj
 0002:00006578       ?VT@?$CVarTypeInfo@PAJ@ATL@@2GB 000ed578     stdafx.obj
 0002:0000657c       ?pmField@?$CVarTypeInfo@PAJ@ATL@@2QQtagVARIANT@@PAJQ3@ 000ed57c     stdafx.obj
 0002:00006580       ?VT@?$CVarTypeInfo@K@ATL@@2GB 000ed580     stdafx.obj
 0002:00006584       ?pmField@?$CVarTypeInfo@K@ATL@@2QQtagVARIANT@@KQ3@ 000ed584     stdafx.obj
 0002:00006588       ?VT@?$CVarTypeInfo@PAK@ATL@@2GB 000ed588     stdafx.obj
 0002:0000658c       ?pmField@?$CVarTypeInfo@PAK@ATL@@2QQtagVARIANT@@PAKQ3@ 000ed58c     stdafx.obj
 0002:00006590       ?VT@?$CVarTypeInfo@M@ATL@@2GB 000ed590     stdafx.obj
 0002:00006594       ?pmField@?$CVarTypeInfo@M@ATL@@2QQtagVARIANT@@MQ3@ 000ed594     stdafx.obj
 0002:00006598       ?VT@?$CVarTypeInfo@PAM@ATL@@2GB 000ed598     stdafx.obj
 0002:0000659c       ?pmField@?$CVarTypeInfo@PAM@ATL@@2QQtagVARIANT@@PAMQ3@ 000ed59c     stdafx.obj
 0002:000065a0       ?VT@?$CVarTypeInfo@N@ATL@@2GB 000ed5a0     stdafx.obj
 0002:000065a4       ?pmField@?$CVarTypeInfo@N@ATL@@2QQtagVARIANT@@NQ3@ 000ed5a4     stdafx.obj
 0002:000065a8       ?VT@?$CVarTypeInfo@PAN@ATL@@2GB 000ed5a8     stdafx.obj
 0002:000065ac       ?pmField@?$CVarTypeInfo@PAN@ATL@@2QQtagVARIANT@@PANQ3@ 000ed5ac     stdafx.obj
 0002:000065b0       ?VT@?$CVarTypeInfo@UtagVARIANT@@@ATL@@2GB 000ed5b0     stdafx.obj
 0002:000065b4       ?VT@?$CVarTypeInfo@PA_W@ATL@@2GB 000ed5b4     stdafx.obj
 0002:000065b8       ?pmField@?$CVarTypeInfo@PA_W@ATL@@2QQtagVARIANT@@PA_WQ3@ 000ed5b8     stdafx.obj
 0002:000065bc       ?VT@?$CVarTypeInfo@PAPA_W@ATL@@2GB 000ed5bc     stdafx.obj
 0002:000065c0       ?pmField@?$CVarTypeInfo@PAPA_W@ATL@@2QQtagVARIANT@@PAPA_WQ3@ 000ed5c0     stdafx.obj
 0002:000065c4       ?VT@?$CVarTypeInfo@PAUIUnknown@@@ATL@@2GB 000ed5c4     stdafx.obj
 0002:000065c8       ?pmField@?$CVarTypeInfo@PAUIUnknown@@@ATL@@2QQtagVARIANT@@PAUIUnknown@@Q3@ 000ed5c8     stdafx.obj
 0002:000065cc       ?VT@?$CVarTypeInfo@PAPAUIUnknown@@@ATL@@2GB 000ed5cc     stdafx.obj
 0002:000065d0       ?pmField@?$CVarTypeInfo@PAPAUIUnknown@@@ATL@@2QQtagVARIANT@@PAPAUIUnknown@@Q3@ 000ed5d0     stdafx.obj
 0002:000065d4       ?VT@?$CVarTypeInfo@PAUIDispatch@@@ATL@@2GB 000ed5d4     stdafx.obj
 0002:000065d8       ?pmField@?$CVarTypeInfo@PAUIDispatch@@@ATL@@2QQtagVARIANT@@PAUIDispatch@@Q3@ 000ed5d8     stdafx.obj
 0002:000065dc       ?VT@?$CVarTypeInfo@PAPAUIDispatch@@@ATL@@2GB 000ed5dc     stdafx.obj
 0002:000065e0       ?pmField@?$CVarTypeInfo@PAPAUIDispatch@@@ATL@@2QQtagVARIANT@@PAPAUIDispatch@@Q3@ 000ed5e0     stdafx.obj
 0002:000065e4       ?VT@?$CVarTypeInfo@TtagCY@@@ATL@@2GB 000ed5e4     stdafx.obj
 0002:000065e8       ?pmField@?$CVarTypeInfo@TtagCY@@@ATL@@2QQtagVARIANT@@TtagCY@@Q3@ 000ed5e8     stdafx.obj
 0002:000065ec       ?VT@?$CVarTypeInfo@PATtagCY@@@ATL@@2GB 000ed5ec     stdafx.obj
 0002:000065f0       ?pmField@?$CVarTypeInfo@PATtagCY@@@ATL@@2QQtagVARIANT@@PATtagCY@@Q3@ 000ed5f0     stdafx.obj
 0002:000065f4       ?c_bIsMFCDLLTraits@?$_MFCDLLTraitsCheck@DV?$StrTraitATL@DV?$ChTraitsOS@D@ATL@@@ATL@@@_CSTRING_IMPL_@ATL@@2_NB 000ed5f4     stdafx.obj
 0002:000065f5       ?c_bIsMFCDLLTraits@?$_MFCDLLTraitsCheck@_WV?$StrTraitATL@_WV?$ChTraitsOS@_W@ATL@@@ATL@@@_CSTRING_IMPL_@ATL@@2_NB 000ed5f5     stdafx.obj
 0002:000065f8       ?generic@CArchiveException@@2HB 000ed5f8     stdafx.obj
 0002:000065fc       ?c_bIsMFCDLLTraits@?$_MFCDLLTraitsCheck@_WV?$StrTraitMFC@_WV?$ChTraitsOS@_W@ATL@@@@@_CSTRING_IMPL_@ATL@@2_NB 000ed5fc     stdafx.obj
 0002:00006600       ?generic@CFileException@@2HB 000ed600     stdafx.obj
 0002:00006608       ?Millisecond@CFileTime@ATL@@2_KB 000ed608     stdafx.obj
 0002:00006610       ?Second@CFileTime@ATL@@2_KB 000ed610     stdafx.obj
 0002:00006618       ?Minute@CFileTime@ATL@@2_KB 000ed618     stdafx.obj
 0002:00006620       ?Hour@CFileTime@ATL@@2_KB  000ed620     stdafx.obj
 0002:00006628       ?Day@CFileTime@ATL@@2_KB   000ed628     stdafx.obj
 0002:00006630       ?Week@CFileTime@ATL@@2_KB  000ed630     stdafx.obj
 0002:00006638       ?szInvalidDateTime@ATL@@3QB_WB 000ed638     stdafx.obj
 0002:0000663c       ?szInvalidDateTimeSpan@ATL@@3QB_WB 000ed63c     stdafx.obj
 0002:00006640       ?CLSID_WinFormsControl@@3U_GUID@@B 000ed640     stdafx.obj
 0002:00007344       ?npos@?$basic_string@_WU?$char_traits@_W@std@@V?$allocator@_W@2@@std@@2IB 000ee344     eutil.obj
 0002:00007348       ?_C@?1??_Nullstr@?$basic_string@_WU?$char_traits@_W@std@@V?$allocator@_W@2@@std@@CAPB_WXZ@4_WB 000ee348     eutil.obj
 0002:00007fd4       ??_7CEFatfs@@6B@           000eefd4     fatfs1.obj
 0002:00009144       ??_C@_13COJANIEC@?$AA0?$AA?$AA@ 000f0144     uafxcwd:afxasert.obj
 0002:00009148       ??_C@_1BC@GCPDCDFJ@?$AAl?$AAp?$AAw?$AA?5?$AA?$CB?$AA?$DN?$AA?5?$AA0?$AA?$AA@ 000f0148     uafxcwd:afxasert.obj
 0002:00009160       ??_C@_1GM@ONPBOLDB@?$AAf?$AA?3?$AA?2?$AAs?$AAp?$AA?2?$AAv?$AAc?$AAt?$AAo?$AAo?$AAl?$AAs?$AA?2?$AAv?$AAc?$AA7?$AAl?$AAi?$AAb?$AAs?$AAc?$AAe?$AA?2?$AAs?$AAh?$AAi?$AAp?$AA?2?$AAa?$AAt?$AAl@ 000f0160     uafxcwd:afxasert.obj
 0002:000091cc       ??_C@_1BC@PMIDFEID@?$AAl?$AAp?$AAa?$AA?5?$AA?$CB?$AA?$DN?$AA?5?$AA0?$AA?$AA@ 000f01cc     uafxcwd:afxasert.obj
 0002:000091e0       ??_C@_1GM@LJKLOFMJ@?$AAf?$AA?3?$AA?2?$AAs?$AAp?$AA?2?$AAv?$AAc?$AAt?$AAo?$AAo?$AAl?$AAs?$AA?2?$AAv?$AAc?$AA7?$AAl?$AAi?$AAb?$AAs?$AAc?$AAe?$AA?2?$AAs?$AAh?$AAi?$AAp?$AA?2?$AAa?$AAt?$AAl@ 000f01e0     uafxcwd:afxasert.obj
 0002:00009320       ??_C@_1HE@NPPJIPEL@?$AAf?$AA?3?$AA?2?$AAs?$AAp?$AA?2?$AAv?$AAc?$AAt?$AAo?$AAo?$AAl?$AAs?$AA?2?$AAv?$AAc?$AA7?$AAl?$AAi?$AAb?$AAs?$AAc?$AAe?$AA?2?$AAs?$AAh?$AAi?$AAp?$AA?2?$AAa?$AAt?$AAl@ 000f0320     uafxcwd:afxasert.obj
 0002:00009398       ??_C@_1EA@JHMKKLFC@?$AAn?$AAI?$AAn?$AAd?$AAe?$AAx?$AA?5?$AA?$DO?$AA?$DN?$AA?5?$AA0?$AA?5?$AA?$CG?$AA?$CG?$AA?5?$AAn?$AAI?$AAn?$AAd?$AAe?$AAx?$AA?5?$AA?$DM?$AA?5?$AAm?$AA_?$AAn?$AAS?$AAi?$AAz?$AAe?$AA?$AA@ 000f0398     uafxcwd:afxasert.obj
 0002:0000ae74       ?classCWinApp@CWinApp@@2UCRuntimeClass@@B 000f1e74     uafxcwd:appcore.obj
 0002:0000aecc       ??_7CWinApp@@6B@           000f1ecc     uafxcwd:appcore.obj
 0002:0000af70       ??_7CCommandLineInfo@@6B@  000f1f70     uafxcwd:appcore.obj
 0002:0000af84       ??_C@_0DG@PHGDCPDG@f?3?2sp?2vctools?2vc7libsce?2ship?2atl@ 000f1f84     uafxcwd:appcore.obj
 0002:0000b000       ??_C@_1HC@ICHFOPNA@?$AAf?$AA?3?$AA?2?$AAs?$AAp?$AA?2?$AAv?$AAc?$AAt?$AAo?$AAo?$AAl?$AAs?$AA?2?$AAv?$AAc?$AA7?$AAl?$AAi?$AAb?$AAs?$AAc?$AAe?$AA?2?$AAs?$AAh?$AAi?$AAp?$AA?2?$AAa?$AAt?$AAl@ 000f2000     uafxcwd:appcore.obj
 0002:0000b074       ??_C@_0DI@HJHMMFPJ@f?3?2sp?2vctools?2vc7libsce?2ship?2atl@ 000f2074     uafxcwd:appcore.obj
 0002:0000c60c       ??_7CObject@@6B@           000f360c     uafxcwd:afxinl1.obj
 0002:0000c620       ??_7CException@@6B@        000f3620     uafxcwd:afxinl1.obj
 0002:0000c640       ??_7CSimpleException@@6B@  000f3640     uafxcwd:afxinl1.obj
 0002:0000c660       ??_7CMemoryException@@6B@  000f3660     uafxcwd:afxinl1.obj
 0002:0000c680       ??_7CNotSupportedException@@6B@ 000f3680     uafxcwd:afxinl1.obj
 0002:0000c6a0       ??_7CInvalidArgException@@6B@ 000f36a0     uafxcwd:afxinl1.obj
 0002:0000c6c0       ??_7CArchiveException@@6B@ 000f36c0     uafxcwd:afxinl1.obj
 0002:0000c6e0       ??_7CFileException@@6B@    000f36e0     uafxcwd:afxinl1.obj
 0002:0000c704       ??_7CCommonDialog@@6B@     000f3704     uafxcwd:afxinl1.obj
 0002:0000c7f4       ??_7CRectTracker@@6B@      000f37f4     uafxcwd:afxinl1.obj
 0002:0000c814       ??_7CBitmapButton@@6B@     000f3814     uafxcwd:afxinl1.obj
 0002:0000c954       ??_C@_0DH@MILGOIDA@f?3?2sp?2vctools?2vc7libsce?2ship?2atl@ 000f3954     uafxcwd:afxinl1.obj
 0002:0000c98c       ??_C@_0DH@HHFPMNPG@f?3?2sp?2vctools?2vc7libsce?2ship?2atl@ 000f398c     uafxcwd:afxinl1.obj
 0002:0000d0e4       ?eventsinkMap@CCmdTarget@@1UAFX_EVENTSINKMAP@@B 000f40e4     uafxcwd:cmdtarg.obj
 0002:0000d180       ?_dispatchEntries@CCmdTarget@@0QBUAFX_DISPMAP_ENTRY@@B 000f4180     uafxcwd:cmdtarg.obj
 0002:0000d1a0       ?dispatchMap@CCmdTarget@@1UAFX_DISPMAP@@B 000f41a0     uafxcwd:cmdtarg.obj
 0002:0000d1b0       ?_eventsinkEntries@CCmdTarget@@0QBUAFX_EVENTSINKMAP_ENTRY@@B 000f41b0     uafxcwd:cmdtarg.obj
 0002:0000d1d8       ?_interfaceEntries@CCmdTarget@@0QBUAFX_INTERFACEMAP_ENTRY@@B 000f41d8     uafxcwd:cmdtarg.obj
 0002:0000d1e8       ?interfaceMap@CCmdTarget@@1UAFX_INTERFACEMAP@@B 000f41e8     uafxcwd:cmdtarg.obj
 0002:0000d1f0       ?_connectionEntries@CCmdTarget@@0QBUAFX_CONNECTIONMAP_ENTRY@@B 000f41f0     uafxcwd:cmdtarg.obj
 0002:0000d1f8       ?connectionMap@CCmdTarget@@1UAFX_CONNECTIONMAP@@B 000f41f8     uafxcwd:cmdtarg.obj
 0002:0000e734       ?classCCmdTarget@CCmdTarget@@2UCRuntimeClass@@B 000f5734     uafxcwd:cmdtarg.obj
 0002:0000e754       ??_7CCmdTarget@@6B@        000f5754     uafxcwd:cmdtarg.obj
 0002:0000e7c8       ??_7CCmdUI@@6B@            000f57c8     uafxcwd:cmdtarg.obj
 0002:0001082c       ?classCWinThread@CWinThread@@2UCRuntimeClass@@B 000f782c     uafxcwd:thrdcore.obj
 0002:0001084c       ??_7CWinThread@@6B@        000f784c     uafxcwd:thrdcore.obj
 0002:000183a8       ?_afxPropSheetIDs@@3QBHB   000ff3a8     uafxcwd:dlgprop.obj
 0002:000183b8       ?classCPropertyPage@CPropertyPage@@2UCRuntimeClass@@B 000ff3b8     uafxcwd:dlgprop.obj
 0002:000183d4       ?classCPropertySheet@CPropertySheet@@2UCRuntimeClass@@B 000ff3d4     uafxcwd:dlgprop.obj
 0002:0001842c       ??_7CPropertyPage@@6B@     000ff42c     uafxcwd:dlgprop.obj
 0002:000185e4       ??_7CPropertySheet@@6B@    000ff5e4     uafxcwd:dlgprop.obj
 0002:000186b8       ??_C@_1GO@JMPHJLEI@?$AAf?$AA?3?$AA?2?$AAs?$AAp?$AA?2?$AAv?$AAc?$AAt?$AAo?$AAo?$AAl?$AAs?$AA?2?$AAv?$AAc?$AA7?$AAl?$AAi?$AAb?$AAs?$AAc?$AAe?$AA?2?$AAs?$AAh?$AAi?$AAp?$AA?2?$AAa?$AAt?$AAl@ 000ff6b8     uafxcwd:dlgprop.obj
 0002:0001872c       ??_7?$CArray@PAXPAX@@6B@   000ff72c     uafxcwd:dlgprop.obj
 0002:0001873c       ??_C@_0DK@GOKCMADH@f?3?2sp?2vctools?2vc7libsce?2ship?2atl@ 000ff73c     uafxcwd:dlgprop.obj
 0002:00018778       ??_C@_1DC@HIHNDKC@?$AAC?$AAr?$AAe?$AAa?$AAt?$AAe?$AAP?$AAr?$AAo?$AAp?$AAe?$AAr?$AAt?$AAy?$AAS?$AAh?$AAe?$AAe?$AAt?$AAP?$AAa?$AAg?$AAe?$AAW?$AA?$AA@ 000ff778     uafxcwd:dlgprop.obj
 0002:000187ac       ??_C@_1BK@NAKKEEKA@?$AAc?$AAo?$AAm?$AAm?$AAc?$AAt?$AAr?$AAl?$AA?4?$AAd?$AAl?$AAl?$AA?$AA@ 000ff7ac     uafxcwd:dlgprop.obj
 0002:000187c8       ??_C@_1DC@FAGHOJF@?$AAD?$AAe?$AAs?$AAt?$AAr?$AAo?$AAy?$AAP?$AAr?$AAo?$AAp?$AAe?$AAr?$AAt?$AAy?$AAS?$AAh?$AAe?$AAe?$AAt?$AAP?$AAa?$AAg?$AAe?$AA?$AA@ 000ff7c8     uafxcwd:dlgprop.obj
 0002:000187fc       ??_C@_1BO@GFLHEGJP@?$AAP?$AAr?$AAo?$AAp?$AAe?$AAr?$AAt?$AAy?$AAS?$AAh?$AAe?$AAe?$AAt?$AAW?$AA?$AA@ 000ff7fc     uafxcwd:dlgprop.obj
 0002:0001a180       ??_C@_1EO@PKAPMNFO@?$AA?$CI?$AAi?$AAC?$AAh?$AAa?$AAr?$AA?5?$AA?$DO?$AA?$DN?$AA?5?$AA0?$AA?$CJ?$AA?5?$AA?$CG?$AA?$CG?$AA?5?$AA?$CI?$AAi?$AAC?$AAh?$AAa?$AAr?$AA?5?$AA?$DM?$AA?$DN?$AA?5?$AAG?$AAe?$AAt?$AAL?$AAe?$AAn@ 00101180     uafxcwd:appui3.obj
 0002:0001e47c       ??_7CStatic@@6B@           0010547c     uafxcwd:afxinl3.obj
 0002:0001e54c       ??_7CButton@@6B@           0010554c     uafxcwd:afxinl3.obj
 0002:0001e61c       ??_7CListBox@@6B@          0010561c     uafxcwd:afxinl3.obj
 0002:0001e704       ??_7CComboBox@@6B@         00105704     uafxcwd:afxinl3.obj
 0002:0001e7e4       ??_7CEdit@@6B@             001057e4     uafxcwd:afxinl3.obj
 0002:0001e8ac       ??_7CScrollBar@@6B@        001058ac     uafxcwd:afxinl3.obj
 0002:00021850       ??_7CResourceException@@6B@ 00108850     uafxcwd:afxinl2.obj
 0002:00021870       ??_7CUserException@@6B@    00108870     uafxcwd:afxinl2.obj
 0002:00021890       ??_7CGdiObject@@6B@        00108890     uafxcwd:afxinl2.obj
 0002:000218a4       ??_7CPen@@6B@              001088a4     uafxcwd:afxinl2.obj
 0002:000218b8       ??_7CBrush@@6B@            001088b8     uafxcwd:afxinl2.obj
 0002:000218cc       ??_7CFont@@6B@             001088cc     uafxcwd:afxinl2.obj
 0002:000218e0       ??_7CBitmap@@6B@           001088e0     uafxcwd:afxinl2.obj
 0002:000218f4       ??_7CPalette@@6B@          001088f4     uafxcwd:afxinl2.obj
 0002:00021908       ??_7CRgn@@6B@              00108908     uafxcwd:afxinl2.obj
 0002:00021918       ??_C@_1GC@PNAKGKLE@?$AA?$CB?$AA?$CI?$AAn?$AAS?$AAt?$AAy?$AAl?$AAe?$AA?5?$AA?$CG?$AA?5?$AAP?$AAS?$AA_?$AAU?$AAP?$AAB?$AAI?$AAA?$AAS?$AA?$CJ?$AA?5?$AA?$HM?$AA?$HM?$AA?5?$AA?$CB?$AA?$CI?$AAn?$AAS?$AAt?$AAy?$AAl@ 00108918     uafxcwd:afxinl2.obj
 0002:00021980       ??_C@_1II@CHJPIMGJ@?$AAf?$AA?3?$AA?2?$AAs?$AAp?$AA?2?$AAv?$AAc?$AAt?$AAo?$AAo?$AAl?$AAs?$AA?2?$AAv?$AAc?$AA7?$AAl?$AAi?$AAb?$AAs?$AAc?$AAe?$AA?2?$AAs?$AAh?$AAi?$AAp?$AA?2?$AAa?$AAt?$AAl@ 00108980     uafxcwd:afxinl2.obj
 0002:00021a08       ??_C@_1GI@EBMOMMEC@?$AA?$CB?$AA?$CI?$AAn?$AAS?$AAt?$AAy?$AAl?$AAe?$AA?5?$AA?$CG?$AA?5?$AAP?$AAS?$AA_?$AAL?$AAE?$AAF?$AAT?$AAB?$AAI?$AAA?$AAS?$AA?$CJ?$AA?5?$AA?$HM?$AA?$HM?$AA?5?$AA?$CB?$AA?$CI?$AAn?$AAS?$AAt@ 00108a08     uafxcwd:afxinl2.obj
 0002:00021a74       ??_7CMenu@@6B@             00108a74     uafxcwd:afxinl2.obj
 0002:00021a90       ?_afxWnd@@3QB_WB           00108a90     uafxcwd:wincore.obj
 0002:00021aa8       ?_afxWndControlBar@@3QB_WB 00108aa8     uafxcwd:wincore.obj
 0002:00021ad0       ?_afxWndMDIFrame@@3QB_WB   00108ad0     uafxcwd:wincore.obj
 0002:00021af4       ?_afxWndFrameOrView@@3QB_WB 00108af4     uafxcwd:wincore.obj
 0002:00021b1c       ?_afxWndOleControl@@3QB_WB 00108b1c     uafxcwd:wincore.obj
 0002:000254b0       ?classCWnd@CWnd@@2UCRuntimeClass@@B 0010c4b0     uafxcwd:wincore.obj
 0002:000254d4       ??_7CWnd@@6B@              0010c4d4     uafxcwd:wincore.obj
 0002:000257e4       ??_7CTestCmdUI@@6B@        0010c7e4     uafxcwd:wincore.obj
 0002:00025884       ??_C@_0DH@GDAGEHKH@f?3?2sp?2vctools?2vc7libsce?2ship?2atl@ 0010c884     uafxcwd:wincore.obj
 0002:000258bc       ??_C@_1CK@JHBHHHJE@?$AAI?$AAn?$AAi?$AAt?$AAC?$AAo?$AAm?$AAm?$AAo?$AAn?$AAC?$AAo?$AAn?$AAt?$AAr?$AAo?$AAl?$AAs?$AAE?$AAx?$AA?$AA@ 0010c8bc     uafxcwd:wincore.obj
 0002:000258e8       ??_C@_1CG@LNMJALAI@?$AAI?$AAn?$AAi?$AAt?$AAC?$AAo?$AAm?$AAm?$AAo?$AAn?$AAC?$AAo?$AAn?$AAt?$AAr?$AAo?$AAl?$AAs?$AA?$AA@ 0010c8e8     uafxcwd:wincore.obj
 0002:00025910       ??_C@_0DG@DHEKNHJJ@f?3?2sp?2vctools?2vc7libsce?2ship?2atl@ 0010c910     uafxcwd:wincore.obj
 0002:0002748c       ??_C@_0DH@IECDANNB@f?3?2sp?2vctools?2vc7libsce?2ship?2atl@ 0010e48c     uafxcwd:winocc.obj
 0002:00028d94       ?classCStatic@CStatic@@2UCRuntimeClass@@B 0010fd94     uafxcwd:winctrl1.obj
 0002:00028db0       ?classCButton@CButton@@2UCRuntimeClass@@B 0010fdb0     uafxcwd:winctrl1.obj
 0002:00028dcc       ?classCListBox@CListBox@@2UCRuntimeClass@@B 0010fdcc     uafxcwd:winctrl1.obj
 0002:00028de8       ?classCComboBox@CComboBox@@2UCRuntimeClass@@B 0010fde8     uafxcwd:winctrl1.obj
 0002:00028e04       ?classCEdit@CEdit@@2UCRuntimeClass@@B 0010fe04     uafxcwd:winctrl1.obj
 0002:00028e20       ?classCScrollBar@CScrollBar@@2UCRuntimeClass@@B 0010fe20     uafxcwd:winctrl1.obj
 0002:0002b7f0       ?classCDialog@CDialog@@2UCRuntimeClass@@B 001127f0     uafxcwd:dlgcore.obj
 0002:0002b8f4       ??_7CDialog@@6B@           001128f4     uafxcwd:dlgcore.obj
 0002:00032258       ?classCOleException@COleException@@2UCRuntimeClass@@B 00119258     uafxcwd:olemisc.obj
 0002:00033eb4       ?classCException@CException@@2UCRuntimeClass@@B 0011aeb4     uafxcwd:except.obj
 0002:00033ed0       ?classCMemoryException@CMemoryException@@2UCRuntimeClass@@B 0011aed0     uafxcwd:except.obj
 0002:00033eec       ?classCNotSupportedException@CNotSupportedException@@2UCRuntimeClass@@B 0011aeec     uafxcwd:except.obj
 0002:00033f08       ?classCInvalidArgException@CInvalidArgException@@2UCRuntimeClass@@B 0011af08     uafxcwd:except.obj
 0002:000356e2       ?c_bIsMFCDLLTraits@?$_MFCDLLTraitsCheck@DV?$StrTraitMFC@DV?$ChTraitsOS@D@ATL@@@@@_CSTRING_IMPL_@ATL@@2_NB 0011c6e2     uafxcwd:strcore.obj
 0002:000357e8       ??_C@_1GK@BOMHNCAC@?$AAA?$AAt?$AAl?$AAI?$AAs?$AAV?$AAa?$AAl?$AAi?$AAd?$AAA?$AAd?$AAd?$AAr?$AAe?$AAs?$AAs?$AA?$CI?$AA?5?$AAp?$AAc?$AAh?$AA?0?$AA?5?$AAn?$AAL?$AAe?$AAn?$AAg?$AAt?$AAh?$AA?$CK@ 0011c7e8     uafxcwd:strcore.obj
 0002:000358d8       ??_C@_1GO@KIMPAEBH@?$AAf?$AA?3?$AA?2?$AAs?$AAp?$AA?2?$AAv?$AAc?$AAt?$AAo?$AAo?$AAl?$AAs?$AA?2?$AAv?$AAc?$AA7?$AAl?$AAi?$AAb?$AAs?$AAc?$AAe?$AA?2?$AAs?$AAh?$AAi?$AAp?$AA?2?$AAa?$AAt?$AAl@ 0011c8d8     uafxcwd:strcore.obj
 0002:00035948       ??_C@_1BC@EMCLECFJ@?$AAm?$AA_?$AAp?$AA?5?$AA?$DN?$AA?$DN?$AA?5?$AA0?$AA?$AA@ 0011c948     uafxcwd:strcore.obj
 0002:00035960       ??_7CAfxStringMgr@@6B@     0011c960     uafxcwd:strcore.obj
 0002:00035974       ??_C@_1CA@MEFFJNJ@?$AAp?$AAS?$AAt?$AAr?$AAi?$AAn?$AAg?$AAM?$AAg?$AAr?$AA?5?$AA?$DN?$AA?$DN?$AA?5?$AA0?$AA?$AA@ 0011c974     uafxcwd:strcore.obj
 0002:00037360       ?classCFileDialog@CFileDialog@@2UCRuntimeClass@@B 0011e360     uafxcwd:dlgfile.obj
 0002:00037384       ??_7CFileDialog@@6B@       0011e384     uafxcwd:dlgfile.obj
 0002:0003a0b0       ??_7_AFX_THREAD_STATE@@6B@ 001210b0     uafxcwd:afxstate.obj
 0002:0003a0b8       ??_7AFX_MODULE_STATE@@6B@  001210b8     uafxcwd:afxstate.obj
 0002:0003a0c0       ??_7AFX_MODULE_THREAD_STATE@@6B@ 001210c0     uafxcwd:afxstate.obj
 0002:0003a0c8       ??_7_AFX_AYGSHELL_STATE@@6B@ 001210c8     uafxcwd:afxstate.obj
 0002:0003a110       ??_7_AFX_BASE_MODULE_STATE@@6B@ 00121110     uafxcwd:afxstate.obj
 0002:0003a118       ??_7CNoTrackObject@@6B@    00121118     uafxcwd:afxstate.obj
 0002:0003a120       ??_7CComCtlWrapper@@6B@    00121120     uafxcwd:afxstate.obj
 0002:0003bcfc       ?classCObject@CObject@@2UCRuntimeClass@@B 00122cfc     uafxcwd:objcore.obj
 0002:0003d130       LIBID_ATLLib               00124130     uafxcwd:objcore.obj
 0002:0003d140       CLSID_Registrar            00124140     uafxcwd:objcore.obj
 0002:0003d150       IID_IRegistrar             00124150     uafxcwd:objcore.obj
 0002:0003d160       IID_IAxWinHostWindow       00124160     uafxcwd:objcore.obj
 0002:0003d170       IID_IAxWinAmbientDispatch  00124170     uafxcwd:objcore.obj
 0002:0003d180       IID_IInternalConnection    00124180     uafxcwd:objcore.obj
 0002:0003d190       IID_IDocHostUIHandlerDispatch 00124190     uafxcwd:objcore.obj
 0002:0003d1a0       IID_IAxWinHostWindowLic    001241a0     uafxcwd:objcore.obj
 0002:0003d1b0       IID_IAxWinAmbientDispatchEx 001241b0     uafxcwd:objcore.obj
 0002:0003d1c0       ?MAX_VALUE@CRegParser@ATL@@1HB 001241c0     uafxcwd:objcore.obj
 0002:0003d1c4       ?MAX_TYPE@CRegParser@ATL@@1HB 001241c4     uafxcwd:objcore.obj
 0002:0003d1c8       ?rgszNeverDelete@CRegParser@ATL@@1QBQB_WB 001241c8     uafxcwd:objcore.obj
 0002:0003d1f8       ?cbNeverDelete@CRegParser@ATL@@1HB 001241f8     uafxcwd:objcore.obj
 0002:000421b0       ?classCResourceException@CResourceException@@2UCRuntimeClass@@B 001291b0     uafxcwd:wingdi.obj
 0002:000421cc       ?classCUserException@CUserException@@2UCRuntimeClass@@B 001291cc     uafxcwd:wingdi.obj
 0002:000421e8       ?classCDC@CDC@@2UCRuntimeClass@@B 001291e8     uafxcwd:wingdi.obj
 0002:00042204       ?classCClientDC@CClientDC@@2UCRuntimeClass@@B 00129204     uafxcwd:wingdi.obj
 0002:00042220       ?classCWindowDC@CWindowDC@@2UCRuntimeClass@@B 00129220     uafxcwd:wingdi.obj
 0002:0004223c       ?classCPaintDC@CPaintDC@@2UCRuntimeClass@@B 0012923c     uafxcwd:wingdi.obj
 0002:00042258       ?classCGdiObject@CGdiObject@@2UCRuntimeClass@@B 00129258     uafxcwd:wingdi.obj
 0002:00042274       ?classCPen@CPen@@2UCRuntimeClass@@B 00129274     uafxcwd:wingdi.obj
 0002:00042290       ?classCBrush@CBrush@@2UCRuntimeClass@@B 00129290     uafxcwd:wingdi.obj
 0002:000422ac       ?classCFont@CFont@@2UCRuntimeClass@@B 001292ac     uafxcwd:wingdi.obj
 0002:000422c8       ?classCBitmap@CBitmap@@2UCRuntimeClass@@B 001292c8     uafxcwd:wingdi.obj
 0002:000422e4       ?classCPalette@CPalette@@2UCRuntimeClass@@B 001292e4     uafxcwd:wingdi.obj
 0002:00042300       ?classCRgn@CRgn@@2UCRuntimeClass@@B 00129300     uafxcwd:wingdi.obj
 0002:00042324       ??_7CDC@@6B@               00129324     uafxcwd:wingdi.obj
 0002:00042374       ??_7CClientDC@@6B@         00129374     uafxcwd:wingdi.obj
 0002:000423c4       ??_7CWindowDC@@6B@         001293c4     uafxcwd:wingdi.obj
 0002:00042414       ??_7CPaintDC@@6B@          00129414     uafxcwd:wingdi.obj
 0002:00044234       ?classCDocTemplate@CDocTemplate@@2UCRuntimeClass@@B 0012b234     uafxcwd:doctempl.obj
 0002:00044254       ??_7CDocTemplate@@6B@      0012b254     uafxcwd:doctempl.obj
 0002:000442e4       ??_7?$CList@PAXPAX@@6B@    0012b2e4     uafxcwd:doctempl.obj
 0002:00045ae4       ??_7CThreadData@@6B@       0012cae4     uafxcwd:afxtls.obj
 0002:00045ae8       ??_C@_0DH@DIPODMCA@f?3?2sp?2vctools?2vc7libsce?2ship?2atl@ 0012cae8     uafxcwd:afxtls.obj
 0002:00046ecc       ?classCArchiveException@CArchiveException@@2UCRuntimeClass@@B 0012decc     uafxcwd:arcex.obj
 0002:000482fc       ?classCFileException@CFileException@@2UCRuntimeClass@@B 0012f2fc     uafxcwd:filex.obj
 0002:0004d048       ??_7?$CMap@PAXPAXPAXPAX@@6B@ 00134048     uafxcwd:arcobj.obj
 0002:0004e5ac       ?classCCommonDialog@CCommonDialog@@2UCRuntimeClass@@B 001355ac     uafxcwd:dlgcomm.obj
 0002:0004fe8c       ??_7CControlBar@@6B@       00136e8c     uafxcwd:barcore.obj
 0002:000523d4       ?classCToolBar@CToolBar@@2UCRuntimeClass@@B 001393d4     uafxcwd:bartool.obj
 0002:000523f4       ??_7CToolBar@@6B@          001393f4     uafxcwd:bartool.obj
 0002:00052544       ??_7CToolCmdUI@@6B@        00139544     uafxcwd:bartool.obj
 0002:00052558       ??_7?$CMap@V?$CStringT@_WV?$StrTraitMFC@_WV?$ChTraitsOS@_W@ATL@@@@@ATL@@PB_WPAXPAX@@6B@ 00139558     uafxcwd:bartool.obj
 0002:00052678       ?_afxHandleInfo@@3QBUAFX_HANDLEINFO@@B 00139678     uafxcwd:trckrect.obj
 0002:00052778       ?_afxRectInfo@@3QBUAFX_RECTINFO@@B 00139778     uafxcwd:trckrect.obj
 0002:000552dc       ?classCBitmapButton@CBitmapButton@@2UCRuntimeClass@@B 0013c2dc     uafxcwd:winbtn.obj
 0002:0005b404       ??_7CHandleMap@@6B@        00142404     uafxcwd:winhand.obj
 0002:0005e858       ?_afxShellOpenFmt@@3QB_WB  00145858     uafxcwd:docmgr.obj
 0002:0005e87c       ?_afxDefaultIconFmt@@3QB_WB 0014587c     uafxcwd:docmgr.obj
 0002:0005e89c       ?_afxShellNewFmt@@3QB_WB   0014589c     uafxcwd:docmgr.obj
 0002:0005e8b4       ?_afxIconIndexFmt@@3QB_WB  001458b4     uafxcwd:docmgr.obj
 0002:0005e8bc       ?_afxCommand@@3QB_WB       001458bc     uafxcwd:docmgr.obj
 0002:0005e8cc       ?_afxOpenArg@@3QB_WB       001458cc     uafxcwd:docmgr.obj
 0002:0005e8d8       ?_afxDDEArg@@3QB_WB        001458d8     uafxcwd:docmgr.obj
 0002:0005e8e4       ?_afxDDEExec@@3QB_WB       001458e4     uafxcwd:docmgr.obj
 0002:0005e8f4       ?_afxDDEOpen@@3QB_WB       001458f4     uafxcwd:docmgr.obj
 0002:0005e910       ?_afxShellNewValueName@@3QB_WB 00145910     uafxcwd:docmgr.obj
 0002:0005e924       ?_afxShellNewValue@@3QB_WB 00145924     uafxcwd:docmgr.obj
 0002:0005e928       ?classCDocManager@CDocManager@@2UCRuntimeClass@@B 00145928     uafxcwd:docmgr.obj
 0002:0005e94c       ??_7CDocManager@@6B@       0014594c     uafxcwd:docmgr.obj
 0002:0005e988       ??_C@_1EM@DNOLBHGE@?$AA?$CI?$AAi?$AAC?$AAh?$AAa?$AAr?$AA?5?$AA?$DO?$AA?$DN?$AA?5?$AA0?$AA?$CJ?$AA?5?$AA?$CG?$AA?$CG?$AA?5?$AA?$CI?$AAi?$AAC?$AAh?$AAa?$AAr?$AA?5?$AA?$DM?$AA?5?$AAG?$AAe?$AAt?$AAL?$AAe?$AAn?$AAg@ 00145988     uafxcwd:docmgr.obj
 0002:0005ea18       ??_C@_1GE@CKJLFHBK@?$AA?$CI?$AAn?$AAC?$AAo?$AAu?$AAn?$AAt?$AA?5?$AA?$DN?$AA?$DN?$AA?5?$AA0?$AA?$CJ?$AA?5?$AA?$HM?$AA?$HM?$AA?5?$AA?$CI?$AA?$CI?$AAi?$AAF?$AAi?$AAr?$AAs?$AAt?$AA?$CL?$AAn?$AAC?$AAo?$AAu?$AAn?$AAt@ 00145a18     uafxcwd:docmgr.obj
 0002:0005ea80       ??_C@_1GK@KJCBCLF@?$AAf?$AA?3?$AA?2?$AAs?$AAp?$AA?2?$AAv?$AAc?$AAt?$AAo?$AAo?$AAl?$AAs?$AA?2?$AAv?$AAc?$AA7?$AAl?$AAi?$AAb?$AAs?$AAc?$AAe?$AA?2?$AAs?$AAh?$AAi?$AAp?$AA?2?$AAa?$AAt?$AAl@ 00145a80     uafxcwd:docmgr.obj
 0002:0005eaf0       ??_C@_1GM@CCFHLMJP@?$AAf?$AA?3?$AA?2?$AAs?$AAp?$AA?2?$AAv?$AAc?$AAt?$AAo?$AAo?$AAl?$AAs?$AA?2?$AAv?$AAc?$AA7?$AAl?$AAi?$AAb?$AAs?$AAc?$AAe?$AA?2?$AAs?$AAh?$AAi?$AAp?$AA?2?$AAa?$AAt?$AAl@ 00145af0     uafxcwd:docmgr.obj
 0002:000624c0       ??_7_AFX_PROPPAGEFONTINFO@@6B@ 001494c0     uafxcwd:ccdata.obj
 0002:00068108       ?classCSpinButtonCtrl@CSpinButtonCtrl@@2UCRuntimeClass@@B 0014f108     uafxcwd:winctrl2.obj
 0002:00068124       ?classCSliderCtrl@CSliderCtrl@@2UCRuntimeClass@@B 0014f124     uafxcwd:winctrl2.obj
 0002:00068140       ?classCProgressCtrl@CProgressCtrl@@2UCRuntimeClass@@B 0014f140     uafxcwd:winctrl2.obj
 0002:0006815c       ?classCHeaderCtrl@CHeaderCtrl@@2UCRuntimeClass@@B 0014f15c     uafxcwd:winctrl2.obj
 0002:00068178       ?classCTabCtrl@CTabCtrl@@2UCRuntimeClass@@B 0014f178     uafxcwd:winctrl2.obj
 0002:00068194       ?classCTreeCtrl@CTreeCtrl@@2UCRuntimeClass@@B 0014f194     uafxcwd:winctrl2.obj
 0002:000681b0       ?classCListCtrl@CListCtrl@@2UCRuntimeClass@@B 0014f1b0     uafxcwd:winctrl2.obj
 0002:000681cc       ?classCToolBarCtrl@CToolBarCtrl@@2UCRuntimeClass@@B 0014f1cc     uafxcwd:winctrl2.obj
 0002:000681e8       ?classCStatusBarCtrl@CStatusBarCtrl@@2UCRuntimeClass@@B 0014f1e8     uafxcwd:winctrl2.obj
 0002:00068204       ?classCImageList@CImageList@@2UCRuntimeClass@@B 0014f204     uafxcwd:winctrl2.obj
 0002:0006825c       ??_7CToolBarCtrl@@6B@      0014f25c     uafxcwd:winctrl2.obj
 0002:00068324       ??_7CStatusBarCtrl@@6B@    0014f324     uafxcwd:winctrl2.obj
 0002:0006842c       ??_7CListCtrl@@6B@         0014f42c     uafxcwd:winctrl2.obj
 0002:00068534       ??_7CTreeCtrl@@6B@         0014f534     uafxcwd:winctrl2.obj
 0002:000685fc       ??_7CSpinButtonCtrl@@6B@   0014f5fc     uafxcwd:winctrl2.obj
 0002:000686cc       ??_7CSliderCtrl@@6B@       0014f6cc     uafxcwd:winctrl2.obj
 0002:0006879c       ??_7CProgressCtrl@@6B@     0014f79c     uafxcwd:winctrl2.obj
 0002:0006886c       ??_7CHeaderCtrl@@6B@       0014f86c     uafxcwd:winctrl2.obj
 0002:0006897c       ??_7CTabCtrl@@6B@          0014f97c     uafxcwd:winctrl2.obj
 0002:00068a50       ??_7CImageList@@6B@        0014fa50     uafxcwd:winctrl2.obj
 0002:00068a9c       ??_C@_1CC@BEAKEANF@?$AAI?$AAm?$AAa?$AAg?$AAe?$AAL?$AAi?$AAs?$AAt?$AA_?$AAC?$AAr?$AAe?$AAa?$AAt?$AAe?$AA?$AA@ 0014fa9c     uafxcwd:winctrl2.obj
 0002:00068ac0       ??_C@_1BI@CJKPFBEK@?$AAc?$AAo?$AAr?$AAe?$AAd?$AAl?$AAl?$AA?4?$AAd?$AAl?$AAl?$AA?$AA@ 0014fac0     uafxcwd:winctrl2.obj
 0002:00068ad8       ??_C@_1CE@CHHEMNFO@?$AAI?$AAm?$AAa?$AAg?$AAe?$AAL?$AAi?$AAs?$AAt?$AA_?$AAD?$AAe?$AAs?$AAt?$AAr?$AAo?$AAy?$AA?$AA@ 0014fad8     uafxcwd:winctrl2.obj
 0002:00068afc       ??_C@_1DA@FIIMAHOL@?$AAI?$AAm?$AAa?$AAg?$AAe?$AAL?$AAi?$AAs?$AAt?$AA_?$AAG?$AAe?$AAt?$AAI?$AAm?$AAa?$AAg?$AAe?$AAC?$AAo?$AAu?$AAn?$AAt?$AA?$AA@ 0014fafc     uafxcwd:winctrl2.obj
 0002:00068b2c       ??_C@_1BM@MOOJEKOC@?$AAI?$AAm?$AAa?$AAg?$AAe?$AAL?$AAi?$AAs?$AAt?$AA_?$AAA?$AAd?$AAd?$AA?$AA@ 0014fb2c     uafxcwd:winctrl2.obj
 0002:00068b48       ??_C@_1CM@KFKBDMHO@?$AAI?$AAm?$AAa?$AAg?$AAe?$AAL?$AAi?$AAs?$AAt?$AA_?$AAR?$AAe?$AAp?$AAl?$AAa?$AAc?$AAe?$AAI?$AAc?$AAo?$AAn?$AA?$AA@ 0014fb48     uafxcwd:winctrl2.obj
 0002:00068b74       ??_C@_1CK@DBGILELH@?$AAI?$AAm?$AAa?$AAg?$AAe?$AAL?$AAi?$AAs?$AAt?$AA_?$AAS?$AAe?$AAt?$AAB?$AAk?$AAC?$AAo?$AAl?$AAo?$AAr?$AA?$AA@ 0014fb74     uafxcwd:winctrl2.obj
 0002:00068ba0       ??_C@_1CK@MEDOGNPG@?$AAI?$AAm?$AAa?$AAg?$AAe?$AAL?$AAi?$AAs?$AAt?$AA_?$AAG?$AAe?$AAt?$AAB?$AAk?$AAC?$AAo?$AAl?$AAo?$AAr?$AA?$AA@ 0014fba0     uafxcwd:winctrl2.obj
 0002:00068bcc       ??_C@_1DE@OGIFIDON@?$AAI?$AAm?$AAa?$AAg?$AAe?$AAL?$AAi?$AAs?$AAt?$AA_?$AAS?$AAe?$AAt?$AAO?$AAv?$AAe?$AAr?$AAl?$AAa?$AAy?$AAI?$AAm?$AAa?$AAg?$AAe?$AA?$AA@ 0014fbcc     uafxcwd:winctrl2.obj
 0002:00068c00       ??_C@_1BO@JJANHH@?$AAI?$AAm?$AAa?$AAg?$AAe?$AAL?$AAi?$AAs?$AAt?$AA_?$AAD?$AAr?$AAa?$AAw?$AA?$AA@ 0014fc00     uafxcwd:winctrl2.obj
 0002:00068c20       ??_C@_1CE@EOBMJHFM@?$AAI?$AAm?$AAa?$AAg?$AAe?$AAL?$AAi?$AAs?$AAt?$AA_?$AAR?$AAe?$AAp?$AAl?$AAa?$AAc?$AAe?$AA?$AA@ 0014fc20     uafxcwd:winctrl2.obj
 0002:00068c44       ??_C@_1CI@BCINPJHL@?$AAI?$AAm?$AAa?$AAg?$AAe?$AAL?$AAi?$AAs?$AAt?$AA_?$AAA?$AAd?$AAd?$AAM?$AAa?$AAs?$AAk?$AAe?$AAd?$AA?$AA@ 0014fc44     uafxcwd:winctrl2.obj
 0002:00068c6c       ??_C@_1CC@KPKNCJIJ@?$AAI?$AAm?$AAa?$AAg?$AAe?$AAL?$AAi?$AAs?$AAt?$AA_?$AAD?$AAr?$AAa?$AAw?$AAE?$AAx?$AA?$AA@ 0014fc6c     uafxcwd:winctrl2.obj
 0002:00068c90       ??_C@_1CC@NMKCGKHB@?$AAI?$AAm?$AAa?$AAg?$AAe?$AAL?$AAi?$AAs?$AAt?$AA_?$AAR?$AAe?$AAm?$AAo?$AAv?$AAe?$AA?$AA@ 0014fc90     uafxcwd:winctrl2.obj
 0002:00068cb4       ??_C@_1CE@JKPGMHDI@?$AAI?$AAm?$AAa?$AAg?$AAe?$AAL?$AAi?$AAs?$AAt?$AA_?$AAG?$AAe?$AAt?$AAI?$AAc?$AAo?$AAn?$AA?$AA@ 0014fcb4     uafxcwd:winctrl2.obj
 0002:00068cd8       ??_C@_1CI@DIOBAMN@?$AAI?$AAm?$AAa?$AAg?$AAe?$AAL?$AAi?$AAs?$AAt?$AA_?$AAL?$AAo?$AAa?$AAd?$AAI?$AAm?$AAa?$AAg?$AAe?$AA?$AA@ 0014fcd8     uafxcwd:winctrl2.obj
 0002:00068d00       ??_C@_1CI@LNBNIAKJ@?$AAI?$AAm?$AAa?$AAg?$AAe?$AAL?$AAi?$AAs?$AAt?$AA_?$AAB?$AAe?$AAg?$AAi?$AAn?$AAD?$AAr?$AAa?$AAg?$AA?$AA@ 0014fd00     uafxcwd:winctrl2.obj
 0002:00068d28       ??_C@_1CE@FMJLKALF@?$AAI?$AAm?$AAa?$AAg?$AAe?$AAL?$AAi?$AAs?$AAt?$AA_?$AAE?$AAn?$AAd?$AAD?$AAr?$AAa?$AAg?$AA?$AA@ 0014fd28     uafxcwd:winctrl2.obj
 0002:00068d4c       ??_C@_1CI@GFFMHHLH@?$AAI?$AAm?$AAa?$AAg?$AAe?$AAL?$AAi?$AAs?$AAt?$AA_?$AAD?$AAr?$AAa?$AAg?$AAE?$AAn?$AAt?$AAe?$AAr?$AA?$AA@ 0014fd4c     uafxcwd:winctrl2.obj
 0002:00068d74       ??_C@_1CI@HMMCJGIN@?$AAI?$AAm?$AAa?$AAg?$AAe?$AAL?$AAi?$AAs?$AAt?$AA_?$AAD?$AAr?$AAa?$AAg?$AAL?$AAe?$AAa?$AAv?$AAe?$AA?$AA@ 0014fd74     uafxcwd:winctrl2.obj
 0002:00068d9c       ??_C@_1CG@ECDPIENE@?$AAI?$AAm?$AAa?$AAg?$AAe?$AAL?$AAi?$AAs?$AAt?$AA_?$AAD?$AAr?$AAa?$AAg?$AAM?$AAo?$AAv?$AAe?$AA?$AA@ 0014fd9c     uafxcwd:winctrl2.obj
 0002:00068dc4       ??_C@_1DK@FAJLHNJG@?$AAI?$AAm?$AAa?$AAg?$AAe?$AAL?$AAi?$AAs?$AAt?$AA_?$AAS?$AAe?$AAt?$AAD?$AAr?$AAa?$AAg?$AAC?$AAu?$AAr?$AAs?$AAo?$AAr?$AAI?$AAm?$AAa?$AAg?$AAe?$AA?$AA@ 0014fdc4     uafxcwd:winctrl2.obj
 0002:00068e00       ??_C@_1DC@LFILHPPH@?$AAI?$AAm?$AAa?$AAg?$AAe?$AAL?$AAi?$AAs?$AAt?$AA_?$AAD?$AAr?$AAa?$AAg?$AAS?$AAh?$AAo?$AAw?$AAN?$AAo?$AAl?$AAo?$AAc?$AAk?$AA?$AA@ 0014fe00     uafxcwd:winctrl2.obj
 0002:00068e34       ??_C@_1CO@KANBOHBK@?$AAI?$AAm?$AAa?$AAg?$AAe?$AAL?$AAi?$AAs?$AAt?$AA_?$AAG?$AAe?$AAt?$AAD?$AAr?$AAa?$AAg?$AAI?$AAm?$AAa?$AAg?$AAe?$AA?$AA@ 0014fe34     uafxcwd:winctrl2.obj
 0002:00068e64       ??_C@_1CO@OIBAANHJ@?$AAI?$AAm?$AAa?$AAg?$AAe?$AAL?$AAi?$AAs?$AAt?$AA_?$AAG?$AAe?$AAt?$AAI?$AAm?$AAa?$AAg?$AAe?$AAI?$AAn?$AAf?$AAo?$AA?$AA@ 0014fe64     uafxcwd:winctrl2.obj
 0002:00068e94       ??_C@_1CA@LLAOAAHH@?$AAI?$AAm?$AAa?$AAg?$AAe?$AAL?$AAi?$AAs?$AAt?$AA_?$AAM?$AAe?$AAr?$AAg?$AAe?$AA?$AA@ 0014fe94     uafxcwd:winctrl2.obj
 0002:0006a26c       ?classCMenu@CMenu@@2UCRuntimeClass@@B 0015126c     uafxcwd:winmenu.obj
 0002:0006e034       ?classCFrameWnd@CFrameWnd@@2UCRuntimeClass@@B 00155034     uafxcwd:winfrm.obj
 0002:0006e050       ?classCView@CView@@2UCRuntimeClass@@B 00155050     uafxcwd:winfrm.obj
 0002:0006e06c       ?classCControlBar@CControlBar@@2UCRuntimeClass@@B 0015506c     uafxcwd:winfrm.obj
 0002:0006e3f4       ??_7CFrameWnd@@6B@         001553f4     uafxcwd:winfrm.obj
 0002:0006e4f4       ??_7?$CArray@PAUHWND__@@PAU1@@@6B@ 001554f4     uafxcwd:winfrm.obj
 0002:0006e55c       ??_C@_0DG@MNJKAHFJ@f?3?2sp?2vctools?2vc7libsce?2ship?2atl@ 0015555c     uafxcwd:winfrm.obj
 0002:0006f868       ?classCDocList@CDocList@@2UCRuntimeClass@@B 00156868     uafxcwd:doclist.obj
 0002:0006f884       ?classCDocListCommandBar@CDocListCommandBar@@2UCRuntimeClass@@B 00156884     uafxcwd:doclist.obj
 0002:0006f8a4       ??_7CDocList@@6B@          001568a4     uafxcwd:doclist.obj
 0002:00071798       ?classCCommandBar@CCommandBar@@2UCRuntimeClass@@B 00158798     uafxcwd:barcmd.obj
 0002:000717f4       ??_7CCommandBar@@6B@       001587f4     uafxcwd:barcmd.obj
 0002:00072f44       ?classCFormView@CFormView@@2UCRuntimeClass@@B 00159f44     uafxcwd:viewform.obj
 0002:00072fcc       ??_7CFormView@@6B@         00159fcc     uafxcwd:viewform.obj
 0002:00076058       ??_7CInnerUnknown@@6B@     0015d058     uafxcwd:oleunk.obj
 0002:00076068       ??_7COleException@@6B@     0015d068     uafxcwd:oleunk.obj
